(dp1
S'output'
p2
S"<type 'exceptions.IOError'> [Errno 2] No such file or directory: 'C:\\\\Users\\\\admin\\\\Desktop\\\\Sathvik\\\\Tharuni.Org\\\\applications\\\\admin\\\\..\\\\tharuni\\\\models\\\\db.py'"
p3
sS'layer'
p4
S'C:\\Users\\admin\\Desktop\\Sathvik\\Tharuni.Org\\applications\\admin\\controllers/wizard.py'
p5
sS'code'
p6
S'# -*- coding: utf-8 -*-\n\nimport os, uuid, re, pickle, urllib, glob\nfrom gluon.admin import app_create, plugin_install\nfrom gluon.fileutils import abspath, read_file, write_file\n\ndef reset(session):\n    session.app={\n        \'name\':\'\',\n        \'params\':[(\'title\',\'My New App\'),\n                  (\'subtitle\',\'powered by web2py\'),\n                  (\'author\',\'you\'),\n                  (\'author_email\',\'you@example.com\'),\n                  (\'keywords\',\'\'),\n                  (\'description\',\'\'),\n                  (\'layout_theme\',\'Default\'),\n                  (\'database_uri\',\'sqlite://storage.sqlite\'),\n                  (\'security_key\',str(uuid.uuid4())),\n                  (\'email_server\',\'localhost\'),\n                  (\'email_sender\',\'you@example.com\'),\n                  (\'email_login\',\'\'),\n                  (\'login_method\',\'local\'),\n                  (\'login_config\',\'\'),\n                  (\'plugins\',[])],\n        \'tables\':[\'auth_user\'],\n        \'table_auth_user\':[\'username\',\'first_name\',\n                           \'last_name\',\'email\',\'password\'],\n        \'pages\':[\'index\',\'error\'],\n        \'page_index\':\'# Welcome to my new app\',\n        \'page_error\':\'# Error: the document does not exist\',\n        }\n\nif not session.app: reset(session)\n\ndef listify(x):\n    if not isinstance(x,(list,tuple)):\n        return x and [x] or []\n    return x\n\ndef clean(name):\n    return re.sub(\'\\W+\',\'_\',name.strip().lower())\n\ndef index():\n    response.view=\'wizard/step.html\'\n    reset(session)\n    apps=os.listdir(os.path.join(request.folder,\'..\'))\n    form=SQLFORM.factory(Field(\'name\',requires=[IS_NOT_EMPTY(),\n                                                IS_ALPHANUMERIC()]))\n    if form.accepts(request.vars):\n        app = form.vars.name\n        session.app[\'name\'] = app\n        if MULTI_USER_MODE and db(db.app.name==app)\\\n                (db.app.owner!=auth.user.id).count():\n            session.flash = \'App belongs already to other user\'\n        elif app in apps:\n            meta = os.path.normpath(\\\n                os.path.join(os.path.normpath(request.folder),\n                             \'..\',app,\'wizard.metadata\'))\n            if os.path.exists(meta):\n                try:\n                    metafile = open(meta,\'rb\')\n                    try:\n                        session.app = pickle.load(metafile)\n                    finally:\n                        metafile.close()\n                    session.flash = T("The app exists, was created by wizard, continue to overwrite!")\n                except:\n                    session.flash = T("The app exists, was NOT created by wizard, continue to overwrite!")\n        redirect(URL(\'step1\'))\n    return dict(step=\'Start\',form=form)\n\n\ndef step1():\n    from gluon.contrib.simplejson import loads\n    import urllib\n    if not session.themes:\n        url=LAYOUTS_APP+\'/default/layouts.json\'\n        try:\n            data = urllib.urlopen(url).read()\n            session.themes = [\'Default\'] + loads(data)[\'layouts\']\n        except:\n            session.themes = [\'Default\']\n    themes = session.themes\n    if not session.plugins:\n        url = PLUGINS_APP+\'/default/plugins.json\'\n        try:\n            data = urllib.urlopen(url).read()\n            session.plugins = loads(data)[\'plugins\']\n        except:\n            session.plugins = []\n    plugins = [x.split(\'.\')[2] for x in session.plugins]\n    response.view=\'wizard/step.html\'\n    params = dict(session.app[\'params\'])\n    form=SQLFORM.factory(\n                Field(\'title\',default=params.get(\'title\',None),\n                                      requires=IS_NOT_EMPTY()),\n                Field(\'subtitle\',default=params.get(\'subtitle\',None)),\n                Field(\'author\',default=params.get(\'author\',None)),\n                Field(\'author_email\',default=params.get(\'author_email\',None)),\n                Field(\'keywords\',default=params.get(\'keywords\',None)),\n                Field(\'description\',\'text\',\n                      default=params.get(\'description\',None)),\n                Field(\'layout_theme\',requires=IS_IN_SET(themes),\n                      default=params.get(\'layout_theme\',themes[0])),\n                Field(\'database_uri\',default=params.get(\'database_uri\',None)),\n                Field(\'security_key\',default=params.get(\'security_key\',None)),\n                Field(\'email_server\',default=params.get(\'email_server\',None)),\n                Field(\'email_sender\',default=params.get(\'email_sender\',None)),\n                Field(\'email_login\',default=params.get(\'email_login\',None)),\n                Field(\'login_method\',requires=IS_IN_SET((\'local\',\'janrain\')),\n                      default=params.get(\'login_method\',\'local\')),\n                Field(\'login_config\',default=params.get(\'login_config\',None)),\n                Field(\'plugins\',\'list:string\',requires=IS_IN_SET(plugins,multiple=True)))\n\n    if form.accepts(request.vars):\n        session.app[\'params\']=[(key,form.vars.get(key,None))\n                               for key,value in session.app[\'params\']]\n        redirect(URL(\'step2\'))\n    return dict(step=\'1: Setting Parameters\',form=form)\n\ndef step2():\n    response.view=\'wizard/step.html\'\n    form=SQLFORM.factory(Field(\'table_names\',\'list:string\',\n                               default=session.app[\'tables\']))\n    if form.accepts(request.vars):\n        table_names = [clean(t) for t in listify(form.vars.table_names) \\\n                           if t.strip()]\n        if [t for t in table_names if t.startswith(\'auth_\') and \\\n                not t==\'auth_user\']:\n            form.error.table_names = \\\n                T(\'invalid table names (auth_* tables already defined)\')\n        else:\n            session.app[\'tables\']=table_names\n            for table in session.app[\'tables\']:\n                if not \'table_\'+table in session.app:\n                    session.app[\'table_\'+table]=[\'name\']\n                if not table==\'auth_user\':\n                    name = table+\'_manage\'\n                    if not name in session.app[\'pages\']:\n                        session.app[\'pages\'].append(name)\n                        session.app[\'page_\'+name] = \\\n                            \'## Manage %s\\n\\n{{=form}}\' % (table)\n            if session.app[\'tables\']:\n                redirect(URL(\'step3\',args=0))\n            else:\n                redirect(URL(\'step4\'))\n    return dict(step=\'2: Tables\',form=form)\n\ndef step3():\n    response.view=\'wizard/step.html\'\n    n=int(request.args(0) or 0)\n    m=len(session.app[\'tables\'])\n    if n>=m: redirect(URL(\'step2\'))\n    table=session.app[\'tables\'][n]\n    form=SQLFORM.factory(Field(\'field_names\',\'list:string\',\n                               default=session.app.get(\'table_\'+table,[])))\n    if form.accepts(request.vars) and form.vars.field_names:\n        fields=listify(form.vars.field_names)\n        if table==\'auth_user\':\n            for field in [\'first_name\',\'last_name\',\'username\',\'email\',\'password\']:\n                if not field in fields:\n                    fields.append(field)\n        session.app[\'table_\'+table]=[t.strip().lower()\n                                       for t in listify(form.vars.field_names)\n                                       if t.strip()]\n        try:\n            tables=sort_tables(session.app[\'tables\'])\n        except RuntimeError:\n            response.flash=T(\'invalid circular reference\')\n        else:\n            if n<m-1:\n                redirect(URL(\'step3\',args=n+1))\n            else:\n                redirect(URL(\'step4\'))\n    return dict(step=\'3: Fields for table "%s" (%s of %s)\' \\\n                    % (table,n+1,m),table=table,form=form)\n\ndef step4():\n    response.view=\'wizard/step.html\'\n    form=SQLFORM.factory(Field(\'pages\',\'list:string\',\n                               default=session.app[\'pages\']))\n    if form.accepts(request.vars):\n        session.app[\'pages\']=[clean(t)\n                              for t in listify(form.vars.pages)\n                              if t.strip()]\n        if session.app[\'pages\']:\n            redirect(URL(\'step5\',args=0))\n        else:\n            redirect(URL(\'step6\'))\n    return dict(step=\'4: Pages\',form=form)\n\ndef step5():\n    response.view=\'wizard/step.html\'\n    n=int(request.args(0) or 0)\n    m=len(session.app[\'pages\'])\n    if n>=m: redirect(URL(\'step4\'))\n    page=session.app[\'pages\'][n]\n    markmin_url=\'http://web2py.com/examples/static/markmin.html\'\n    form=SQLFORM.factory(Field(\'content\',\'text\',\n                               default=session.app.get(\'page_\'+page,[]),\n                               comment=A(\'use markmin\',\n                                         _href=markmin_url,_target=\'_blank\')),\n                         formstyle=\'table2cols\')\n    if form.accepts(request.vars):\n        session.app[\'page_\'+page]=form.vars.content\n        if n<m-1:\n            redirect(URL(\'step5\',args=n+1))\n        else:\n            redirect(URL(\'step6\'))\n    return dict(step=\'5: View for page "%s" (%s of %s)\' % (page,n+1,m),form=form)\n\ndef step6():\n    response.view=\'wizard/step.html\'\n    params = dict(session.app[\'params\'])\n    app = session.app[\'name\']\n    form=SQLFORM.factory(\n        Field(\'generate_model\',\'boolean\',default=True),\n        Field(\'generate_controller\',\'boolean\',default=True),\n        Field(\'generate_views\',\'boolean\',default=True),\n        Field(\'generate_menu\',\'boolean\',default=True),\n        Field(\'apply_layout\',\'boolean\',default=True),\n        Field(\'erase_database\',\'boolean\',default=True),\n        Field(\'populate_database\',\'boolean\',default=True))\n    if form.accepts(request.vars):\n        if DEMO_MODE:\n            session.flash = T(\'Application cannot be generated in demo mode\')\n            redirect(URL(\'index\'))\n        create(form.vars)\n        session.flash = \'Application %s created\' % app\n        redirect(URL(\'generated\'))\n    return dict(step=\'6: Generate app "%s"\' % app,form=form)\n\ndef generated():\n    return dict(app=session.app[\'name\'])\n\ndef sort_tables(tables):\n    import re\n    regex = re.compile(\'(%s)\' % \'|\'.join(tables))\n    is_auth_user = \'auth_user\' in tables\n    d={}\n    for table in tables:\n        d[table]=[]\n        for field in session.app[\'table_%s\' % table]:\n            d[table]+=regex.findall(field)\n    tables=[]\n    if is_auth_user:\n        tables.append(\'auth_user\')\n    def append(table,trail=[]):\n        if table in trail:\n            raise RuntimeError\n        for t in d[table]:\n            # if not t==table: (problem, no dropdown for self references)\n            append(t,trail=trail+[table])\n        if not table in tables:\n            tables.append(table)\n    for table in d: append(table)\n    return tables\n\ndef make_table(table,fields):\n    rawtable=table\n    if table!=\'auth_user\': table=\'t_\'+table\n    s=\'\'\n    s+=\'\\n\'+\'#\'*40+\'\\n\'\n    s+="db.define_table(\'%s\',\\n" % table\n    first_field=\'id\'\n    for field in fields:\n        items=[x.lower() for x in field.split()]\n        has = {}\n        keys = []\n        for key in [\'notnull\',\'unique\',\'integer\',\'double\',\'boolean\',\'float\',\n                    \'boolean\', \'date\',\'time\',\'datetime\',\'text\',\'wiki\',\n                    \'html\',\'file\',\'upload\',\'image\',\'true\',\n                    \'hidden\',\'readonly\',\'writeonly\',\'multiple\',\n                    \'notempty\',\'required\']:\n            if key in items[1:]:\n                keys.append(key)\n                has[key] = True\n        tables = session.app[\'tables\']\n        refs = [t for t in tables if t in items]\n        items = items[:1] + [x for x in items[1:] \\\n                                 if not x in keys and not x in tables]\n        barename = name = \'_\'.join(items)\n        if table[:2]==\'t_\': name=\'f_\'+name\n        if first_field==\'id\': first_field=name\n\n        ### determine field type\n        ftype=\'string\'\n        deftypes={\'integer\':\'integer\',\'double\':\'double\',\'boolean\':\'boolean\',\n                  \'float\':\'double\',\'bool\':\'boolean\',\n                  \'date\':\'date\',\'time\':\'time\',\'datetime\':\'datetime\',\n                  \'text\':\'text\',\'file\':\'upload\',\'image\':\'upload\',\n                  \'upload\':\'upload\',\'wiki\':\'text\', \'html\':\'text\'}\n        for key,t in deftypes.items():\n            if key in has:\n                ftype = t\n        if refs:\n            key = refs[0]\n            if not key==\'auth_user\': key=\'t_\'+key\n            if \'multiple\' in has:\n                ftype=\'list:reference %s\' % key\n            else:\n                ftype=\'reference %s\' % key\n        if ftype==\'string\' and \'multiple\' in has:\n            ftype=\'list:string\'\n        elif ftype==\'integer\' and \'multiple\' in has:\n            ftype=\'list:integer\'\n        elif name==\'password\':\n            ftype=\'password\'\n        s+="    Field(\'%s\', type=\'%s\'" % (name, ftype)\n\n        ### determine field attributes\n        if \'notnull\' in has or \'notempty\' in has or \'required\' in has:\n            s+=\', notnull=True\'\n        if \'unique\' in has:\n            s+=\', unique=True\'\n        if ftype==\'boolean\' and \'true\' in has:\n            s+=",\\n          default=True"\n\n        ### determine field representation\n        elif \'wiki\' in has:\n            s+=",\\n          represent=lambda x, row: MARKMIN(x)"\n            s+=",\\n          comment=\'WIKI (markmin)\'"\n        elif \'html\' in has:\n            s+=",\\n          represent=lambda x, row: XML(x,sanitize=True)"\n            s+=",\\n          comment=\'HTML (sanitized)\'"\n        ### determine field access\n        if name==\'password\' or \'writeonly\' in has:\n            s+=",\\n          readable=False"\n        elif \'hidden\' in has:\n            s+=",\\n          writable=False, readable=False"\n        elif \'readonly\' in has:\n            s+=",\\n          writable=False"\n\n        ### make up a label\n        s+=",\\n          label=T(\'%s\')),\\n" % \\\n            \' \'.join(x.capitalize() for x in barename.split(\'_\'))\n    if table==\'auth_user\':\n        s+="    Field(\'created_on\',\'datetime\',default=request.now,\\n"\n        s+="          label=T(\'Created On\'),writable=False,readable=False),\\n"\n        s+="    Field(\'modified_on\',\'datetime\',default=request.now,\\n"\n        s+="          label=T(\'Modified On\'),writable=False,readable=False,\\n"\n        s+="          update=request.now),\\n"\n        s+="    Field(\'registration_key\',default=\'\',\\n"\n        s+="          writable=False,readable=False),\\n"\n        s+="    Field(\'reset_password_key\',default=\'\',\\n"\n        s+="          writable=False,readable=False),\\n"\n        s+="    Field(\'registration_id\',default=\'\',\\n"\n        s+="          writable=False,readable=False),\\n"\n    elif \'auth_user\' in session.app[\'tables\']:\n        s+="    auth.signature,\\n"\n    s+="    format=\'%("+first_field+")s\',\\n"\n    s+="    migrate=settings.migrate)\\n\\n"\n    if table==\'auth_user\':\n        s+="""\ndb.auth_user.first_name.requires = IS_NOT_EMPTY(error_message=auth.messages.is_empty)\ndb.auth_user.last_name.requires = IS_NOT_EMPTY(error_message=auth.messages.is_empty)\ndb.auth_user.password.requires = CRYPT(key=auth.settings.hmac_key, min_length=4)\ndb.auth_user.username.requires = IS_NOT_IN_DB(db, db.auth_user.username)\ndb.auth_user.email.requires = (IS_EMAIL(error_message=auth.messages.invalid_email),\n                               IS_NOT_IN_DB(db, db.auth_user.email))\n"""\n    else:\n        s+="db.define_table(\'%s_archive\',db.%s,Field(\'current_record\',\'reference %s\',readable=False,writable=False))\\n" % (table,table,table)\n    return s\n\ndef fix_db(filename):\n    params = dict(session.app[\'params\'])\n    content = read_file(filename,\'rb\')\n    if \'auth_user\' in session.app[\'tables\']:\n        auth_user = make_table(\'auth_user\',session.app[\'table_auth_user\'])\n        content = content.replace(\'sqlite://storage.sqlite\',\n                                params[\'database_uri\'])\n        content = content.replace(\'auth.define_tables()\',\\\n            auth_user+\'auth.define_tables(migrate = settings.migrate)\')\n    content += """\nmail.settings.server = settings.email_server\nmail.settings.sender = settings.email_sender\nmail.settings.login = settings.email_login\n"""\n    if params[\'login_method\']==\'janrain\':\n        content+="""\nfrom gluon.contrib.login_methods.rpx_account import RPXAccount\nauth.settings.actions_disabled=[\'register\',\'change_password\',\'request_reset_password\']\nauth.settings.login_form = RPXAccount(request,\n    api_key = settings.login_config.split(\':\')[-1],\n    domain = settings.login_config.split(\':\')[0],\n    url = "http://%s/%s/default/user/login" % (request.env.http_host,request.application))\n"""\n    write_file(filename, content, \'wb\')\n\ndef make_menu(pages):\n    s=\'\'\n    s+=\'response.title = settings.title\\n\'\n    s+=\'response.subtitle = settings.subtitle\\n\'\n    s+="response.meta.author = \'%(author)s <%(author_email)s>\' % settings\\n"\n    s+=\'response.meta.keywords = settings.keywords\\n\'\n    s+=\'response.meta.description = settings.description\\n\'\n    s+=\'response.menu = [\\n\'\n    for page in pages:\n        if not page.startswith(\'error\'):\n            if page.endswith(\'_manage\'):\n                page_name = page[:-7]\n            else:\n                page_name = page\n            page_name = \' \'.join(x.capitalize() for x in page_name.split(\'_\'))\n            s+="(T(\'%s\'),URL(\'default\',\'%s\')==URL(),URL(\'default\',\'%s\'),[]),\\n" \\\n                % (page_name,page,page)\n    s+=\']\'\n    return s\n\ndef make_page(page,contents):\n    if \'auth_user\' in session.app[\'tables\'] and not page in (\'index\',\'error\'):\n        s="@auth.requires_login()\\ndef %s():\\n" % page\n    else:\n        s="def %s():\\n" % page\n    items = page.rsplit(\'_\',1)\n    if items[0] in session.app[\'tables\'] and len(items)==2 and items[1]==\'manage\':\n        s+="    form = SQLFORM.smartgrid(db.t_%s,onupdate=auth.archive)\\n" % items[0]\n        s+="    return locals()\\n\\n"\n    else:\n        s+="    return dict()\\n\\n"\n    return s\n\ndef make_view(page,contents):\n    s="{{extend \'layout.html\'}}\\n\\n"\n    s+=str(MARKMIN(contents))\n    return s\n\ndef populate(tables):\n    s = \'from gluon.contrib.populate import populate\\n\'\n    s+= \'if db(db.auth_user).isempty():\\n\'\n    for table in sort_tables(tables):\n        t=table==\'auth_user\' and \'auth_user\' or \'t_\'+table\n        s+="     populate(db.%s,10)\\n" % t\n    return s\n\ndef create(options):\n    if DEMO_MODE:\n        session.flash = T(\'disabled in demo mode\')\n        redirect(URL(\'step6\'))\n    params = dict(session.app[\'params\'])\n    app = session.app[\'name\']\n    if app_create(app,request,force=True,key=params[\'security_key\']):\n        if MULTI_USER_MODE:\n            db.app.insert(name=app,owner=auth.user.id)\n    else:\n        session.flash = \'Failure to create application\'\n        redirect(URL(\'step6\'))\n\n    ### save metadata in newapp/wizard.metadata\n    try:\n        meta = os.path.join(request.folder,\'..\',app,\'wizard.metadata\')\n        file=open(meta,\'wb\')\n        pickle.dump(session.app,file)\n        file.close()\n    except IOError:\n        session.flash = \'Failure to write wizard metadata\'\n        redirect(URL(\'step6\'))\n\n    ### apply theme\n    if options.apply_layout and params[\'layout_theme\']!=\'Default\':\n        try:\n            fn = \'web2py.plugin.layout_%s.w2p\' % params[\'layout_theme\']\n            theme = urllib.urlopen(LAYOUTS_APP+\'/static/plugin_layouts/plugins/\'+fn)\n            plugin_install(app, theme, request, fn)\n        except:\n            session.flash = T("unable to download layout")\n\n    ### apply plugins\n    for plugin in params[\'plugins\']:\n        try:\n            plugin_name = \'web2py.plugin.\'+plugin+\'.w2p\'\n            stream = urllib.urlopen(PLUGINS_APP+\'/static/\'+plugin_name)\n            plugin_install(app, stream, request, plugin_name)\n        except Exception, e:\n            session.flash = T("unable to download plugin: %s" % plugin)\n\n    ### write configuration file into newapp/models/0.py\n    model = os.path.join(request.folder,\'..\',app,\'models\',\'0.py\')\n    file = open(model, \'wb\')\n    try:\n        file.write("from gluon.storage import Storage\\n")\n        file.write("settings = Storage()\\n\\n")\n        file.write("settings.migrate = True\\n")\n        for key,value in session.app[\'params\']:\n            file.write("settings.%s = %s\\n" % (key,repr(value)))\n    finally:\n        file.close()\n\n    ### write configuration file into newapp/models/menu.py\n    if options.generate_menu:\n        model = os.path.join(request.folder,\'..\',app,\'models\',\'menu.py\')\n        file = open(model,\'wb\')\n        try:\n            file.write(make_menu(session.app[\'pages\']))\n        finally:\n            file.close()\n\n    ### customize the auth_user table\n    model = os.path.join(request.folder,\'..\',app,\'models\',\'db.py\')\n    fix_db(model)\n\n    ### create newapp/models/db_wizard.py\n    if options.generate_model:\n        model = os.path.join(request.folder,\'..\',app,\'models\',\'db_wizard.py\')\n        file = open(model,\'wb\')\n        try:\n            file.write(\'### we prepend t_ to tablenames and f_ to fieldnames for disambiguity\\n\\n\')\n            tables = sort_tables(session.app[\'tables\'])\n            for table in tables:\n                if table==\'auth_user\': continue\n                file.write(make_table(table,session.app[\'table_\'+table]))\n        finally:\n            file.close()\n\n    model = os.path.join(request.folder,\'..\',app,\n                         \'models\',\'db_wizard_populate.py\')\n    if os.path.exists(model): os.unlink(model)\n    if options.populate_database and session.app[\'tables\']:\n        file = open(model,\'wb\')\n        try:\n            file.write(populate(session.app[\'tables\']))\n        finally:\n            file.close()\n\n    ### create newapp/controllers/default.py\n    if options.generate_controller:\n        controller = os.path.join(request.folder,\'..\',app,\'controllers\',\'default.py\')\n        file = open(controller,\'wb\')\n        try:\n            file.write("""# -*- coding: utf-8 -*-\n### required - do no delete\ndef user(): return dict(form=auth())\ndef download(): return response.download(request,db)\ndef call(): return service()\n### end requires\n""")\n            for page in session.app[\'pages\']:\n                file.write(make_page(page,session.app.get(\'page_\'+page,\'\')))\n        finally:\n            file.close()\n\n    ### create newapp/views/default/*.html\n    if options.generate_views:\n        for page in session.app[\'pages\']:\n            view = os.path.join(request.folder,\'..\',app,\'views\',\'default\',page+\'.html\')\n            file = open(view,\'wb\')\n            try:\n                file.write(make_view(page,session.app.get(\'page_\'+page,\'\')))\n            finally:\n                file.close()\n\n    if options.erase_database:\n        path = os.path.join(request.folder,\'..\',app,\'databases\',\'*\')\n        for file in glob.glob(path):\n            os.unlink(file)\n\n\n\nresponse._vars=response._caller(step6)\n'
p7
sS'snapshot'
p8
(dp9
S'exception'
p10
(dp11
S'__getslice__'
p12
S"<method-wrapper '__getslice__' of exceptions.IOError object>"
p13
sS'__str__'
p14
S"<method-wrapper '__str__' of exceptions.IOError object>"
p15
sS'__reduce__'
p16
S'<built-in method __reduce__ of exceptions.IOError object>'
p17
sS'__dict__'
p18
S'{}'
p19
sS'__sizeof__'
p20
S'<built-in method __sizeof__ of exceptions.IOError object>'
p21
sS'__init__'
p22
S"<method-wrapper '__init__' of exceptions.IOError object>"
p23
sS'__setattr__'
p24
S"<method-wrapper '__setattr__' of exceptions.IOError object>"
p25
sS'__reduce_ex__'
p26
S'<built-in method __reduce_ex__ of exceptions.IOError object>'
p27
sS'__new__'
p28
S'<built-in method __new__ of type object>'
p29
sS'errno'
p30
S'2'
sS'__format__'
p31
S'<built-in method __format__ of exceptions.IOError object>'
p32
sS'__class__'
p33
S"<type 'exceptions.IOError'>"
p34
sS'filename'
p35
S"r'C:\\Users\\admin\\Desktop\\Sathvik\\Tharuni.Org\\applications\\admin\\..\\tharuni\\models\\db.py'"
p36
sS'__doc__'
p37
S"'I/O operation failed.'"
p38
sS'__getitem__'
p39
S"<method-wrapper '__getitem__' of exceptions.IOError object>"
p40
sS'__setstate__'
p41
S'<built-in method __setstate__ of exceptions.IOError object>'
p42
sS'__getattribute__'
p43
S"<method-wrapper '__getattribute__' of exceptions.IOError object>"
p44
sS'args'
p45
S"(2, 'No such file or directory')"
p46
sS'__subclasshook__'
p47
S'<built-in method __subclasshook__ of type object>'
p48
sS'__unicode__'
p49
S'<built-in method __unicode__ of exceptions.IOError object>'
p50
sS'strerror'
p51
S"'No such file or directory'"
p52
sS'__delattr__'
p53
S"<method-wrapper '__delattr__' of exceptions.IOError object>"
p54
sS'__repr__'
p55
S"<method-wrapper '__repr__' of exceptions.IOError object>"
p56
sS'__hash__'
p57
S"<method-wrapper '__hash__' of exceptions.IOError object>"
p58
ssS'evalue'
p59
S"[Errno 2] No such file or directory: 'C:\\\\Users\\\\admin\\\\Desktop\\\\Sathvik\\\\Tharuni.Org\\\\applications\\\\admin\\\\..\\\\tharuni\\\\models\\\\db.py'"
p60
sS'request'
p61
ccopy_reg
_reconstructor
p62
(cgluon.html
BEAUTIFY
p63
c__builtin__
object
p64
NtRp65
(dp66
S'attributes'
p67
(dp68
sS'components'
p69
(lp70
g62
(cgluon.html
TABLE
p71
g64
NtRp72
(dp73
g67
(dp74
S'level'
p75
I5
ssS'parent'
p76
Nsg69
(lp77
g62
(cgluon.html
TR
p78
g64
NtRp79
(dp80
g67
(dp81
sg76
g72
sg69
(lp82
g62
(cgluon.html
TD
p83
g64
NtRp84
(dp85
g67
(dp86
S'_style'
p87
S'font-weight:bold;vertical-align:top'
p88
ssg76
g79
sg69
(lp89
S'ajax'
p90
asbag62
(g83
g64
NtRp91
(dp92
g67
(dp93
S'_valign'
p94
S'top'
p95
ssg76
g79
sg69
(lp96
S':'
asbag62
(g83
g64
NtRp97
(dp98
g67
(dp99
sg76
g79
sg69
(lp100
g62
(g63
g64
NtRp101
(dp102
g67
(dp103
g75
I5
ssg76
g97
sg69
(lp104
S'False'
p105
asbasbasbag62
(g78
g64
NtRp106
(dp107
g67
(dp108
sg76
g72
sg69
(lp109
g62
(g83
g64
NtRp110
(dp111
g67
(dp112
g87
g88
ssg76
g106
sg69
(lp113
S'application'
p114
asbag62
(g83
g64
NtRp115
(dp116
g67
(dp117
g94
g95
ssg76
g106
sg69
(lp118
S':'
asbag62
(g83
g64
NtRp119
(dp120
g67
(dp121
sg76
g106
sg69
(lp122
g62
(g63
g64
NtRp123
(dp124
g67
(dp125
g75
I5
ssg76
g119
sg69
(lp126
S'admin'
p127
asbasbasbag62
(g78
g64
NtRp128
(dp129
g67
(dp130
sg76
g72
sg69
(lp131
g62
(g83
g64
NtRp132
(dp133
g67
(dp134
g87
g88
ssg76
g128
sg69
(lp135
g45
asbag62
(g83
g64
NtRp136
(dp137
g67
(dp138
g94
g95
ssg76
g128
sg69
(lp139
S':'
asbag62
(g83
g64
NtRp140
(dp141
g67
(dp142
sg76
g128
sg69
(lp143
g62
(g63
g64
NtRp144
(dp145
g67
(dp146
g75
I5
ssg76
g140
sg69
(lp147
g62
(g71
g64
NtRp148
(dp149
g67
(dp150
g75
I4
ssg76
Nsg69
(lp151
sbasbasbasbag62
(g78
g64
NtRp152
(dp153
g67
(dp154
sg76
g72
sg69
(lp155
g62
(g83
g64
NtRp156
(dp157
g67
(dp158
g87
g88
ssg76
g152
sg69
(lp159
S'body'
p160
asbag62
(g83
g64
NtRp161
(dp162
g67
(dp163
g94
g95
ssg76
g152
sg69
(lp164
S':'
asbag62
(g83
g64
NtRp165
(dp166
g67
(dp167
sg76
g152
sg69
(lp168
g62
(g63
g64
NtRp169
(dp170
g67
(dp171
g75
I5
ssg76
g165
sg69
(lp172
S"<open file '<fdopen>', mode 'w+b' at 0x0000000008C11DB0>"
p173
asbasbasbag62
(g78
g64
NtRp174
(dp175
g67
(dp176
sg76
g72
sg69
(lp177
g62
(g83
g64
NtRp178
(dp179
g67
(dp180
g87
g88
ssg76
g174
sg69
(lp181
S'cid'
p182
asbag62
(g83
g64
NtRp183
(dp184
g67
(dp185
g94
g95
ssg76
g174
sg69
(lp186
S':'
asbag62
(g83
g64
NtRp187
(dp188
g67
(dp189
sg76
g174
sg69
(lp190
g62
(g63
g64
NtRp191
(dp192
g67
(dp193
g75
I5
ssg76
g187
sg69
(lp194
S'None'
p195
asbasbasbag62
(g78
g64
NtRp196
(dp197
g67
(dp198
sg76
g72
sg69
(lp199
g62
(g83
g64
NtRp200
(dp201
g67
(dp202
g87
g88
ssg76
g196
sg69
(lp203
S'client'
p204
asbag62
(g83
g64
NtRp205
(dp206
g67
(dp207
g94
g95
ssg76
g196
sg69
(lp208
S':'
asbag62
(g83
g64
NtRp209
(dp210
g67
(dp211
sg76
g196
sg69
(lp212
g62
(g63
g64
NtRp213
(dp214
g67
(dp215
g75
I5
ssg76
g209
sg69
(lp216
S'127.0.0.1'
p217
asbasbasbag62
(g78
g64
NtRp218
(dp219
g67
(dp220
sg76
g72
sg69
(lp221
g62
(g83
g64
NtRp222
(dp223
g67
(dp224
g87
g88
ssg76
g218
sg69
(lp225
S'controller'
p226
asbag62
(g83
g64
NtRp227
(dp228
g67
(dp229
g94
g95
ssg76
g218
sg69
(lp230
S':'
asbag62
(g83
g64
NtRp231
(dp232
g67
(dp233
sg76
g218
sg69
(lp234
g62
(g63
g64
NtRp235
(dp236
g67
(dp237
g75
I5
ssg76
g231
sg69
(lp238
S'wizard'
p239
asbasbasbag62
(g78
g64
NtRp240
(dp241
g67
(dp242
sg76
g72
sg69
(lp243
g62
(g83
g64
NtRp244
(dp245
g67
(dp246
g87
g88
ssg76
g240
sg69
(lp247
S'cookies'
p248
asbag62
(g83
g64
NtRp249
(dp250
g67
(dp251
g94
g95
ssg76
g240
sg69
(lp252
S':'
asbag62
(g83
g64
NtRp253
(dp254
g67
(dp255
sg76
g240
sg69
(lp256
g62
(g63
g64
NtRp257
(dp258
g67
(dp259
g75
I5
ssg76
g253
sg69
(lp260
g62
(g71
g64
NtRp261
(dp262
g67
(dp263
g75
I4
ssg76
Nsg69
(lp264
g62
(g78
g64
NtRp265
(dp266
g67
(dp267
sg76
g261
sg69
(lp268
g62
(g83
g64
NtRp269
(dp270
g67
(dp271
g87
g88
ssg76
g265
sg69
(lp272
S'session_id_admin'
p273
asbag62
(g83
g64
NtRp274
(dp275
g67
(dp276
g94
g95
ssg76
g265
sg69
(lp277
S':'
asbag62
(g83
g64
NtRp278
(dp279
g67
(dp280
sg76
g265
sg69
(lp281
g62
(g63
g64
NtRp282
(dp283
g67
(dp284
g75
I4
ssg76
g278
sg69
(lp285
S'127.0.0.1-b09474c4-74c6-4bff-864d-e3d6c3b6e87e'
p286
ag62
(g71
g64
NtRp287
(dp288
g67
(dp289
g75
I3
ssg76
Nsg69
(lp290
g62
(g78
g64
NtRp291
(dp292
g67
(dp293
sg76
g287
sg69
(lp294
g62
(g83
g64
NtRp295
(dp296
g67
(dp297
g87
g88
ssg76
g291
sg69
(lp298
S'comment'
p299
asbag62
(g83
g64
NtRp300
(dp301
g67
(dp302
g94
g95
ssg76
g291
sg69
(lp303
S':'
asbag62
(g83
g64
NtRp304
(dp305
g67
(dp306
sg76
g291
sg69
(lp307
g62
(g63
g64
NtRp308
(dp309
g67
(dp310
g75
I3
ssg76
g304
sg69
(lp311
S''
asbasbasbag62
(g78
g64
NtRp312
(dp313
g67
(dp314
sg76
g287
sg69
(lp315
g62
(g83
g64
NtRp316
(dp317
g67
(dp318
g87
g88
ssg76
g312
sg69
(lp319
S'domain'
p320
asbag62
(g83
g64
NtRp321
(dp322
g67
(dp323
g94
g95
ssg76
g312
sg69
(lp324
S':'
asbag62
(g83
g64
NtRp325
(dp326
g67
(dp327
sg76
g312
sg69
(lp328
g62
(g63
g64
NtRp329
(dp330
g67
(dp331
g75
I3
ssg76
g325
sg69
(lp332
S''
asbasbasbag62
(g78
g64
NtRp333
(dp334
g67
(dp335
sg76
g287
sg69
(lp336
g62
(g83
g64
NtRp337
(dp338
g67
(dp339
g87
g88
ssg76
g333
sg69
(lp340
S'expires'
p341
asbag62
(g83
g64
NtRp342
(dp343
g67
(dp344
g94
g95
ssg76
g333
sg69
(lp345
S':'
asbag62
(g83
g64
NtRp346
(dp347
g67
(dp348
sg76
g333
sg69
(lp349
g62
(g63
g64
NtRp350
(dp351
g67
(dp352
g75
I3
ssg76
g346
sg69
(lp353
S''
asbasbasbag62
(g78
g64
NtRp354
(dp355
g67
(dp356
sg76
g287
sg69
(lp357
g62
(g83
g64
NtRp358
(dp359
g67
(dp360
g87
g88
ssg76
g354
sg69
(lp361
S'httponly'
p362
asbag62
(g83
g64
NtRp363
(dp364
g67
(dp365
g94
g95
ssg76
g354
sg69
(lp366
S':'
asbag62
(g83
g64
NtRp367
(dp368
g67
(dp369
sg76
g354
sg69
(lp370
g62
(g63
g64
NtRp371
(dp372
g67
(dp373
g75
I3
ssg76
g367
sg69
(lp374
S''
asbasbasbag62
(g78
g64
NtRp375
(dp376
g67
(dp377
sg76
g287
sg69
(lp378
g62
(g83
g64
NtRp379
(dp380
g67
(dp381
g87
g88
ssg76
g375
sg69
(lp382
S'max-age'
p383
asbag62
(g83
g64
NtRp384
(dp385
g67
(dp386
g94
g95
ssg76
g375
sg69
(lp387
S':'
asbag62
(g83
g64
NtRp388
(dp389
g67
(dp390
sg76
g375
sg69
(lp391
g62
(g63
g64
NtRp392
(dp393
g67
(dp394
g75
I3
ssg76
g388
sg69
(lp395
S''
asbasbasbag62
(g78
g64
NtRp396
(dp397
g67
(dp398
sg76
g287
sg69
(lp399
g62
(g83
g64
NtRp400
(dp401
g67
(dp402
g87
g88
ssg76
g396
sg69
(lp403
S'path'
p404
asbag62
(g83
g64
NtRp405
(dp406
g67
(dp407
g94
g95
ssg76
g396
sg69
(lp408
S':'
asbag62
(g83
g64
NtRp409
(dp410
g67
(dp411
sg76
g396
sg69
(lp412
g62
(g63
g64
NtRp413
(dp414
g67
(dp415
g75
I3
ssg76
g409
sg69
(lp416
S''
asbasbasbag62
(g78
g64
NtRp417
(dp418
g67
(dp419
sg76
g287
sg69
(lp420
g62
(g83
g64
NtRp421
(dp422
g67
(dp423
g87
g88
ssg76
g417
sg69
(lp424
S'secure'
p425
asbag62
(g83
g64
NtRp426
(dp427
g67
(dp428
g94
g95
ssg76
g417
sg69
(lp429
S':'
asbag62
(g83
g64
NtRp430
(dp431
g67
(dp432
sg76
g417
sg69
(lp433
g62
(g63
g64
NtRp434
(dp435
g67
(dp436
g75
I3
ssg76
g430
sg69
(lp437
S''
asbasbasbag62
(g78
g64
NtRp438
(dp439
g67
(dp440
sg76
g287
sg69
(lp441
g62
(g83
g64
NtRp442
(dp443
g67
(dp444
g87
g88
ssg76
g438
sg69
(lp445
S'version'
p446
asbag62
(g83
g64
NtRp447
(dp448
g67
(dp449
g94
g95
ssg76
g438
sg69
(lp450
S':'
asbag62
(g83
g64
NtRp451
(dp452
g67
(dp453
sg76
g438
sg69
(lp454
g62
(g63
g64
NtRp455
(dp456
g67
(dp457
g75
I3
ssg76
g451
sg69
(lp458
S''
asbasbasbasbasbasbasbag62
(g78
g64
NtRp459
(dp460
g67
(dp461
sg76
g261
sg69
(lp462
g62
(g83
g64
NtRp463
(dp464
g67
(dp465
g87
g88
ssg76
g459
sg69
(lp466
S'session_id_init'
p467
asbag62
(g83
g64
NtRp468
(dp469
g67
(dp470
g94
g95
ssg76
g459
sg69
(lp471
S':'
asbag62
(g83
g64
NtRp472
(dp473
g67
(dp474
sg76
g459
sg69
(lp475
g62
(g63
g64
NtRp476
(dp477
g67
(dp478
g75
I4
ssg76
g472
sg69
(lp479
S'127.0.0.1-6078939d-922f-428b-b405-987576949430'
p480
ag62
(g71
g64
NtRp481
(dp482
g67
(dp483
g75
I3
ssg76
Nsg69
(lp484
g62
(g78
g64
NtRp485
(dp486
g67
(dp487
sg76
g481
sg69
(lp488
g62
(g83
g64
NtRp489
(dp490
g67
(dp491
g87
g88
ssg76
g485
sg69
(lp492
g299
asbag62
(g83
g64
NtRp493
(dp494
g67
(dp495
g94
g95
ssg76
g485
sg69
(lp496
S':'
asbag62
(g83
g64
NtRp497
(dp498
g67
(dp499
sg76
g485
sg69
(lp500
g62
(g63
g64
NtRp501
(dp502
g67
(dp503
g75
I3
ssg76
g497
sg69
(lp504
S''
asbasbasbag62
(g78
g64
NtRp505
(dp506
g67
(dp507
sg76
g481
sg69
(lp508
g62
(g83
g64
NtRp509
(dp510
g67
(dp511
g87
g88
ssg76
g505
sg69
(lp512
g320
asbag62
(g83
g64
NtRp513
(dp514
g67
(dp515
g94
g95
ssg76
g505
sg69
(lp516
S':'
asbag62
(g83
g64
NtRp517
(dp518
g67
(dp519
sg76
g505
sg69
(lp520
g62
(g63
g64
NtRp521
(dp522
g67
(dp523
g75
I3
ssg76
g517
sg69
(lp524
S''
asbasbasbag62
(g78
g64
NtRp525
(dp526
g67
(dp527
sg76
g481
sg69
(lp528
g62
(g83
g64
NtRp529
(dp530
g67
(dp531
g87
g88
ssg76
g525
sg69
(lp532
g341
asbag62
(g83
g64
NtRp533
(dp534
g67
(dp535
g94
g95
ssg76
g525
sg69
(lp536
S':'
asbag62
(g83
g64
NtRp537
(dp538
g67
(dp539
sg76
g525
sg69
(lp540
g62
(g63
g64
NtRp541
(dp542
g67
(dp543
g75
I3
ssg76
g537
sg69
(lp544
S''
asbasbasbag62
(g78
g64
NtRp545
(dp546
g67
(dp547
sg76
g481
sg69
(lp548
g62
(g83
g64
NtRp549
(dp550
g67
(dp551
g87
g88
ssg76
g545
sg69
(lp552
g362
asbag62
(g83
g64
NtRp553
(dp554
g67
(dp555
g94
g95
ssg76
g545
sg69
(lp556
S':'
asbag62
(g83
g64
NtRp557
(dp558
g67
(dp559
sg76
g545
sg69
(lp560
g62
(g63
g64
NtRp561
(dp562
g67
(dp563
g75
I3
ssg76
g557
sg69
(lp564
S''
asbasbasbag62
(g78
g64
NtRp565
(dp566
g67
(dp567
sg76
g481
sg69
(lp568
g62
(g83
g64
NtRp569
(dp570
g67
(dp571
g87
g88
ssg76
g565
sg69
(lp572
g383
asbag62
(g83
g64
NtRp573
(dp574
g67
(dp575
g94
g95
ssg76
g565
sg69
(lp576
S':'
asbag62
(g83
g64
NtRp577
(dp578
g67
(dp579
sg76
g565
sg69
(lp580
g62
(g63
g64
NtRp581
(dp582
g67
(dp583
g75
I3
ssg76
g577
sg69
(lp584
S''
asbasbasbag62
(g78
g64
NtRp585
(dp586
g67
(dp587
sg76
g481
sg69
(lp588
g62
(g83
g64
NtRp589
(dp590
g67
(dp591
g87
g88
ssg76
g585
sg69
(lp592
g404
asbag62
(g83
g64
NtRp593
(dp594
g67
(dp595
g94
g95
ssg76
g585
sg69
(lp596
S':'
asbag62
(g83
g64
NtRp597
(dp598
g67
(dp599
sg76
g585
sg69
(lp600
g62
(g63
g64
NtRp601
(dp602
g67
(dp603
g75
I3
ssg76
g597
sg69
(lp604
S''
asbasbasbag62
(g78
g64
NtRp605
(dp606
g67
(dp607
sg76
g481
sg69
(lp608
g62
(g83
g64
NtRp609
(dp610
g67
(dp611
g87
g88
ssg76
g605
sg69
(lp612
g425
asbag62
(g83
g64
NtRp613
(dp614
g67
(dp615
g94
g95
ssg76
g605
sg69
(lp616
S':'
asbag62
(g83
g64
NtRp617
(dp618
g67
(dp619
sg76
g605
sg69
(lp620
g62
(g63
g64
NtRp621
(dp622
g67
(dp623
g75
I3
ssg76
g617
sg69
(lp624
S''
asbasbasbag62
(g78
g64
NtRp625
(dp626
g67
(dp627
sg76
g481
sg69
(lp628
g62
(g83
g64
NtRp629
(dp630
g67
(dp631
g87
g88
ssg76
g625
sg69
(lp632
g446
asbag62
(g83
g64
NtRp633
(dp634
g67
(dp635
g94
g95
ssg76
g625
sg69
(lp636
S':'
asbag62
(g83
g64
NtRp637
(dp638
g67
(dp639
sg76
g625
sg69
(lp640
g62
(g63
g64
NtRp641
(dp642
g67
(dp643
g75
I3
ssg76
g637
sg69
(lp644
S''
asbasbasbasbasbasbasbasbasbasbasbag62
(g78
g64
NtRp645
(dp646
g67
(dp647
sg76
g72
sg69
(lp648
g62
(g83
g64
NtRp649
(dp650
g67
(dp651
g87
g88
ssg76
g645
sg69
(lp652
S'env'
p653
asbag62
(g83
g64
NtRp654
(dp655
g67
(dp656
g94
g95
ssg76
g645
sg69
(lp657
S':'
asbag62
(g83
g64
NtRp658
(dp659
g67
(dp660
sg76
g645
sg69
(lp661
g62
(g63
g64
NtRp662
(dp663
g67
(dp664
g75
I5
ssg76
g658
sg69
(lp665
g62
(g71
g64
NtRp666
(dp667
g67
(dp668
g75
I4
ssg76
Nsg69
(lp669
g62
(g78
g64
NtRp670
(dp671
g67
(dp672
sg76
g666
sg69
(lp673
g62
(g83
g64
NtRp674
(dp675
g67
(dp676
g87
g88
ssg76
g670
sg69
(lp677
S'app_folders'
p678
asbag62
(g83
g64
NtRp679
(dp680
g67
(dp681
g94
g95
ssg76
g670
sg69
(lp682
S':'
asbag62
(g83
g64
NtRp683
(dp684
g67
(dp685
sg76
g670
sg69
(lp686
g62
(g63
g64
NtRp687
(dp688
g67
(dp689
g75
I4
ssg76
g683
sg69
(lp690
S"set(['C:\\\\Users\\\\admin\\\\Desktop\\\\Sathvik\\\\Tharuni.Org\\\\applications\\\\init\\\\', 'C:\\\\Users\\\\admin\\\\Desktop\\\\Sathvik\\\\Tharuni.Org\\\\applications\\\\admin\\\\'])"
p691
asbasbasbag62
(g78
g64
NtRp692
(dp693
g67
(dp694
sg76
g666
sg69
(lp695
g62
(g83
g64
NtRp696
(dp697
g67
(dp698
g87
g88
ssg76
g692
sg69
(lp699
S'applications_parent'
p700
asbag62
(g83
g64
NtRp701
(dp702
g67
(dp703
g94
g95
ssg76
g692
sg69
(lp704
S':'
asbag62
(g83
g64
NtRp705
(dp706
g67
(dp707
sg76
g692
sg69
(lp708
g62
(g63
g64
NtRp709
(dp710
g67
(dp711
g75
I4
ssg76
g705
sg69
(lp712
S'C:\\Users\\admin\\Desktop\\Sathvik\\Tharuni.Org'
p713
asbasbasbag62
(g78
g64
NtRp714
(dp715
g67
(dp716
sg76
g666
sg69
(lp717
g62
(g83
g64
NtRp718
(dp719
g67
(dp720
g87
g88
ssg76
g714
sg69
(lp721
S'cmd_args'
p722
asbag62
(g83
g64
NtRp723
(dp724
g67
(dp725
g94
g95
ssg76
g714
sg69
(lp726
S':'
asbag62
(g83
g64
NtRp727
(dp728
g67
(dp729
sg76
g714
sg69
(lp730
g62
(g63
g64
NtRp731
(dp732
g67
(dp733
g75
I4
ssg76
g727
sg69
(lp734
g62
(g71
g64
NtRp735
(dp736
g67
(dp737
g75
I3
ssg76
Nsg69
(lp738
sbasbasbasbag62
(g78
g64
NtRp739
(dp740
g67
(dp741
sg76
g666
sg69
(lp742
g62
(g83
g64
NtRp743
(dp744
g67
(dp745
g87
g88
ssg76
g739
sg69
(lp746
S'cmd_options'
p747
asbag62
(g83
g64
NtRp748
(dp749
g67
(dp750
g94
g95
ssg76
g739
sg69
(lp751
S':'
asbag62
(g83
g64
NtRp752
(dp753
g67
(dp754
sg76
g739
sg69
(lp755
g62
(g63
g64
NtRp756
(dp757
g67
(dp758
g75
I4
ssg76
g752
sg69
(lp759
S"<Values at 0x36b4188: {'verbose': False, 'ip': '127.0.0.1', 'with_scheduler': False, 'ips': ['10.8.4.49', '192.168.1.132', '192.168.56.1', '192.168.166.1', '169.254.251.64'], 'shutdown_timeout': 5, 'taskbar': False, 'port': 8000, 'maxthreads': None, 'softcron': False, 'server_name': 'LP-US-002', 'bpython': False, 'nogui': False, 'nocron': False, 'extcron': False, 'run_system_tests': False, 'test': None, 'folder': 'C:\\\\Users\\\\admin\\\\Desktop\\\\Sathvik\\\\Tharuni.Org', 'config': '', 'import_models': False, 'winservice': '', 'shell': None, 'run': '', 'log_filename': 'httpserver.log', 'debuglevel': 30, 'args': [''], 'socket_timeout': 5, 'ssl_ca_certificate': None, 'scheduler': None, 'profiler_filename': None, 'ssl_private_key': '', 'scheduler_groups': None, 'password': '<ask>', 'request_queue_size': 5, 'ssl_certificate': '', 'cronjob': False, 'numthreads': None, 'quiet': False, 'interfaces': None, 'minthreads': None, 'timeout': 10, 'plain': False, 'nobanner': False, 'pid_filename': 'httpserver.pid'}>"
p760
asbasbasbag62
(g78
g64
NtRp761
(dp762
g67
(dp763
sg76
g666
sg69
(lp764
g62
(g83
g64
NtRp765
(dp766
g67
(dp767
g87
g88
ssg76
g761
sg69
(lp768
S'content_length'
p769
asbag62
(g83
g64
NtRp770
(dp771
g67
(dp772
g94
g95
ssg76
g761
sg69
(lp773
S':'
asbag62
(g83
g64
NtRp774
(dp775
g67
(dp776
sg76
g761
sg69
(lp777
g62
(g63
g64
NtRp778
(dp779
g67
(dp780
g75
I4
ssg76
g774
sg69
(lp781
S'258'
p782
asbasbasbag62
(g78
g64
NtRp783
(dp784
g67
(dp785
sg76
g666
sg69
(lp786
g62
(g83
g64
NtRp787
(dp788
g67
(dp789
g87
g88
ssg76
g783
sg69
(lp790
S'content_type'
p791
asbag62
(g83
g64
NtRp792
(dp793
g67
(dp794
g94
g95
ssg76
g783
sg69
(lp795
S':'
asbag62
(g83
g64
NtRp796
(dp797
g67
(dp798
sg76
g783
sg69
(lp799
g62
(g63
g64
NtRp800
(dp801
g67
(dp802
g75
I4
ssg76
g796
sg69
(lp803
S'multipart/form-data; boundary=----WebKitFormBoundaryz7tAHhVK7ri494aa'
p804
asbasbasbag62
(g78
g64
NtRp805
(dp806
g67
(dp807
sg76
g666
sg69
(lp808
g62
(g83
g64
NtRp809
(dp810
g67
(dp811
g87
g88
ssg76
g805
sg69
(lp812
S'db_sessions'
p813
asbag62
(g83
g64
NtRp814
(dp815
g67
(dp816
g94
g95
ssg76
g805
sg69
(lp817
S':'
asbag62
(g83
g64
NtRp818
(dp819
g67
(dp820
sg76
g805
sg69
(lp821
g62
(g63
g64
NtRp822
(dp823
g67
(dp824
g75
I4
ssg76
g818
sg69
(lp825
S'set([])'
p826
asbasbasbag62
(g78
g64
NtRp827
(dp828
g67
(dp829
sg76
g666
sg69
(lp830
g62
(g83
g64
NtRp831
(dp832
g67
(dp833
g87
g88
ssg76
g827
sg69
(lp834
S'debugging'
p835
asbag62
(g83
g64
NtRp836
(dp837
g67
(dp838
g94
g95
ssg76
g827
sg69
(lp839
S':'
asbag62
(g83
g64
NtRp840
(dp841
g67
(dp842
sg76
g827
sg69
(lp843
g62
(g63
g64
NtRp844
(dp845
g67
(dp846
g75
I4
ssg76
g840
sg69
(lp847
g105
asbasbasbag62
(g78
g64
NtRp848
(dp849
g67
(dp850
sg76
g666
sg69
(lp851
g62
(g83
g64
NtRp852
(dp853
g67
(dp854
g87
g88
ssg76
g848
sg69
(lp855
S'gluon_parent'
p856
asbag62
(g83
g64
NtRp857
(dp858
g67
(dp859
g94
g95
ssg76
g848
sg69
(lp860
S':'
asbag62
(g83
g64
NtRp861
(dp862
g67
(dp863
sg76
g848
sg69
(lp864
g62
(g63
g64
NtRp865
(dp866
g67
(dp867
g75
I4
ssg76
g861
sg69
(lp868
S'C:\\Users\\admin\\Desktop\\Sathvik\\Tharuni.Org'
p869
asbasbasbag62
(g78
g64
NtRp870
(dp871
g67
(dp872
sg76
g666
sg69
(lp873
g62
(g83
g64
NtRp874
(dp875
g67
(dp876
g87
g88
ssg76
g870
sg69
(lp877
S'http_accept'
p878
asbag62
(g83
g64
NtRp879
(dp880
g67
(dp881
g94
g95
ssg76
g870
sg69
(lp882
S':'
asbag62
(g83
g64
NtRp883
(dp884
g67
(dp885
sg76
g870
sg69
(lp886
g62
(g63
g64
NtRp887
(dp888
g67
(dp889
g75
I4
ssg76
g883
sg69
(lp890
S'text/html,application/xhtml+xml,application/xml;q=0.9,*/*;q=0.8'
p891
asbasbasbag62
(g78
g64
NtRp892
(dp893
g67
(dp894
sg76
g666
sg69
(lp895
g62
(g83
g64
NtRp896
(dp897
g67
(dp898
g87
g88
ssg76
g892
sg69
(lp899
S'http_accept_charset'
p900
asbag62
(g83
g64
NtRp901
(dp902
g67
(dp903
g94
g95
ssg76
g892
sg69
(lp904
S':'
asbag62
(g83
g64
NtRp905
(dp906
g67
(dp907
sg76
g892
sg69
(lp908
g62
(g63
g64
NtRp909
(dp910
g67
(dp911
g75
I4
ssg76
g905
sg69
(lp912
S'ISO-8859-1,utf-8;q=0.7,*;q=0.3'
p913
asbasbasbag62
(g78
g64
NtRp914
(dp915
g67
(dp916
sg76
g666
sg69
(lp917
g62
(g83
g64
NtRp918
(dp919
g67
(dp920
g87
g88
ssg76
g914
sg69
(lp921
S'http_accept_encoding'
p922
asbag62
(g83
g64
NtRp923
(dp924
g67
(dp925
g94
g95
ssg76
g914
sg69
(lp926
S':'
asbag62
(g83
g64
NtRp927
(dp928
g67
(dp929
sg76
g914
sg69
(lp930
g62
(g63
g64
NtRp931
(dp932
g67
(dp933
g75
I4
ssg76
g927
sg69
(lp934
S'gzip,deflate,sdch'
p935
asbasbasbag62
(g78
g64
NtRp936
(dp937
g67
(dp938
sg76
g666
sg69
(lp939
g62
(g83
g64
NtRp940
(dp941
g67
(dp942
g87
g88
ssg76
g936
sg69
(lp943
S'http_accept_language'
p944
asbag62
(g83
g64
NtRp945
(dp946
g67
(dp947
g94
g95
ssg76
g936
sg69
(lp948
S':'
asbag62
(g83
g64
NtRp949
(dp950
g67
(dp951
sg76
g936
sg69
(lp952
g62
(g63
g64
NtRp953
(dp954
g67
(dp955
g75
I4
ssg76
g949
sg69
(lp956
S'en-US,en;q=0.8'
p957
asbasbasbag62
(g78
g64
NtRp958
(dp959
g67
(dp960
sg76
g666
sg69
(lp961
g62
(g83
g64
NtRp962
(dp963
g67
(dp964
g87
g88
ssg76
g958
sg69
(lp965
S'http_cache_control'
p966
asbag62
(g83
g64
NtRp967
(dp968
g67
(dp969
g94
g95
ssg76
g958
sg69
(lp970
S':'
asbag62
(g83
g64
NtRp971
(dp972
g67
(dp973
sg76
g958
sg69
(lp974
g62
(g63
g64
NtRp975
(dp976
g67
(dp977
g75
I4
ssg76
g971
sg69
(lp978
S'max-age=0'
p979
asbasbasbag62
(g78
g64
NtRp980
(dp981
g67
(dp982
sg76
g666
sg69
(lp983
g62
(g83
g64
NtRp984
(dp985
g67
(dp986
g87
g88
ssg76
g980
sg69
(lp987
S'http_connection'
p988
asbag62
(g83
g64
NtRp989
(dp990
g67
(dp991
g94
g95
ssg76
g980
sg69
(lp992
S':'
asbag62
(g83
g64
NtRp993
(dp994
g67
(dp995
sg76
g980
sg69
(lp996
g62
(g63
g64
NtRp997
(dp998
g67
(dp999
g75
I4
ssg76
g993
sg69
(lp1000
S'keep-alive'
p1001
asbasbasbag62
(g78
g64
NtRp1002
(dp1003
g67
(dp1004
sg76
g666
sg69
(lp1005
g62
(g83
g64
NtRp1006
(dp1007
g67
(dp1008
g87
g88
ssg76
g1002
sg69
(lp1009
S'http_content_length'
p1010
asbag62
(g83
g64
NtRp1011
(dp1012
g67
(dp1013
g94
g95
ssg76
g1002
sg69
(lp1014
S':'
asbag62
(g83
g64
NtRp1015
(dp1016
g67
(dp1017
sg76
g1002
sg69
(lp1018
g62
(g63
g64
NtRp1019
(dp1020
g67
(dp1021
g75
I4
ssg76
g1015
sg69
(lp1022
g782
asbasbasbag62
(g78
g64
NtRp1023
(dp1024
g67
(dp1025
sg76
g666
sg69
(lp1026
g62
(g83
g64
NtRp1027
(dp1028
g67
(dp1029
g87
g88
ssg76
g1023
sg69
(lp1030
S'http_content_type'
p1031
asbag62
(g83
g64
NtRp1032
(dp1033
g67
(dp1034
g94
g95
ssg76
g1023
sg69
(lp1035
S':'
asbag62
(g83
g64
NtRp1036
(dp1037
g67
(dp1038
sg76
g1023
sg69
(lp1039
g62
(g63
g64
NtRp1040
(dp1041
g67
(dp1042
g75
I4
ssg76
g1036
sg69
(lp1043
g804
asbasbasbag62
(g78
g64
NtRp1044
(dp1045
g67
(dp1046
sg76
g666
sg69
(lp1047
g62
(g83
g64
NtRp1048
(dp1049
g67
(dp1050
g87
g88
ssg76
g1044
sg69
(lp1051
S'http_cookie'
p1052
asbag62
(g83
g64
NtRp1053
(dp1054
g67
(dp1055
g94
g95
ssg76
g1044
sg69
(lp1056
S':'
asbag62
(g83
g64
NtRp1057
(dp1058
g67
(dp1059
sg76
g1044
sg69
(lp1060
g62
(g63
g64
NtRp1061
(dp1062
g67
(dp1063
g75
I4
ssg76
g1057
sg69
(lp1064
S'session_id_init=127.0.0.1-6078939d-922f-428b-b405-987576949430; __utma=96992031.1435691907.1350205259.1350205259.1350208853.2; __utmb=96992031.14.10.1350208853; __utmc=96992031; __utmz=96992031.1350205259.1.1.utmcsr=(direct)|utmccn=(direct)|utmcmd=(none); session_id_admin=127.0.0.1-b09474c4-74c6-4bff-864d-e3d6c3b6e87e'
p1065
asbasbasbag62
(g78
g64
NtRp1066
(dp1067
g67
(dp1068
sg76
g666
sg69
(lp1069
g62
(g83
g64
NtRp1070
(dp1071
g67
(dp1072
g87
g88
ssg76
g1066
sg69
(lp1073
S'http_host'
p1074
asbag62
(g83
g64
NtRp1075
(dp1076
g67
(dp1077
g94
g95
ssg76
g1066
sg69
(lp1078
S':'
asbag62
(g83
g64
NtRp1079
(dp1080
g67
(dp1081
sg76
g1066
sg69
(lp1082
g62
(g63
g64
NtRp1083
(dp1084
g67
(dp1085
g75
I4
ssg76
g1079
sg69
(lp1086
S'127.0.0.1:8000'
p1087
asbasbasbag62
(g78
g64
NtRp1088
(dp1089
g67
(dp1090
sg76
g666
sg69
(lp1091
g62
(g83
g64
NtRp1092
(dp1093
g67
(dp1094
g87
g88
ssg76
g1088
sg69
(lp1095
S'http_origin'
p1096
asbag62
(g83
g64
NtRp1097
(dp1098
g67
(dp1099
g94
g95
ssg76
g1088
sg69
(lp1100
S':'
asbag62
(g83
g64
NtRp1101
(dp1102
g67
(dp1103
sg76
g1088
sg69
(lp1104
g62
(g63
g64
NtRp1105
(dp1106
g67
(dp1107
g75
I4
ssg76
g1101
sg69
(lp1108
S'http://127.0.0.1:8000'
p1109
asbasbasbag62
(g78
g64
NtRp1110
(dp1111
g67
(dp1112
sg76
g666
sg69
(lp1113
g62
(g83
g64
NtRp1114
(dp1115
g67
(dp1116
g87
g88
ssg76
g1110
sg69
(lp1117
S'http_referer'
p1118
asbag62
(g83
g64
NtRp1119
(dp1120
g67
(dp1121
g94
g95
ssg76
g1110
sg69
(lp1122
S':'
asbag62
(g83
g64
NtRp1123
(dp1124
g67
(dp1125
sg76
g1110
sg69
(lp1126
g62
(g63
g64
NtRp1127
(dp1128
g67
(dp1129
g75
I4
ssg76
g1123
sg69
(lp1130
S'http://127.0.0.1:8000/admin/wizard/step6'
p1131
asbasbasbag62
(g78
g64
NtRp1132
(dp1133
g67
(dp1134
sg76
g666
sg69
(lp1135
g62
(g83
g64
NtRp1136
(dp1137
g67
(dp1138
g87
g88
ssg76
g1132
sg69
(lp1139
S'http_user_agent'
p1140
asbag62
(g83
g64
NtRp1141
(dp1142
g67
(dp1143
g94
g95
ssg76
g1132
sg69
(lp1144
S':'
asbag62
(g83
g64
NtRp1145
(dp1146
g67
(dp1147
sg76
g1132
sg69
(lp1148
g62
(g63
g64
NtRp1149
(dp1150
g67
(dp1151
g75
I4
ssg76
g1145
sg69
(lp1152
S'Mozilla/5.0 (Windows NT 6.1; WOW64) AppleWebKit/537.4 (KHTML, like Gecko) Chrome/22.0.1229.91 Safari/537.4'
p1153
asbasbasbag62
(g78
g64
NtRp1154
(dp1155
g67
(dp1156
sg76
g666
sg69
(lp1157
g62
(g83
g64
NtRp1158
(dp1159
g67
(dp1160
g87
g88
ssg76
g1154
sg69
(lp1161
S'is_jython'
p1162
asbag62
(g83
g64
NtRp1163
(dp1164
g67
(dp1165
g94
g95
ssg76
g1154
sg69
(lp1166
S':'
asbag62
(g83
g64
NtRp1167
(dp1168
g67
(dp1169
sg76
g1154
sg69
(lp1170
g62
(g63
g64
NtRp1171
(dp1172
g67
(dp1173
g75
I4
ssg76
g1167
sg69
(lp1174
g105
asbasbasbag62
(g78
g64
NtRp1175
(dp1176
g67
(dp1177
sg76
g666
sg69
(lp1178
g62
(g83
g64
NtRp1179
(dp1180
g67
(dp1181
g87
g88
ssg76
g1175
sg69
(lp1182
S'is_pypy'
p1183
asbag62
(g83
g64
NtRp1184
(dp1185
g67
(dp1186
g94
g95
ssg76
g1175
sg69
(lp1187
S':'
asbag62
(g83
g64
NtRp1188
(dp1189
g67
(dp1190
sg76
g1175
sg69
(lp1191
g62
(g63
g64
NtRp1192
(dp1193
g67
(dp1194
g75
I4
ssg76
g1188
sg69
(lp1195
g105
asbasbasbag62
(g78
g64
NtRp1196
(dp1197
g67
(dp1198
sg76
g666
sg69
(lp1199
g62
(g83
g64
NtRp1200
(dp1201
g67
(dp1202
g87
g88
ssg76
g1196
sg69
(lp1203
S'path_info'
p1204
asbag62
(g83
g64
NtRp1205
(dp1206
g67
(dp1207
g94
g95
ssg76
g1196
sg69
(lp1208
S':'
asbag62
(g83
g64
NtRp1209
(dp1210
g67
(dp1211
sg76
g1196
sg69
(lp1212
g62
(g63
g64
NtRp1213
(dp1214
g67
(dp1215
g75
I4
ssg76
g1209
sg69
(lp1216
S'/admin/wizard/step6'
p1217
asbasbasbag62
(g78
g64
NtRp1218
(dp1219
g67
(dp1220
sg76
g666
sg69
(lp1221
g62
(g83
g64
NtRp1222
(dp1223
g67
(dp1224
g87
g88
ssg76
g1218
sg69
(lp1225
S'query_string'
p1226
asbag62
(g83
g64
NtRp1227
(dp1228
g67
(dp1229
g94
g95
ssg76
g1218
sg69
(lp1230
S':'
asbag62
(g83
g64
NtRp1231
(dp1232
g67
(dp1233
sg76
g1218
sg69
(lp1234
g62
(g63
g64
NtRp1235
(dp1236
g67
(dp1237
g75
I4
ssg76
g1231
sg69
(lp1238
S''
asbasbasbag62
(g78
g64
NtRp1239
(dp1240
g67
(dp1241
sg76
g666
sg69
(lp1242
g62
(g83
g64
NtRp1243
(dp1244
g67
(dp1245
g87
g88
ssg76
g1239
sg69
(lp1246
S'remote_addr'
p1247
asbag62
(g83
g64
NtRp1248
(dp1249
g67
(dp1250
g94
g95
ssg76
g1239
sg69
(lp1251
S':'
asbag62
(g83
g64
NtRp1252
(dp1253
g67
(dp1254
sg76
g1239
sg69
(lp1255
g62
(g63
g64
NtRp1256
(dp1257
g67
(dp1258
g75
I4
ssg76
g1252
sg69
(lp1259
g217
asbasbasbag62
(g78
g64
NtRp1260
(dp1261
g67
(dp1262
sg76
g666
sg69
(lp1263
g62
(g83
g64
NtRp1264
(dp1265
g67
(dp1266
g87
g88
ssg76
g1260
sg69
(lp1267
S'remote_port'
p1268
asbag62
(g83
g64
NtRp1269
(dp1270
g67
(dp1271
g94
g95
ssg76
g1260
sg69
(lp1272
S':'
asbag62
(g83
g64
NtRp1273
(dp1274
g67
(dp1275
sg76
g1260
sg69
(lp1276
g62
(g63
g64
NtRp1277
(dp1278
g67
(dp1279
g75
I4
ssg76
g1273
sg69
(lp1280
S'51779'
p1281
asbasbasbag62
(g78
g64
NtRp1282
(dp1283
g67
(dp1284
sg76
g666
sg69
(lp1285
g62
(g83
g64
NtRp1286
(dp1287
g67
(dp1288
g87
g88
ssg76
g1282
sg69
(lp1289
S'request_method'
p1290
asbag62
(g83
g64
NtRp1291
(dp1292
g67
(dp1293
g94
g95
ssg76
g1282
sg69
(lp1294
S':'
asbag62
(g83
g64
NtRp1295
(dp1296
g67
(dp1297
sg76
g1282
sg69
(lp1298
g62
(g63
g64
NtRp1299
(dp1300
g67
(dp1301
g75
I4
ssg76
g1295
sg69
(lp1302
S'POST'
p1303
asbasbasbag62
(g78
g64
NtRp1304
(dp1305
g67
(dp1306
sg76
g666
sg69
(lp1307
g62
(g83
g64
NtRp1308
(dp1309
g67
(dp1310
g87
g88
ssg76
g1304
sg69
(lp1311
S'request_uri'
p1312
asbag62
(g83
g64
NtRp1313
(dp1314
g67
(dp1315
g94
g95
ssg76
g1304
sg69
(lp1316
S':'
asbag62
(g83
g64
NtRp1317
(dp1318
g67
(dp1319
sg76
g1304
sg69
(lp1320
g62
(g63
g64
NtRp1321
(dp1322
g67
(dp1323
g75
I4
ssg76
g1317
sg69
(lp1324
g1217
asbasbasbag62
(g78
g64
NtRp1325
(dp1326
g67
(dp1327
sg76
g666
sg69
(lp1328
g62
(g83
g64
NtRp1329
(dp1330
g67
(dp1331
g87
g88
ssg76
g1325
sg69
(lp1332
S'script_name'
p1333
asbag62
(g83
g64
NtRp1334
(dp1335
g67
(dp1336
g94
g95
ssg76
g1325
sg69
(lp1337
S':'
asbag62
(g83
g64
NtRp1338
(dp1339
g67
(dp1340
sg76
g1325
sg69
(lp1341
g62
(g63
g64
NtRp1342
(dp1343
g67
(dp1344
g75
I4
ssg76
g1338
sg69
(lp1345
S''
asbasbasbag62
(g78
g64
NtRp1346
(dp1347
g67
(dp1348
sg76
g666
sg69
(lp1349
g62
(g83
g64
NtRp1350
(dp1351
g67
(dp1352
g87
g88
ssg76
g1346
sg69
(lp1353
S'server_name'
p1354
asbag62
(g83
g64
NtRp1355
(dp1356
g67
(dp1357
g94
g95
ssg76
g1346
sg69
(lp1358
S':'
asbag62
(g83
g64
NtRp1359
(dp1360
g67
(dp1361
sg76
g1346
sg69
(lp1362
g62
(g63
g64
NtRp1363
(dp1364
g67
(dp1365
g75
I4
ssg76
g1359
sg69
(lp1366
S'LP-US-002'
p1367
asbasbasbag62
(g78
g64
NtRp1368
(dp1369
g67
(dp1370
sg76
g666
sg69
(lp1371
g62
(g83
g64
NtRp1372
(dp1373
g67
(dp1374
g87
g88
ssg76
g1368
sg69
(lp1375
S'server_port'
p1376
asbag62
(g83
g64
NtRp1377
(dp1378
g67
(dp1379
g94
g95
ssg76
g1368
sg69
(lp1380
S':'
asbag62
(g83
g64
NtRp1381
(dp1382
g67
(dp1383
sg76
g1368
sg69
(lp1384
g62
(g63
g64
NtRp1385
(dp1386
g67
(dp1387
g75
I4
ssg76
g1381
sg69
(lp1388
S'8000'
p1389
asbasbasbag62
(g78
g64
NtRp1390
(dp1391
g67
(dp1392
sg76
g666
sg69
(lp1393
g62
(g83
g64
NtRp1394
(dp1395
g67
(dp1396
g87
g88
ssg76
g1390
sg69
(lp1397
S'server_protocol'
p1398
asbag62
(g83
g64
NtRp1399
(dp1400
g67
(dp1401
g94
g95
ssg76
g1390
sg69
(lp1402
S':'
asbag62
(g83
g64
NtRp1403
(dp1404
g67
(dp1405
sg76
g1390
sg69
(lp1406
g62
(g63
g64
NtRp1407
(dp1408
g67
(dp1409
g75
I4
ssg76
g1403
sg69
(lp1410
S'HTTP/1.1'
p1411
asbasbasbag62
(g78
g64
NtRp1412
(dp1413
g67
(dp1414
sg76
g666
sg69
(lp1415
g62
(g83
g64
NtRp1416
(dp1417
g67
(dp1418
g87
g88
ssg76
g1412
sg69
(lp1419
S'server_software'
p1420
asbag62
(g83
g64
NtRp1421
(dp1422
g67
(dp1423
g94
g95
ssg76
g1412
sg69
(lp1424
S':'
asbag62
(g83
g64
NtRp1425
(dp1426
g67
(dp1427
sg76
g1412
sg69
(lp1428
g62
(g63
g64
NtRp1429
(dp1430
g67
(dp1431
g75
I4
ssg76
g1425
sg69
(lp1432
S'Rocket 1.2.4'
p1433
asbasbasbag62
(g78
g64
NtRp1434
(dp1435
g67
(dp1436
sg76
g666
sg69
(lp1437
g62
(g83
g64
NtRp1438
(dp1439
g67
(dp1440
g87
g88
ssg76
g1434
sg69
(lp1441
S'web2py_crontype'
p1442
asbag62
(g83
g64
NtRp1443
(dp1444
g67
(dp1445
g94
g95
ssg76
g1434
sg69
(lp1446
S':'
asbag62
(g83
g64
NtRp1447
(dp1448
g67
(dp1449
sg76
g1434
sg69
(lp1450
g62
(g63
g64
NtRp1451
(dp1452
g67
(dp1453
g75
I4
ssg76
g1447
sg69
(lp1454
S'hard'
p1455
asbasbasbag62
(g78
g64
NtRp1456
(dp1457
g67
(dp1458
sg76
g666
sg69
(lp1459
g62
(g83
g64
NtRp1460
(dp1461
g67
(dp1462
g87
g88
ssg76
g1456
sg69
(lp1463
S'web2py_original_uri'
p1464
asbag62
(g83
g64
NtRp1465
(dp1466
g67
(dp1467
g94
g95
ssg76
g1456
sg69
(lp1468
S':'
asbag62
(g83
g64
NtRp1469
(dp1470
g67
(dp1471
sg76
g1456
sg69
(lp1472
g62
(g63
g64
NtRp1473
(dp1474
g67
(dp1475
g75
I4
ssg76
g1469
sg69
(lp1476
g1217
asbasbasbag62
(g78
g64
NtRp1477
(dp1478
g67
(dp1479
sg76
g666
sg69
(lp1480
g62
(g83
g64
NtRp1481
(dp1482
g67
(dp1483
g87
g88
ssg76
g1477
sg69
(lp1484
S'web2py_path'
p1485
asbag62
(g83
g64
NtRp1486
(dp1487
g67
(dp1488
g94
g95
ssg76
g1477
sg69
(lp1489
S':'
asbag62
(g83
g64
NtRp1490
(dp1491
g67
(dp1492
sg76
g1477
sg69
(lp1493
g62
(g63
g64
NtRp1494
(dp1495
g67
(dp1496
g75
I4
ssg76
g1490
sg69
(lp1497
g713
asbasbasbag62
(g78
g64
NtRp1498
(dp1499
g67
(dp1500
sg76
g666
sg69
(lp1501
g62
(g83
g64
NtRp1502
(dp1503
g67
(dp1504
g87
g88
ssg76
g1498
sg69
(lp1505
S'web2py_version'
p1506
asbag62
(g83
g64
NtRp1507
(dp1508
g67
(dp1509
g94
g95
ssg76
g1498
sg69
(lp1510
S':'
asbag62
(g83
g64
NtRp1511
(dp1512
g67
(dp1513
sg76
g1498
sg69
(lp1514
g62
(g63
g64
NtRp1515
(dp1516
g67
(dp1517
g75
I4
ssg76
g1511
sg69
(lp1518
g62
(g71
g64
NtRp1519
(dp1520
g67
(dp1521
g75
I3
ssg76
Nsg69
(lp1522
g62
(g78
g64
NtRp1523
(dp1524
g67
(dp1525
sg76
g1519
sg69
(lp1526
g62
(g83
g64
NtRp1527
(dp1528
g67
(dp1529
sg76
g1523
sg69
(lp1530
g62
(g63
g64
NtRp1531
(dp1532
g67
(dp1533
g75
I3
ssg76
g1527
sg69
(lp1534
S'2'
asbasbasbag62
(g78
g64
NtRp1535
(dp1536
g67
(dp1537
sg76
g1519
sg69
(lp1538
g62
(g83
g64
NtRp1539
(dp1540
g67
(dp1541
sg76
g1535
sg69
(lp1542
g62
(g63
g64
NtRp1543
(dp1544
g67
(dp1545
g75
I3
ssg76
g1539
sg69
(lp1546
S'0'
asbasbasbag62
(g78
g64
NtRp1547
(dp1548
g67
(dp1549
sg76
g1519
sg69
(lp1550
g62
(g83
g64
NtRp1551
(dp1552
g67
(dp1553
sg76
g1547
sg69
(lp1554
g62
(g63
g64
NtRp1555
(dp1556
g67
(dp1557
g75
I3
ssg76
g1551
sg69
(lp1558
S'9'
asbasbasbag62
(g78
g64
NtRp1559
(dp1560
g67
(dp1561
sg76
g1519
sg69
(lp1562
g62
(g83
g64
NtRp1563
(dp1564
g67
(dp1565
sg76
g1559
sg69
(lp1566
g62
(g63
g64
NtRp1567
(dp1568
g67
(dp1569
g75
I3
ssg76
g1563
sg69
(lp1570
S'datetime.datetime(2012, 9, 13, 23, 51, 30)'
p1571
asbasbasbag62
(g78
g64
NtRp1572
(dp1573
g67
(dp1574
sg76
g1519
sg69
(lp1575
g62
(g83
g64
NtRp1576
(dp1577
g67
(dp1578
sg76
g1572
sg69
(lp1579
g62
(g63
g64
NtRp1580
(dp1581
g67
(dp1582
g75
I3
ssg76
g1576
sg69
(lp1583
S'stable'
p1584
asbasbasbasbasbasbasbag62
(g78
g64
NtRp1585
(dp1586
g67
(dp1587
sg76
g666
sg69
(lp1588
g62
(g83
g64
NtRp1589
(dp1590
g67
(dp1591
g87
g88
ssg76
g1585
sg69
(lp1592
S'wsgi_errors'
p1593
asbag62
(g83
g64
NtRp1594
(dp1595
g67
(dp1596
g94
g95
ssg76
g1585
sg69
(lp1597
S':'
asbag62
(g83
g64
NtRp1598
(dp1599
g67
(dp1600
sg76
g1585
sg69
(lp1601
g62
(g63
g64
NtRp1602
(dp1603
g67
(dp1604
g75
I4
ssg76
g1598
sg69
(lp1605
S"<open file '<stderr>', mode 'w' at 0x0000000001DDE1E0>"
p1606
asbasbasbag62
(g78
g64
NtRp1607
(dp1608
g67
(dp1609
sg76
g666
sg69
(lp1610
g62
(g83
g64
NtRp1611
(dp1612
g67
(dp1613
g87
g88
ssg76
g1607
sg69
(lp1614
S'wsgi_file_wrapper'
p1615
asbag62
(g83
g64
NtRp1616
(dp1617
g67
(dp1618
g94
g95
ssg76
g1607
sg69
(lp1619
S':'
asbag62
(g83
g64
NtRp1620
(dp1621
g67
(dp1622
sg76
g1607
sg69
(lp1623
g62
(g63
g64
NtRp1624
(dp1625
g67
(dp1626
g75
I4
ssg76
g1620
sg69
(lp1627
S'<class wsgiref.util.FileWrapper at 0x00000000041E25E8>'
p1628
asbasbasbag62
(g78
g64
NtRp1629
(dp1630
g67
(dp1631
sg76
g666
sg69
(lp1632
g62
(g83
g64
NtRp1633
(dp1634
g67
(dp1635
g87
g88
ssg76
g1629
sg69
(lp1636
S'wsgi_input'
p1637
asbag62
(g83
g64
NtRp1638
(dp1639
g67
(dp1640
g94
g95
ssg76
g1629
sg69
(lp1641
S':'
asbag62
(g83
g64
NtRp1642
(dp1643
g67
(dp1644
sg76
g1629
sg69
(lp1645
g62
(g63
g64
NtRp1646
(dp1647
g67
(dp1648
g75
I4
ssg76
g1642
sg69
(lp1649
S'<socket._fileobject object at 0x0000000008E57CF0>'
p1650
asbasbasbag62
(g78
g64
NtRp1651
(dp1652
g67
(dp1653
sg76
g666
sg69
(lp1654
g62
(g83
g64
NtRp1655
(dp1656
g67
(dp1657
g87
g88
ssg76
g1651
sg69
(lp1658
S'wsgi_multiprocess'
p1659
asbag62
(g83
g64
NtRp1660
(dp1661
g67
(dp1662
g94
g95
ssg76
g1651
sg69
(lp1663
S':'
asbag62
(g83
g64
NtRp1664
(dp1665
g67
(dp1666
sg76
g1651
sg69
(lp1667
g62
(g63
g64
NtRp1668
(dp1669
g67
(dp1670
g75
I4
ssg76
g1664
sg69
(lp1671
g105
asbasbasbag62
(g78
g64
NtRp1672
(dp1673
g67
(dp1674
sg76
g666
sg69
(lp1675
g62
(g83
g64
NtRp1676
(dp1677
g67
(dp1678
g87
g88
ssg76
g1672
sg69
(lp1679
S'wsgi_multithread'
p1680
asbag62
(g83
g64
NtRp1681
(dp1682
g67
(dp1683
g94
g95
ssg76
g1672
sg69
(lp1684
S':'
asbag62
(g83
g64
NtRp1685
(dp1686
g67
(dp1687
sg76
g1672
sg69
(lp1688
g62
(g63
g64
NtRp1689
(dp1690
g67
(dp1691
g75
I4
ssg76
g1685
sg69
(lp1692
S'True'
p1693
asbasbasbag62
(g78
g64
NtRp1694
(dp1695
g67
(dp1696
sg76
g666
sg69
(lp1697
g62
(g83
g64
NtRp1698
(dp1699
g67
(dp1700
g87
g88
ssg76
g1694
sg69
(lp1701
S'wsgi_run_once'
p1702
asbag62
(g83
g64
NtRp1703
(dp1704
g67
(dp1705
g94
g95
ssg76
g1694
sg69
(lp1706
S':'
asbag62
(g83
g64
NtRp1707
(dp1708
g67
(dp1709
sg76
g1694
sg69
(lp1710
g62
(g63
g64
NtRp1711
(dp1712
g67
(dp1713
g75
I4
ssg76
g1707
sg69
(lp1714
g105
asbasbasbag62
(g78
g64
NtRp1715
(dp1716
g67
(dp1717
sg76
g666
sg69
(lp1718
g62
(g83
g64
NtRp1719
(dp1720
g67
(dp1721
g87
g88
ssg76
g1715
sg69
(lp1722
S'wsgi_url_scheme'
p1723
asbag62
(g83
g64
NtRp1724
(dp1725
g67
(dp1726
g94
g95
ssg76
g1715
sg69
(lp1727
S':'
asbag62
(g83
g64
NtRp1728
(dp1729
g67
(dp1730
sg76
g1715
sg69
(lp1731
g62
(g63
g64
NtRp1732
(dp1733
g67
(dp1734
g75
I4
ssg76
g1728
sg69
(lp1735
S'http'
p1736
asbasbasbag62
(g78
g64
NtRp1737
(dp1738
g67
(dp1739
sg76
g666
sg69
(lp1740
g62
(g83
g64
NtRp1741
(dp1742
g67
(dp1743
g87
g88
ssg76
g1737
sg69
(lp1744
S'wsgi_version'
p1745
asbag62
(g83
g64
NtRp1746
(dp1747
g67
(dp1748
g94
g95
ssg76
g1737
sg69
(lp1749
S':'
asbag62
(g83
g64
NtRp1750
(dp1751
g67
(dp1752
sg76
g1737
sg69
(lp1753
g62
(g63
g64
NtRp1754
(dp1755
g67
(dp1756
g75
I4
ssg76
g1750
sg69
(lp1757
g62
(g71
g64
NtRp1758
(dp1759
g67
(dp1760
g75
I3
ssg76
Nsg69
(lp1761
g62
(g78
g64
NtRp1762
(dp1763
g67
(dp1764
sg76
g1758
sg69
(lp1765
g62
(g83
g64
NtRp1766
(dp1767
g67
(dp1768
sg76
g1762
sg69
(lp1769
g62
(g63
g64
NtRp1770
(dp1771
g67
(dp1772
g75
I3
ssg76
g1766
sg69
(lp1773
S'1'
asbasbasbag62
(g78
g64
NtRp1774
(dp1775
g67
(dp1776
sg76
g1758
sg69
(lp1777
g62
(g83
g64
NtRp1778
(dp1779
g67
(dp1780
sg76
g1774
sg69
(lp1781
g62
(g63
g64
NtRp1782
(dp1783
g67
(dp1784
g75
I3
ssg76
g1778
sg69
(lp1785
S'0'
asbasbasbasbasbasbasbasbasbasbasbag62
(g78
g64
NtRp1786
(dp1787
g67
(dp1788
sg76
g72
sg69
(lp1789
g62
(g83
g64
NtRp1790
(dp1791
g67
(dp1792
g87
g88
ssg76
g1786
sg69
(lp1793
S'extension'
p1794
asbag62
(g83
g64
NtRp1795
(dp1796
g67
(dp1797
g94
g95
ssg76
g1786
sg69
(lp1798
S':'
asbag62
(g83
g64
NtRp1799
(dp1800
g67
(dp1801
sg76
g1786
sg69
(lp1802
g62
(g63
g64
NtRp1803
(dp1804
g67
(dp1805
g75
I5
ssg76
g1799
sg69
(lp1806
S'html'
p1807
asbasbasbag62
(g78
g64
NtRp1808
(dp1809
g67
(dp1810
sg76
g72
sg69
(lp1811
g62
(g83
g64
NtRp1812
(dp1813
g67
(dp1814
g87
g88
ssg76
g1808
sg69
(lp1815
S'folder'
p1816
asbag62
(g83
g64
NtRp1817
(dp1818
g67
(dp1819
g94
g95
ssg76
g1808
sg69
(lp1820
S':'
asbag62
(g83
g64
NtRp1821
(dp1822
g67
(dp1823
sg76
g1808
sg69
(lp1824
g62
(g63
g64
NtRp1825
(dp1826
g67
(dp1827
g75
I5
ssg76
g1821
sg69
(lp1828
S'C:\\Users\\admin\\Desktop\\Sathvik\\Tharuni.Org\\applications\\admin\\'
p1829
asbasbasbag62
(g78
g64
NtRp1830
(dp1831
g67
(dp1832
sg76
g72
sg69
(lp1833
g62
(g83
g64
NtRp1834
(dp1835
g67
(dp1836
g87
g88
ssg76
g1830
sg69
(lp1837
S'function'
p1838
asbag62
(g83
g64
NtRp1839
(dp1840
g67
(dp1841
g94
g95
ssg76
g1830
sg69
(lp1842
S':'
asbag62
(g83
g64
NtRp1843
(dp1844
g67
(dp1845
sg76
g1830
sg69
(lp1846
g62
(g63
g64
NtRp1847
(dp1848
g67
(dp1849
g75
I5
ssg76
g1843
sg69
(lp1850
S'step6'
p1851
asbasbasbag62
(g78
g64
NtRp1852
(dp1853
g67
(dp1854
sg76
g72
sg69
(lp1855
g62
(g83
g64
NtRp1856
(dp1857
g67
(dp1858
g87
g88
ssg76
g1852
sg69
(lp1859
S'get_vars'
p1860
asbag62
(g83
g64
NtRp1861
(dp1862
g67
(dp1863
g94
g95
ssg76
g1852
sg69
(lp1864
S':'
asbag62
(g83
g64
NtRp1865
(dp1866
g67
(dp1867
sg76
g1852
sg69
(lp1868
g62
(g63
g64
NtRp1869
(dp1870
g67
(dp1871
g75
I5
ssg76
g1865
sg69
(lp1872
g62
(g71
g64
NtRp1873
(dp1874
g67
(dp1875
g75
I4
ssg76
Nsg69
(lp1876
sbasbasbasbag62
(g78
g64
NtRp1877
(dp1878
g67
(dp1879
sg76
g72
sg69
(lp1880
g62
(g83
g64
NtRp1881
(dp1882
g67
(dp1883
g87
g88
ssg76
g1877
sg69
(lp1884
S'global_settings'
p1885
asbag62
(g83
g64
NtRp1886
(dp1887
g67
(dp1888
g94
g95
ssg76
g1877
sg69
(lp1889
S':'
asbag62
(g83
g64
NtRp1890
(dp1891
g67
(dp1892
sg76
g1877
sg69
(lp1893
g62
(g63
g64
NtRp1894
(dp1895
g67
(dp1896
g75
I5
ssg76
g1890
sg69
(lp1897
g62
(g71
g64
NtRp1898
(dp1899
g67
(dp1900
g75
I4
ssg76
Nsg69
(lp1901
g62
(g78
g64
NtRp1902
(dp1903
g67
(dp1904
sg76
g1898
sg69
(lp1905
g62
(g83
g64
NtRp1906
(dp1907
g67
(dp1908
g87
g88
ssg76
g1902
sg69
(lp1909
g678
asbag62
(g83
g64
NtRp1910
(dp1911
g67
(dp1912
g94
g95
ssg76
g1902
sg69
(lp1913
S':'
asbag62
(g83
g64
NtRp1914
(dp1915
g67
(dp1916
sg76
g1902
sg69
(lp1917
g62
(g63
g64
NtRp1918
(dp1919
g67
(dp1920
g75
I4
ssg76
g1914
sg69
(lp1921
S"set(['C:\\\\Users\\\\admin\\\\Desktop\\\\Sathvik\\\\Tharuni.Org\\\\applications\\\\init\\\\', 'C:\\\\Users\\\\admin\\\\Desktop\\\\Sathvik\\\\Tharuni.Org\\\\applications\\\\admin\\\\'])"
p1922
asbasbasbag62
(g78
g64
NtRp1923
(dp1924
g67
(dp1925
sg76
g1898
sg69
(lp1926
g62
(g83
g64
NtRp1927
(dp1928
g67
(dp1929
g87
g88
ssg76
g1923
sg69
(lp1930
g700
asbag62
(g83
g64
NtRp1931
(dp1932
g67
(dp1933
g94
g95
ssg76
g1923
sg69
(lp1934
S':'
asbag62
(g83
g64
NtRp1935
(dp1936
g67
(dp1937
sg76
g1923
sg69
(lp1938
g62
(g63
g64
NtRp1939
(dp1940
g67
(dp1941
g75
I4
ssg76
g1935
sg69
(lp1942
g713
asbasbasbag62
(g78
g64
NtRp1943
(dp1944
g67
(dp1945
sg76
g1898
sg69
(lp1946
g62
(g83
g64
NtRp1947
(dp1948
g67
(dp1949
g87
g88
ssg76
g1943
sg69
(lp1950
g722
asbag62
(g83
g64
NtRp1951
(dp1952
g67
(dp1953
g94
g95
ssg76
g1943
sg69
(lp1954
S':'
asbag62
(g83
g64
NtRp1955
(dp1956
g67
(dp1957
sg76
g1943
sg69
(lp1958
g62
(g63
g64
NtRp1959
(dp1960
g67
(dp1961
g75
I4
ssg76
g1955
sg69
(lp1962
g62
(g71
g64
NtRp1963
(dp1964
g67
(dp1965
g75
I3
ssg76
Nsg69
(lp1966
sbasbasbasbag62
(g78
g64
NtRp1967
(dp1968
g67
(dp1969
sg76
g1898
sg69
(lp1970
g62
(g83
g64
NtRp1971
(dp1972
g67
(dp1973
g87
g88
ssg76
g1967
sg69
(lp1974
g747
asbag62
(g83
g64
NtRp1975
(dp1976
g67
(dp1977
g94
g95
ssg76
g1967
sg69
(lp1978
S':'
asbag62
(g83
g64
NtRp1979
(dp1980
g67
(dp1981
sg76
g1967
sg69
(lp1982
g62
(g63
g64
NtRp1983
(dp1984
g67
(dp1985
g75
I4
ssg76
g1979
sg69
(lp1986
S"<Values at 0x36b4188: {'verbose': False, 'ip': '127.0.0.1', 'with_scheduler': False, 'ips': ['10.8.4.49', '192.168.1.132', '192.168.56.1', '192.168.166.1', '169.254.251.64'], 'shutdown_timeout': 5, 'taskbar': False, 'port': 8000, 'maxthreads': None, 'softcron': False, 'server_name': 'LP-US-002', 'bpython': False, 'nogui': False, 'nocron': False, 'extcron': False, 'run_system_tests': False, 'test': None, 'folder': 'C:\\\\Users\\\\admin\\\\Desktop\\\\Sathvik\\\\Tharuni.Org', 'config': '', 'import_models': False, 'winservice': '', 'shell': None, 'run': '', 'log_filename': 'httpserver.log', 'debuglevel': 30, 'args': [''], 'socket_timeout': 5, 'ssl_ca_certificate': None, 'scheduler': None, 'profiler_filename': None, 'ssl_private_key': '', 'scheduler_groups': None, 'password': '<ask>', 'request_queue_size': 5, 'ssl_certificate': '', 'cronjob': False, 'numthreads': None, 'quiet': False, 'interfaces': None, 'minthreads': None, 'timeout': 10, 'plain': False, 'nobanner': False, 'pid_filename': 'httpserver.pid'}>"
p1987
asbasbasbag62
(g78
g64
NtRp1988
(dp1989
g67
(dp1990
sg76
g1898
sg69
(lp1991
g62
(g83
g64
NtRp1992
(dp1993
g67
(dp1994
g87
g88
ssg76
g1988
sg69
(lp1995
g813
asbag62
(g83
g64
NtRp1996
(dp1997
g67
(dp1998
g94
g95
ssg76
g1988
sg69
(lp1999
S':'
asbag62
(g83
g64
NtRp2000
(dp2001
g67
(dp2002
sg76
g1988
sg69
(lp2003
g62
(g63
g64
NtRp2004
(dp2005
g67
(dp2006
g75
I4
ssg76
g2000
sg69
(lp2007
S'set([])'
p2008
asbasbasbag62
(g78
g64
NtRp2009
(dp2010
g67
(dp2011
sg76
g1898
sg69
(lp2012
g62
(g83
g64
NtRp2013
(dp2014
g67
(dp2015
g87
g88
ssg76
g2009
sg69
(lp2016
g835
asbag62
(g83
g64
NtRp2017
(dp2018
g67
(dp2019
g94
g95
ssg76
g2009
sg69
(lp2020
S':'
asbag62
(g83
g64
NtRp2021
(dp2022
g67
(dp2023
sg76
g2009
sg69
(lp2024
g62
(g63
g64
NtRp2025
(dp2026
g67
(dp2027
g75
I4
ssg76
g2021
sg69
(lp2028
g105
asbasbasbag62
(g78
g64
NtRp2029
(dp2030
g67
(dp2031
sg76
g1898
sg69
(lp2032
g62
(g83
g64
NtRp2033
(dp2034
g67
(dp2035
g87
g88
ssg76
g2029
sg69
(lp2036
g856
asbag62
(g83
g64
NtRp2037
(dp2038
g67
(dp2039
g94
g95
ssg76
g2029
sg69
(lp2040
S':'
asbag62
(g83
g64
NtRp2041
(dp2042
g67
(dp2043
sg76
g2029
sg69
(lp2044
g62
(g63
g64
NtRp2045
(dp2046
g67
(dp2047
g75
I4
ssg76
g2041
sg69
(lp2048
g869
asbasbasbag62
(g78
g64
NtRp2049
(dp2050
g67
(dp2051
sg76
g1898
sg69
(lp2052
g62
(g83
g64
NtRp2053
(dp2054
g67
(dp2055
g87
g88
ssg76
g2049
sg69
(lp2056
g1162
asbag62
(g83
g64
NtRp2057
(dp2058
g67
(dp2059
g94
g95
ssg76
g2049
sg69
(lp2060
S':'
asbag62
(g83
g64
NtRp2061
(dp2062
g67
(dp2063
sg76
g2049
sg69
(lp2064
g62
(g63
g64
NtRp2065
(dp2066
g67
(dp2067
g75
I4
ssg76
g2061
sg69
(lp2068
g105
asbasbasbag62
(g78
g64
NtRp2069
(dp2070
g67
(dp2071
sg76
g1898
sg69
(lp2072
g62
(g83
g64
NtRp2073
(dp2074
g67
(dp2075
g87
g88
ssg76
g2069
sg69
(lp2076
g1183
asbag62
(g83
g64
NtRp2077
(dp2078
g67
(dp2079
g94
g95
ssg76
g2069
sg69
(lp2080
S':'
asbag62
(g83
g64
NtRp2081
(dp2082
g67
(dp2083
sg76
g2069
sg69
(lp2084
g62
(g63
g64
NtRp2085
(dp2086
g67
(dp2087
g75
I4
ssg76
g2081
sg69
(lp2088
g105
asbasbasbag62
(g78
g64
NtRp2089
(dp2090
g67
(dp2091
sg76
g1898
sg69
(lp2092
g62
(g83
g64
NtRp2093
(dp2094
g67
(dp2095
g87
g88
ssg76
g2089
sg69
(lp2096
g1442
asbag62
(g83
g64
NtRp2097
(dp2098
g67
(dp2099
g94
g95
ssg76
g2089
sg69
(lp2100
S':'
asbag62
(g83
g64
NtRp2101
(dp2102
g67
(dp2103
sg76
g2089
sg69
(lp2104
g62
(g63
g64
NtRp2105
(dp2106
g67
(dp2107
g75
I4
ssg76
g2101
sg69
(lp2108
g1455
asbasbasbag62
(g78
g64
NtRp2109
(dp2110
g67
(dp2111
sg76
g1898
sg69
(lp2112
g62
(g83
g64
NtRp2113
(dp2114
g67
(dp2115
g87
g88
ssg76
g2109
sg69
(lp2116
g1506
asbag62
(g83
g64
NtRp2117
(dp2118
g67
(dp2119
g94
g95
ssg76
g2109
sg69
(lp2120
S':'
asbag62
(g83
g64
NtRp2121
(dp2122
g67
(dp2123
sg76
g2109
sg69
(lp2124
g62
(g63
g64
NtRp2125
(dp2126
g67
(dp2127
g75
I4
ssg76
g2121
sg69
(lp2128
g62
(g71
g64
NtRp2129
(dp2130
g67
(dp2131
g75
I3
ssg76
Nsg69
(lp2132
g62
(g78
g64
NtRp2133
(dp2134
g67
(dp2135
sg76
g2129
sg69
(lp2136
g62
(g83
g64
NtRp2137
(dp2138
g67
(dp2139
sg76
g2133
sg69
(lp2140
g62
(g63
g64
NtRp2141
(dp2142
g67
(dp2143
g75
I3
ssg76
g2137
sg69
(lp2144
S'2'
asbasbasbag62
(g78
g64
NtRp2145
(dp2146
g67
(dp2147
sg76
g2129
sg69
(lp2148
g62
(g83
g64
NtRp2149
(dp2150
g67
(dp2151
sg76
g2145
sg69
(lp2152
g62
(g63
g64
NtRp2153
(dp2154
g67
(dp2155
g75
I3
ssg76
g2149
sg69
(lp2156
S'0'
asbasbasbag62
(g78
g64
NtRp2157
(dp2158
g67
(dp2159
sg76
g2129
sg69
(lp2160
g62
(g83
g64
NtRp2161
(dp2162
g67
(dp2163
sg76
g2157
sg69
(lp2164
g62
(g63
g64
NtRp2165
(dp2166
g67
(dp2167
g75
I3
ssg76
g2161
sg69
(lp2168
S'9'
asbasbasbag62
(g78
g64
NtRp2169
(dp2170
g67
(dp2171
sg76
g2129
sg69
(lp2172
g62
(g83
g64
NtRp2173
(dp2174
g67
(dp2175
sg76
g2169
sg69
(lp2176
g62
(g63
g64
NtRp2177
(dp2178
g67
(dp2179
g75
I3
ssg76
g2173
sg69
(lp2180
S'datetime.datetime(2012, 9, 13, 23, 51, 30)'
p2181
asbasbasbag62
(g78
g64
NtRp2182
(dp2183
g67
(dp2184
sg76
g2129
sg69
(lp2185
g62
(g83
g64
NtRp2186
(dp2187
g67
(dp2188
sg76
g2182
sg69
(lp2189
g62
(g63
g64
NtRp2190
(dp2191
g67
(dp2192
g75
I3
ssg76
g2186
sg69
(lp2193
g1584
asbasbasbasbasbasbasbasbasbasbasbag62
(g78
g64
NtRp2194
(dp2195
g67
(dp2196
sg76
g72
sg69
(lp2197
g62
(g83
g64
NtRp2198
(dp2199
g67
(dp2200
g87
g88
ssg76
g2194
sg69
(lp2201
S'is_https'
p2202
asbag62
(g83
g64
NtRp2203
(dp2204
g67
(dp2205
g94
g95
ssg76
g2194
sg69
(lp2206
S':'
asbag62
(g83
g64
NtRp2207
(dp2208
g67
(dp2209
sg76
g2194
sg69
(lp2210
g62
(g63
g64
NtRp2211
(dp2212
g67
(dp2213
g75
I5
ssg76
g2207
sg69
(lp2214
g105
asbasbasbag62
(g78
g64
NtRp2215
(dp2216
g67
(dp2217
sg76
g72
sg69
(lp2218
g62
(g83
g64
NtRp2219
(dp2220
g67
(dp2221
g87
g88
ssg76
g2215
sg69
(lp2222
S'is_local'
p2223
asbag62
(g83
g64
NtRp2224
(dp2225
g67
(dp2226
g94
g95
ssg76
g2215
sg69
(lp2227
S':'
asbag62
(g83
g64
NtRp2228
(dp2229
g67
(dp2230
sg76
g2215
sg69
(lp2231
g62
(g63
g64
NtRp2232
(dp2233
g67
(dp2234
g75
I5
ssg76
g2228
sg69
(lp2235
g1693
asbasbasbag62
(g78
g64
NtRp2236
(dp2237
g67
(dp2238
sg76
g72
sg69
(lp2239
g62
(g83
g64
NtRp2240
(dp2241
g67
(dp2242
g87
g88
ssg76
g2236
sg69
(lp2243
S'is_restful'
p2244
asbag62
(g83
g64
NtRp2245
(dp2246
g67
(dp2247
g94
g95
ssg76
g2236
sg69
(lp2248
S':'
asbag62
(g83
g64
NtRp2249
(dp2250
g67
(dp2251
sg76
g2236
sg69
(lp2252
g62
(g63
g64
NtRp2253
(dp2254
g67
(dp2255
g75
I5
ssg76
g2249
sg69
(lp2256
g105
asbasbasbag62
(g78
g64
NtRp2257
(dp2258
g67
(dp2259
sg76
g72
sg69
(lp2260
g62
(g83
g64
NtRp2261
(dp2262
g67
(dp2263
g87
g88
ssg76
g2257
sg69
(lp2264
S'now'
p2265
asbag62
(g83
g64
NtRp2266
(dp2267
g67
(dp2268
g94
g95
ssg76
g2257
sg69
(lp2269
S':'
asbag62
(g83
g64
NtRp2270
(dp2271
g67
(dp2272
sg76
g2257
sg69
(lp2273
g62
(g63
g64
NtRp2274
(dp2275
g67
(dp2276
g75
I5
ssg76
g2270
sg69
(lp2277
S'datetime.datetime(2012, 10, 14, 15, 56, 7, 449000)'
p2278
asbasbasbag62
(g78
g64
NtRp2279
(dp2280
g67
(dp2281
sg76
g72
sg69
(lp2282
g62
(g83
g64
NtRp2283
(dp2284
g67
(dp2285
g87
g88
ssg76
g2279
sg69
(lp2286
S'post_vars'
p2287
asbag62
(g83
g64
NtRp2288
(dp2289
g67
(dp2290
g94
g95
ssg76
g2279
sg69
(lp2291
S':'
asbag62
(g83
g64
NtRp2292
(dp2293
g67
(dp2294
sg76
g2279
sg69
(lp2295
g62
(g63
g64
NtRp2296
(dp2297
g67
(dp2298
g75
I5
ssg76
g2292
sg69
(lp2299
g62
(g71
g64
NtRp2300
(dp2301
g67
(dp2302
g75
I4
ssg76
Nsg69
(lp2303
g62
(g78
g64
NtRp2304
(dp2305
g67
(dp2306
sg76
g2300
sg69
(lp2307
g62
(g83
g64
NtRp2308
(dp2309
g67
(dp2310
g87
g88
ssg76
g2304
sg69
(lp2311
S'erase_database'
p2312
asbag62
(g83
g64
NtRp2313
(dp2314
g67
(dp2315
g94
g95
ssg76
g2304
sg69
(lp2316
S':'
asbag62
(g83
g64
NtRp2317
(dp2318
g67
(dp2319
sg76
g2304
sg69
(lp2320
g62
(g63
g64
NtRp2321
(dp2322
g67
(dp2323
g75
I4
ssg76
g2317
sg69
(lp2324
S'on'
p2325
asbasbasbasbasbasbasbag62
(g78
g64
NtRp2326
(dp2327
g67
(dp2328
sg76
g72
sg69
(lp2329
g62
(g83
g64
NtRp2330
(dp2331
g67
(dp2332
g87
g88
ssg76
g2326
sg69
(lp2333
S'raw_args'
p2334
asbag62
(g83
g64
NtRp2335
(dp2336
g67
(dp2337
g94
g95
ssg76
g2326
sg69
(lp2338
S':'
asbag62
(g83
g64
NtRp2339
(dp2340
g67
(dp2341
sg76
g2326
sg69
(lp2342
g62
(g63
g64
NtRp2343
(dp2344
g67
(dp2345
g75
I5
ssg76
g2339
sg69
(lp2346
S'None'
p2347
asbasbasbag62
(g78
g64
NtRp2348
(dp2349
g67
(dp2350
sg76
g72
sg69
(lp2351
g62
(g83
g64
NtRp2352
(dp2353
g67
(dp2354
g87
g88
ssg76
g2348
sg69
(lp2355
S'raw_extension'
p2356
asbag62
(g83
g64
NtRp2357
(dp2358
g67
(dp2359
g94
g95
ssg76
g2348
sg69
(lp2360
S':'
asbag62
(g83
g64
NtRp2361
(dp2362
g67
(dp2363
sg76
g2348
sg69
(lp2364
g62
(g63
g64
NtRp2365
(dp2366
g67
(dp2367
g75
I5
ssg76
g2361
sg69
(lp2368
S'None'
p2369
asbasbasbag62
(g78
g64
NtRp2370
(dp2371
g67
(dp2372
sg76
g72
sg69
(lp2373
g62
(g83
g64
NtRp2374
(dp2375
g67
(dp2376
g87
g88
ssg76
g2370
sg69
(lp2377
S'url'
p2378
asbag62
(g83
g64
NtRp2379
(dp2380
g67
(dp2381
g94
g95
ssg76
g2370
sg69
(lp2382
S':'
asbag62
(g83
g64
NtRp2383
(dp2384
g67
(dp2385
sg76
g2370
sg69
(lp2386
g62
(g63
g64
NtRp2387
(dp2388
g67
(dp2389
g75
I5
ssg76
g2383
sg69
(lp2390
g1217
asbasbasbag62
(g78
g64
NtRp2391
(dp2392
g67
(dp2393
sg76
g72
sg69
(lp2394
g62
(g83
g64
NtRp2395
(dp2396
g67
(dp2397
g87
g88
ssg76
g2391
sg69
(lp2398
S'utcnow'
p2399
asbag62
(g83
g64
NtRp2400
(dp2401
g67
(dp2402
g94
g95
ssg76
g2391
sg69
(lp2403
S':'
asbag62
(g83
g64
NtRp2404
(dp2405
g67
(dp2406
sg76
g2391
sg69
(lp2407
g62
(g63
g64
NtRp2408
(dp2409
g67
(dp2410
g75
I5
ssg76
g2404
sg69
(lp2411
S'datetime.datetime(2012, 10, 14, 10, 26, 7, 449000)'
p2412
asbasbasbag62
(g78
g64
NtRp2413
(dp2414
g67
(dp2415
sg76
g72
sg69
(lp2416
g62
(g83
g64
NtRp2417
(dp2418
g67
(dp2419
g87
g88
ssg76
g2413
sg69
(lp2420
S'uuid'
p2421
asbag62
(g83
g64
NtRp2422
(dp2423
g67
(dp2424
g94
g95
ssg76
g2413
sg69
(lp2425
S':'
asbag62
(g83
g64
NtRp2426
(dp2427
g67
(dp2428
sg76
g2413
sg69
(lp2429
g62
(g63
g64
NtRp2430
(dp2431
g67
(dp2432
g75
I5
ssg76
g2426
sg69
(lp2433
S'admin/127.0.0.1.2012-10-14.15-56-07.8d79520f-8448-4c65-9a7f-865658ca2296'
p2434
asbasbasbag62
(g78
g64
NtRp2435
(dp2436
g67
(dp2437
sg76
g72
sg69
(lp2438
g62
(g83
g64
NtRp2439
(dp2440
g67
(dp2441
g87
g88
ssg76
g2435
sg69
(lp2442
S'vars'
p2443
asbag62
(g83
g64
NtRp2444
(dp2445
g67
(dp2446
g94
g95
ssg76
g2435
sg69
(lp2447
S':'
asbag62
(g83
g64
NtRp2448
(dp2449
g67
(dp2450
sg76
g2435
sg69
(lp2451
g62
(g63
g64
NtRp2452
(dp2453
g67
(dp2454
g75
I5
ssg76
g2448
sg69
(lp2455
g62
(g71
g64
NtRp2456
(dp2457
g67
(dp2458
g75
I4
ssg76
Nsg69
(lp2459
g62
(g78
g64
NtRp2460
(dp2461
g67
(dp2462
sg76
g2456
sg69
(lp2463
g62
(g83
g64
NtRp2464
(dp2465
g67
(dp2466
g87
g88
ssg76
g2460
sg69
(lp2467
g2312
asbag62
(g83
g64
NtRp2468
(dp2469
g67
(dp2470
g94
g95
ssg76
g2460
sg69
(lp2471
S':'
asbag62
(g83
g64
NtRp2472
(dp2473
g67
(dp2474
sg76
g2460
sg69
(lp2475
g62
(g63
g64
NtRp2476
(dp2477
g67
(dp2478
g75
I4
ssg76
g2472
sg69
(lp2479
g2325
asbasbasbasbasbasbasbag62
(g78
g64
NtRp2480
(dp2481
g67
(dp2482
sg76
g72
sg69
(lp2483
g62
(g83
g64
NtRp2484
(dp2485
g67
(dp2486
g87
g88
ssg76
g2480
sg69
(lp2487
S'wsgi'
p2488
asbag62
(g83
g64
NtRp2489
(dp2490
g67
(dp2491
g94
g95
ssg76
g2480
sg69
(lp2492
S':'
asbag62
(g83
g64
NtRp2493
(dp2494
g67
(dp2495
sg76
g2480
sg69
(lp2496
g62
(g63
g64
NtRp2497
(dp2498
g67
(dp2499
g75
I5
ssg76
g2493
sg69
(lp2500
g62
(g71
g64
NtRp2501
(dp2502
g67
(dp2503
g75
I4
ssg76
Nsg69
(lp2504
g62
(g78
g64
NtRp2505
(dp2506
g67
(dp2507
sg76
g2501
sg69
(lp2508
g62
(g83
g64
NtRp2509
(dp2510
g67
(dp2511
g87
g88
ssg76
g2505
sg69
(lp2512
S'environ'
p2513
asbag62
(g83
g64
NtRp2514
(dp2515
g67
(dp2516
g94
g95
ssg76
g2505
sg69
(lp2517
S':'
asbag62
(g83
g64
NtRp2518
(dp2519
g67
(dp2520
sg76
g2505
sg69
(lp2521
g62
(g63
g64
NtRp2522
(dp2523
g67
(dp2524
g75
I4
ssg76
g2518
sg69
(lp2525
g62
(g71
g64
NtRp2526
(dp2527
g67
(dp2528
g75
I3
ssg76
Nsg69
(lp2529
g62
(g78
g64
NtRp2530
(dp2531
g67
(dp2532
sg76
g2526
sg69
(lp2533
g62
(g83
g64
NtRp2534
(dp2535
g67
(dp2536
g87
g88
ssg76
g2530
sg69
(lp2537
S'CONTENT_LENGTH'
p2538
asbag62
(g83
g64
NtRp2539
(dp2540
g67
(dp2541
g94
g95
ssg76
g2530
sg69
(lp2542
S':'
asbag62
(g83
g64
NtRp2543
(dp2544
g67
(dp2545
sg76
g2530
sg69
(lp2546
g62
(g63
g64
NtRp2547
(dp2548
g67
(dp2549
g75
I3
ssg76
g2543
sg69
(lp2550
g782
asbasbasbag62
(g78
g64
NtRp2551
(dp2552
g67
(dp2553
sg76
g2526
sg69
(lp2554
g62
(g83
g64
NtRp2555
(dp2556
g67
(dp2557
g87
g88
ssg76
g2551
sg69
(lp2558
S'CONTENT_TYPE'
p2559
asbag62
(g83
g64
NtRp2560
(dp2561
g67
(dp2562
g94
g95
ssg76
g2551
sg69
(lp2563
S':'
asbag62
(g83
g64
NtRp2564
(dp2565
g67
(dp2566
sg76
g2551
sg69
(lp2567
g62
(g63
g64
NtRp2568
(dp2569
g67
(dp2570
g75
I3
ssg76
g2564
sg69
(lp2571
g804
asbasbasbag62
(g78
g64
NtRp2572
(dp2573
g67
(dp2574
sg76
g2526
sg69
(lp2575
g62
(g83
g64
NtRp2576
(dp2577
g67
(dp2578
g87
g88
ssg76
g2572
sg69
(lp2579
S'HTTP_ACCEPT'
p2580
asbag62
(g83
g64
NtRp2581
(dp2582
g67
(dp2583
g94
g95
ssg76
g2572
sg69
(lp2584
S':'
asbag62
(g83
g64
NtRp2585
(dp2586
g67
(dp2587
sg76
g2572
sg69
(lp2588
g62
(g63
g64
NtRp2589
(dp2590
g67
(dp2591
g75
I3
ssg76
g2585
sg69
(lp2592
g891
asbasbasbag62
(g78
g64
NtRp2593
(dp2594
g67
(dp2595
sg76
g2526
sg69
(lp2596
g62
(g83
g64
NtRp2597
(dp2598
g67
(dp2599
g87
g88
ssg76
g2593
sg69
(lp2600
S'HTTP_ACCEPT_CHARSET'
p2601
asbag62
(g83
g64
NtRp2602
(dp2603
g67
(dp2604
g94
g95
ssg76
g2593
sg69
(lp2605
S':'
asbag62
(g83
g64
NtRp2606
(dp2607
g67
(dp2608
sg76
g2593
sg69
(lp2609
g62
(g63
g64
NtRp2610
(dp2611
g67
(dp2612
g75
I3
ssg76
g2606
sg69
(lp2613
g913
asbasbasbag62
(g78
g64
NtRp2614
(dp2615
g67
(dp2616
sg76
g2526
sg69
(lp2617
g62
(g83
g64
NtRp2618
(dp2619
g67
(dp2620
g87
g88
ssg76
g2614
sg69
(lp2621
S'HTTP_ACCEPT_ENCODING'
p2622
asbag62
(g83
g64
NtRp2623
(dp2624
g67
(dp2625
g94
g95
ssg76
g2614
sg69
(lp2626
S':'
asbag62
(g83
g64
NtRp2627
(dp2628
g67
(dp2629
sg76
g2614
sg69
(lp2630
g62
(g63
g64
NtRp2631
(dp2632
g67
(dp2633
g75
I3
ssg76
g2627
sg69
(lp2634
g935
asbasbasbag62
(g78
g64
NtRp2635
(dp2636
g67
(dp2637
sg76
g2526
sg69
(lp2638
g62
(g83
g64
NtRp2639
(dp2640
g67
(dp2641
g87
g88
ssg76
g2635
sg69
(lp2642
S'HTTP_ACCEPT_LANGUAGE'
p2643
asbag62
(g83
g64
NtRp2644
(dp2645
g67
(dp2646
g94
g95
ssg76
g2635
sg69
(lp2647
S':'
asbag62
(g83
g64
NtRp2648
(dp2649
g67
(dp2650
sg76
g2635
sg69
(lp2651
g62
(g63
g64
NtRp2652
(dp2653
g67
(dp2654
g75
I3
ssg76
g2648
sg69
(lp2655
g957
asbasbasbag62
(g78
g64
NtRp2656
(dp2657
g67
(dp2658
sg76
g2526
sg69
(lp2659
g62
(g83
g64
NtRp2660
(dp2661
g67
(dp2662
g87
g88
ssg76
g2656
sg69
(lp2663
S'HTTP_CACHE_CONTROL'
p2664
asbag62
(g83
g64
NtRp2665
(dp2666
g67
(dp2667
g94
g95
ssg76
g2656
sg69
(lp2668
S':'
asbag62
(g83
g64
NtRp2669
(dp2670
g67
(dp2671
sg76
g2656
sg69
(lp2672
g62
(g63
g64
NtRp2673
(dp2674
g67
(dp2675
g75
I3
ssg76
g2669
sg69
(lp2676
g979
asbasbasbag62
(g78
g64
NtRp2677
(dp2678
g67
(dp2679
sg76
g2526
sg69
(lp2680
g62
(g83
g64
NtRp2681
(dp2682
g67
(dp2683
g87
g88
ssg76
g2677
sg69
(lp2684
S'HTTP_CONNECTION'
p2685
asbag62
(g83
g64
NtRp2686
(dp2687
g67
(dp2688
g94
g95
ssg76
g2677
sg69
(lp2689
S':'
asbag62
(g83
g64
NtRp2690
(dp2691
g67
(dp2692
sg76
g2677
sg69
(lp2693
g62
(g63
g64
NtRp2694
(dp2695
g67
(dp2696
g75
I3
ssg76
g2690
sg69
(lp2697
g1001
asbasbasbag62
(g78
g64
NtRp2698
(dp2699
g67
(dp2700
sg76
g2526
sg69
(lp2701
g62
(g83
g64
NtRp2702
(dp2703
g67
(dp2704
g87
g88
ssg76
g2698
sg69
(lp2705
S'HTTP_CONTENT_LENGTH'
p2706
asbag62
(g83
g64
NtRp2707
(dp2708
g67
(dp2709
g94
g95
ssg76
g2698
sg69
(lp2710
S':'
asbag62
(g83
g64
NtRp2711
(dp2712
g67
(dp2713
sg76
g2698
sg69
(lp2714
g62
(g63
g64
NtRp2715
(dp2716
g67
(dp2717
g75
I3
ssg76
g2711
sg69
(lp2718
g782
asbasbasbag62
(g78
g64
NtRp2719
(dp2720
g67
(dp2721
sg76
g2526
sg69
(lp2722
g62
(g83
g64
NtRp2723
(dp2724
g67
(dp2725
g87
g88
ssg76
g2719
sg69
(lp2726
S'HTTP_CONTENT_TYPE'
p2727
asbag62
(g83
g64
NtRp2728
(dp2729
g67
(dp2730
g94
g95
ssg76
g2719
sg69
(lp2731
S':'
asbag62
(g83
g64
NtRp2732
(dp2733
g67
(dp2734
sg76
g2719
sg69
(lp2735
g62
(g63
g64
NtRp2736
(dp2737
g67
(dp2738
g75
I3
ssg76
g2732
sg69
(lp2739
g804
asbasbasbag62
(g78
g64
NtRp2740
(dp2741
g67
(dp2742
sg76
g2526
sg69
(lp2743
g62
(g83
g64
NtRp2744
(dp2745
g67
(dp2746
g87
g88
ssg76
g2740
sg69
(lp2747
S'HTTP_COOKIE'
p2748
asbag62
(g83
g64
NtRp2749
(dp2750
g67
(dp2751
g94
g95
ssg76
g2740
sg69
(lp2752
S':'
asbag62
(g83
g64
NtRp2753
(dp2754
g67
(dp2755
sg76
g2740
sg69
(lp2756
g62
(g63
g64
NtRp2757
(dp2758
g67
(dp2759
g75
I3
ssg76
g2753
sg69
(lp2760
g1065
asbasbasbag62
(g78
g64
NtRp2761
(dp2762
g67
(dp2763
sg76
g2526
sg69
(lp2764
g62
(g83
g64
NtRp2765
(dp2766
g67
(dp2767
g87
g88
ssg76
g2761
sg69
(lp2768
S'HTTP_HOST'
p2769
asbag62
(g83
g64
NtRp2770
(dp2771
g67
(dp2772
g94
g95
ssg76
g2761
sg69
(lp2773
S':'
asbag62
(g83
g64
NtRp2774
(dp2775
g67
(dp2776
sg76
g2761
sg69
(lp2777
g62
(g63
g64
NtRp2778
(dp2779
g67
(dp2780
g75
I3
ssg76
g2774
sg69
(lp2781
g1087
asbasbasbag62
(g78
g64
NtRp2782
(dp2783
g67
(dp2784
sg76
g2526
sg69
(lp2785
g62
(g83
g64
NtRp2786
(dp2787
g67
(dp2788
g87
g88
ssg76
g2782
sg69
(lp2789
S'HTTP_ORIGIN'
p2790
asbag62
(g83
g64
NtRp2791
(dp2792
g67
(dp2793
g94
g95
ssg76
g2782
sg69
(lp2794
S':'
asbag62
(g83
g64
NtRp2795
(dp2796
g67
(dp2797
sg76
g2782
sg69
(lp2798
g62
(g63
g64
NtRp2799
(dp2800
g67
(dp2801
g75
I3
ssg76
g2795
sg69
(lp2802
g1109
asbasbasbag62
(g78
g64
NtRp2803
(dp2804
g67
(dp2805
sg76
g2526
sg69
(lp2806
g62
(g83
g64
NtRp2807
(dp2808
g67
(dp2809
g87
g88
ssg76
g2803
sg69
(lp2810
S'HTTP_REFERER'
p2811
asbag62
(g83
g64
NtRp2812
(dp2813
g67
(dp2814
g94
g95
ssg76
g2803
sg69
(lp2815
S':'
asbag62
(g83
g64
NtRp2816
(dp2817
g67
(dp2818
sg76
g2803
sg69
(lp2819
g62
(g63
g64
NtRp2820
(dp2821
g67
(dp2822
g75
I3
ssg76
g2816
sg69
(lp2823
g1131
asbasbasbag62
(g78
g64
NtRp2824
(dp2825
g67
(dp2826
sg76
g2526
sg69
(lp2827
g62
(g83
g64
NtRp2828
(dp2829
g67
(dp2830
g87
g88
ssg76
g2824
sg69
(lp2831
S'HTTP_USER_AGENT'
p2832
asbag62
(g83
g64
NtRp2833
(dp2834
g67
(dp2835
g94
g95
ssg76
g2824
sg69
(lp2836
S':'
asbag62
(g83
g64
NtRp2837
(dp2838
g67
(dp2839
sg76
g2824
sg69
(lp2840
g62
(g63
g64
NtRp2841
(dp2842
g67
(dp2843
g75
I3
ssg76
g2837
sg69
(lp2844
g1153
asbasbasbag62
(g78
g64
NtRp2845
(dp2846
g67
(dp2847
sg76
g2526
sg69
(lp2848
g62
(g83
g64
NtRp2849
(dp2850
g67
(dp2851
g87
g88
ssg76
g2845
sg69
(lp2852
S'PATH_INFO'
p2853
asbag62
(g83
g64
NtRp2854
(dp2855
g67
(dp2856
g94
g95
ssg76
g2845
sg69
(lp2857
S':'
asbag62
(g83
g64
NtRp2858
(dp2859
g67
(dp2860
sg76
g2845
sg69
(lp2861
g62
(g63
g64
NtRp2862
(dp2863
g67
(dp2864
g75
I3
ssg76
g2858
sg69
(lp2865
g1217
asbasbasbag62
(g78
g64
NtRp2866
(dp2867
g67
(dp2868
sg76
g2526
sg69
(lp2869
g62
(g83
g64
NtRp2870
(dp2871
g67
(dp2872
g87
g88
ssg76
g2866
sg69
(lp2873
S'QUERY_STRING'
p2874
asbag62
(g83
g64
NtRp2875
(dp2876
g67
(dp2877
g94
g95
ssg76
g2866
sg69
(lp2878
S':'
asbag62
(g83
g64
NtRp2879
(dp2880
g67
(dp2881
sg76
g2866
sg69
(lp2882
g62
(g63
g64
NtRp2883
(dp2884
g67
(dp2885
g75
I3
ssg76
g2879
sg69
(lp2886
S''
asbasbasbag62
(g78
g64
NtRp2887
(dp2888
g67
(dp2889
sg76
g2526
sg69
(lp2890
g62
(g83
g64
NtRp2891
(dp2892
g67
(dp2893
g87
g88
ssg76
g2887
sg69
(lp2894
S'REMOTE_ADDR'
p2895
asbag62
(g83
g64
NtRp2896
(dp2897
g67
(dp2898
g94
g95
ssg76
g2887
sg69
(lp2899
S':'
asbag62
(g83
g64
NtRp2900
(dp2901
g67
(dp2902
sg76
g2887
sg69
(lp2903
g62
(g63
g64
NtRp2904
(dp2905
g67
(dp2906
g75
I3
ssg76
g2900
sg69
(lp2907
g217
asbasbasbag62
(g78
g64
NtRp2908
(dp2909
g67
(dp2910
sg76
g2526
sg69
(lp2911
g62
(g83
g64
NtRp2912
(dp2913
g67
(dp2914
g87
g88
ssg76
g2908
sg69
(lp2915
S'REMOTE_PORT'
p2916
asbag62
(g83
g64
NtRp2917
(dp2918
g67
(dp2919
g94
g95
ssg76
g2908
sg69
(lp2920
S':'
asbag62
(g83
g64
NtRp2921
(dp2922
g67
(dp2923
sg76
g2908
sg69
(lp2924
g62
(g63
g64
NtRp2925
(dp2926
g67
(dp2927
g75
I3
ssg76
g2921
sg69
(lp2928
g1281
asbasbasbag62
(g78
g64
NtRp2929
(dp2930
g67
(dp2931
sg76
g2526
sg69
(lp2932
g62
(g83
g64
NtRp2933
(dp2934
g67
(dp2935
g87
g88
ssg76
g2929
sg69
(lp2936
S'REQUEST_METHOD'
p2937
asbag62
(g83
g64
NtRp2938
(dp2939
g67
(dp2940
g94
g95
ssg76
g2929
sg69
(lp2941
S':'
asbag62
(g83
g64
NtRp2942
(dp2943
g67
(dp2944
sg76
g2929
sg69
(lp2945
g62
(g63
g64
NtRp2946
(dp2947
g67
(dp2948
g75
I3
ssg76
g2942
sg69
(lp2949
g1303
asbasbasbag62
(g78
g64
NtRp2950
(dp2951
g67
(dp2952
sg76
g2526
sg69
(lp2953
g62
(g83
g64
NtRp2954
(dp2955
g67
(dp2956
g87
g88
ssg76
g2950
sg69
(lp2957
S'REQUEST_URI'
p2958
asbag62
(g83
g64
NtRp2959
(dp2960
g67
(dp2961
g94
g95
ssg76
g2950
sg69
(lp2962
S':'
asbag62
(g83
g64
NtRp2963
(dp2964
g67
(dp2965
sg76
g2950
sg69
(lp2966
g62
(g63
g64
NtRp2967
(dp2968
g67
(dp2969
g75
I3
ssg76
g2963
sg69
(lp2970
g1217
asbasbasbag62
(g78
g64
NtRp2971
(dp2972
g67
(dp2973
sg76
g2526
sg69
(lp2974
g62
(g83
g64
NtRp2975
(dp2976
g67
(dp2977
g87
g88
ssg76
g2971
sg69
(lp2978
S'SCRIPT_NAME'
p2979
asbag62
(g83
g64
NtRp2980
(dp2981
g67
(dp2982
g94
g95
ssg76
g2971
sg69
(lp2983
S':'
asbag62
(g83
g64
NtRp2984
(dp2985
g67
(dp2986
sg76
g2971
sg69
(lp2987
g62
(g63
g64
NtRp2988
(dp2989
g67
(dp2990
g75
I3
ssg76
g2984
sg69
(lp2991
S''
asbasbasbag62
(g78
g64
NtRp2992
(dp2993
g67
(dp2994
sg76
g2526
sg69
(lp2995
g62
(g83
g64
NtRp2996
(dp2997
g67
(dp2998
g87
g88
ssg76
g2992
sg69
(lp2999
S'SERVER_NAME'
p3000
asbag62
(g83
g64
NtRp3001
(dp3002
g67
(dp3003
g94
g95
ssg76
g2992
sg69
(lp3004
S':'
asbag62
(g83
g64
NtRp3005
(dp3006
g67
(dp3007
sg76
g2992
sg69
(lp3008
g62
(g63
g64
NtRp3009
(dp3010
g67
(dp3011
g75
I3
ssg76
g3005
sg69
(lp3012
g1367
asbasbasbag62
(g78
g64
NtRp3013
(dp3014
g67
(dp3015
sg76
g2526
sg69
(lp3016
g62
(g83
g64
NtRp3017
(dp3018
g67
(dp3019
g87
g88
ssg76
g3013
sg69
(lp3020
S'SERVER_PORT'
p3021
asbag62
(g83
g64
NtRp3022
(dp3023
g67
(dp3024
g94
g95
ssg76
g3013
sg69
(lp3025
S':'
asbag62
(g83
g64
NtRp3026
(dp3027
g67
(dp3028
sg76
g3013
sg69
(lp3029
g62
(g63
g64
NtRp3030
(dp3031
g67
(dp3032
g75
I3
ssg76
g3026
sg69
(lp3033
g1389
asbasbasbag62
(g78
g64
NtRp3034
(dp3035
g67
(dp3036
sg76
g2526
sg69
(lp3037
g62
(g83
g64
NtRp3038
(dp3039
g67
(dp3040
g87
g88
ssg76
g3034
sg69
(lp3041
S'SERVER_PROTOCOL'
p3042
asbag62
(g83
g64
NtRp3043
(dp3044
g67
(dp3045
g94
g95
ssg76
g3034
sg69
(lp3046
S':'
asbag62
(g83
g64
NtRp3047
(dp3048
g67
(dp3049
sg76
g3034
sg69
(lp3050
g62
(g63
g64
NtRp3051
(dp3052
g67
(dp3053
g75
I3
ssg76
g3047
sg69
(lp3054
g1411
asbasbasbag62
(g78
g64
NtRp3055
(dp3056
g67
(dp3057
sg76
g2526
sg69
(lp3058
g62
(g83
g64
NtRp3059
(dp3060
g67
(dp3061
g87
g88
ssg76
g3055
sg69
(lp3062
S'SERVER_SOFTWARE'
p3063
asbag62
(g83
g64
NtRp3064
(dp3065
g67
(dp3066
g94
g95
ssg76
g3055
sg69
(lp3067
S':'
asbag62
(g83
g64
NtRp3068
(dp3069
g67
(dp3070
sg76
g3055
sg69
(lp3071
g62
(g63
g64
NtRp3072
(dp3073
g67
(dp3074
g75
I3
ssg76
g3068
sg69
(lp3075
g1433
asbasbasbag62
(g78
g64
NtRp3076
(dp3077
g67
(dp3078
sg76
g2526
sg69
(lp3079
g62
(g83
g64
NtRp3080
(dp3081
g67
(dp3082
g87
g88
ssg76
g3076
sg69
(lp3083
S'WEB2PY_ORIGINAL_URI'
p3084
asbag62
(g83
g64
NtRp3085
(dp3086
g67
(dp3087
g94
g95
ssg76
g3076
sg69
(lp3088
S':'
asbag62
(g83
g64
NtRp3089
(dp3090
g67
(dp3091
sg76
g3076
sg69
(lp3092
g62
(g63
g64
NtRp3093
(dp3094
g67
(dp3095
g75
I3
ssg76
g3089
sg69
(lp3096
g1217
asbasbasbag62
(g78
g64
NtRp3097
(dp3098
g67
(dp3099
sg76
g2526
sg69
(lp3100
g62
(g83
g64
NtRp3101
(dp3102
g67
(dp3103
g87
g88
ssg76
g3097
sg69
(lp3104
S'wsgi.errors'
p3105
asbag62
(g83
g64
NtRp3106
(dp3107
g67
(dp3108
g94
g95
ssg76
g3097
sg69
(lp3109
S':'
asbag62
(g83
g64
NtRp3110
(dp3111
g67
(dp3112
sg76
g3097
sg69
(lp3113
g62
(g63
g64
NtRp3114
(dp3115
g67
(dp3116
g75
I3
ssg76
g3110
sg69
(lp3117
S"<open file '<stderr>', mode 'w' at 0x0000000001DDE1E0>"
p3118
asbasbasbag62
(g78
g64
NtRp3119
(dp3120
g67
(dp3121
sg76
g2526
sg69
(lp3122
g62
(g83
g64
NtRp3123
(dp3124
g67
(dp3125
g87
g88
ssg76
g3119
sg69
(lp3126
S'wsgi.file_wrapper'
p3127
asbag62
(g83
g64
NtRp3128
(dp3129
g67
(dp3130
g94
g95
ssg76
g3119
sg69
(lp3131
S':'
asbag62
(g83
g64
NtRp3132
(dp3133
g67
(dp3134
sg76
g3119
sg69
(lp3135
g62
(g63
g64
NtRp3136
(dp3137
g67
(dp3138
g75
I3
ssg76
g3132
sg69
(lp3139
S'<class wsgiref.util.FileWrapper at 0x00000000041E25E8>'
p3140
asbasbasbag62
(g78
g64
NtRp3141
(dp3142
g67
(dp3143
sg76
g2526
sg69
(lp3144
g62
(g83
g64
NtRp3145
(dp3146
g67
(dp3147
g87
g88
ssg76
g3141
sg69
(lp3148
S'wsgi.input'
p3149
asbag62
(g83
g64
NtRp3150
(dp3151
g67
(dp3152
g94
g95
ssg76
g3141
sg69
(lp3153
S':'
asbag62
(g83
g64
NtRp3154
(dp3155
g67
(dp3156
sg76
g3141
sg69
(lp3157
g62
(g63
g64
NtRp3158
(dp3159
g67
(dp3160
g75
I3
ssg76
g3154
sg69
(lp3161
S"<open file '<fdopen>', mode 'w+b' at 0x0000000008C11DB0>"
p3162
asbasbasbag62
(g78
g64
NtRp3163
(dp3164
g67
(dp3165
sg76
g2526
sg69
(lp3166
g62
(g83
g64
NtRp3167
(dp3168
g67
(dp3169
g87
g88
ssg76
g3163
sg69
(lp3170
S'wsgi.multiprocess'
p3171
asbag62
(g83
g64
NtRp3172
(dp3173
g67
(dp3174
g94
g95
ssg76
g3163
sg69
(lp3175
S':'
asbag62
(g83
g64
NtRp3176
(dp3177
g67
(dp3178
sg76
g3163
sg69
(lp3179
g62
(g63
g64
NtRp3180
(dp3181
g67
(dp3182
g75
I3
ssg76
g3176
sg69
(lp3183
g105
asbasbasbag62
(g78
g64
NtRp3184
(dp3185
g67
(dp3186
sg76
g2526
sg69
(lp3187
g62
(g83
g64
NtRp3188
(dp3189
g67
(dp3190
g87
g88
ssg76
g3184
sg69
(lp3191
S'wsgi.multithread'
p3192
asbag62
(g83
g64
NtRp3193
(dp3194
g67
(dp3195
g94
g95
ssg76
g3184
sg69
(lp3196
S':'
asbag62
(g83
g64
NtRp3197
(dp3198
g67
(dp3199
sg76
g3184
sg69
(lp3200
g62
(g63
g64
NtRp3201
(dp3202
g67
(dp3203
g75
I3
ssg76
g3197
sg69
(lp3204
g1693
asbasbasbag62
(g78
g64
NtRp3205
(dp3206
g67
(dp3207
sg76
g2526
sg69
(lp3208
g62
(g83
g64
NtRp3209
(dp3210
g67
(dp3211
g87
g88
ssg76
g3205
sg69
(lp3212
S'wsgi.run_once'
p3213
asbag62
(g83
g64
NtRp3214
(dp3215
g67
(dp3216
g94
g95
ssg76
g3205
sg69
(lp3217
S':'
asbag62
(g83
g64
NtRp3218
(dp3219
g67
(dp3220
sg76
g3205
sg69
(lp3221
g62
(g63
g64
NtRp3222
(dp3223
g67
(dp3224
g75
I3
ssg76
g3218
sg69
(lp3225
g105
asbasbasbag62
(g78
g64
NtRp3226
(dp3227
g67
(dp3228
sg76
g2526
sg69
(lp3229
g62
(g83
g64
NtRp3230
(dp3231
g67
(dp3232
g87
g88
ssg76
g3226
sg69
(lp3233
S'wsgi.url_scheme'
p3234
asbag62
(g83
g64
NtRp3235
(dp3236
g67
(dp3237
g94
g95
ssg76
g3226
sg69
(lp3238
S':'
asbag62
(g83
g64
NtRp3239
(dp3240
g67
(dp3241
sg76
g3226
sg69
(lp3242
g62
(g63
g64
NtRp3243
(dp3244
g67
(dp3245
g75
I3
ssg76
g3239
sg69
(lp3246
g1736
asbasbasbag62
(g78
g64
NtRp3247
(dp3248
g67
(dp3249
sg76
g2526
sg69
(lp3250
g62
(g83
g64
NtRp3251
(dp3252
g67
(dp3253
g87
g88
ssg76
g3247
sg69
(lp3254
S'wsgi.version'
p3255
asbag62
(g83
g64
NtRp3256
(dp3257
g67
(dp3258
g94
g95
ssg76
g3247
sg69
(lp3259
S':'
asbag62
(g83
g64
NtRp3260
(dp3261
g67
(dp3262
sg76
g3247
sg69
(lp3263
g62
(g63
g64
NtRp3264
(dp3265
g67
(dp3266
g75
I3
ssg76
g3260
sg69
(lp3267
S'1'
asbasbasbasbasbasbasbasbasbasbasbasbasbsS'frames'
p3268
(lp3269
(dp3270
S'file'
p3271
S'C:\\Users\\admin\\Desktop\\Sathvik\\Tharuni.Org\\gluon\\restricted.py'
p3272
sS'dump'
p3273
(dp3274
S'environment'
p3275
S"{'A': <class 'gluon.html.A'>, 'ALLOW_TOGGLE': 'true', 'A_button': <function A_button>, 'B': <class 'gluon.html.B'>, 'BEAUTIFY': <class 'gluon.html.BEAUTIFY'>, 'BODY': <class 'gluon.html.BODY'>, 'BR': <class 'gluon.html.BR'>, 'BUTTON': <class 'gluon.html.BUTTON'>, 'CAT': <class 'gluon.html.CAT'>, 'CENTER': <class 'gluon.html.CENTER'>, ...}"
p3276
sS'ccode'
p3277
S'<code object <module> at 0000000008E4A230, file ...pplications\\admin\\controllers/wizard.py", line 3>'
p3278
ssS'lnum'
p3279
I209
sS'lines'
p3280
(dp3281
I204
S'    try:'
p3282
sI205
S'        if type(code) == types.CodeType:'
p3283
sI206
S'            ccode = code'
p3284
sI207
S'        else:'
p3285
sI208
S'            ccode = compile2(code,layer)'
p3286
sI209
S'        exec ccode in environment'
p3287
sI210
S'    except HTTP:'
p3288
sI211
S'        raise'
p3289
sI212
S'    except RestrictedError:'
p3290
sI213
S'        # do not encapsulate (obfuscate) the original RestrictedError'
p3291
ssS'call'
p3292
S"(code='# -*- coding: utf-8 -*-\\n\\nimport os, uuid, re, pi...(file)\\n\\n\\n\\nresponse._vars=response._caller(step6)\\n', environment={'A': <class 'gluon.html.A'>, 'ALLOW_TOGGLE': 'true', 'A_button': <function A_button>, 'B': <class 'gluon.html.B'>, 'BEAUTIFY': <class 'gluon.html.BEAUTIFY'>, 'BODY': <class 'gluon.html.BODY'>, 'BR': <class 'gluon.html.BR'>, 'BUTTON': <class 'gluon.html.BUTTON'>, 'CAT': <class 'gluon.html.CAT'>, 'CENTER': <class 'gluon.html.CENTER'>, ...}, layer=r'C:\\Users\\admin\\Desktop\\Sathvik\\Tharuni.Org\\applications\\admin\\controllers/wizard.py')"
p3293
sS'func'
p3294
S'restricted'
p3295
sa(dp3296
g3271
S'C:\\Users\\admin\\Desktop\\Sathvik\\Tharuni.Org\\applications\\admin\\controllers\\wizard.py'
p3297
sg3273
(dp3298
sg3279
I560
sg3280
(dp3299
I549
S"                file.write(make_view(page,session.app.get('page_'+page,'')))"
p3300
sI550
S'            finally:'
p3301
sI551
S'                file.close()'
p3302
sI552
S''
sI553
S'    if options.erase_database:'
p3303
sI554
S"        path = os.path.join(request.folder,'..',app,'databases','*')"
p3304
sI555
S'        for file in glob.glob(path):'
p3305
sI556
S'            os.unlink(file)'
p3306
sI557
S''
sI558
S''
ssg3292
S'()'
p3307
sg3294
S'<module>'
p3308
sa(dp3309
g3271
S'C:\\Users\\admin\\Desktop\\Sathvik\\Tharuni.Org\\gluon\\globals.py'
p3310
sg3273
(dp3311
S'self'
p3312
S'undefined'
p3313
sS'f'
S'<function step6>'
p3314
ssg3279
I186
sg3280
(dp3315
I181
S'        self.menu = []             # used by the default view layout'
p3316
sI182
S'        self.files = []            # used by web2py_ajax.html'
p3317
sI183
S'        self.generic_patterns = [] # patterns to allow generic views'
p3318
sI184
S"        self.delimiters = ('{{','}}')"
p3319
sI185
S'        self._vars = None'
p3320
sI186
S'        self._caller = lambda f: f()'
p3321
sI187
S'        self._view_environment = None'
p3322
sI188
S'        self._custom_commit = None'
p3323
sI189
S'        self._custom_rollback = None'
p3324
sI190
S''
ssg3292
S'(f=<function step6>)'
p3325
sg3294
S'<lambda>'
p3326
sa(dp3327
g3271
S'C:\\Users\\admin\\Desktop\\Sathvik\\Tharuni.Org\\applications\\admin\\controllers\\wizard.py'
p3328
sg3273
(dp3329
S'global create'
p3330
S'<function create>'
p3331
sS'form.vars'
p3332
S"<Storage {'generate_menu': False, 'apply_layout'...': True, 'id': None, 'populate_database': False}>"
p3333
sS'form'
p3334
S'<gluon.sqlhtml.SQLFORM object>'
p3335
ssg3279
I228
sg3280
(dp3336
I224
S'    if form.accepts(request.vars):'
p3337
sI225
S'        if DEMO_MODE:'
p3338
sI226
S"            session.flash = T('Application cannot be generated in demo mode')"
p3339
sI227
S"            redirect(URL('index'))"
p3340
sI228
S'        create(form.vars)'
p3341
sI229
S"        session.flash = 'Application %s created' % app"
p3342
sI230
S"        redirect(URL('generated'))"
p3343
sI231
S'    return dict(step=\'6: Generate app "%s"\' % app,form=form)'
p3344
sI232
S''
sI223
S"        Field('populate_database','boolean',default=True))"
p3345
ssg3292
S'()'
p3346
sg3294
S'step6'
p3347
sa(dp3348
g3271
S'C:\\Users\\admin\\Desktop\\Sathvik\\Tharuni.Org\\applications\\admin\\controllers\\wizard.py'
p3349
sg3273
(dp3350
S'model'
p3351
S"r'C:\\Users\\admin\\Desktop\\Sathvik\\Tharuni.Org\\applications\\admin\\..\\tharuni\\models\\db.py'"
p3352
sS'global fix_db'
p3353
S'<function fix_db>'
p3354
ssg3279
I501
sg3280
(dp3355
I496
S'        finally:'
p3356
sI497
S'            file.close()'
p3357
sI498
S''
sI499
S'    ### customize the auth_user table'
p3358
sI500
S"    model = os.path.join(request.folder,'..',app,'models','db.py')"
p3359
sI501
S'    fix_db(model)'
p3360
sI502
S''
sI503
S'    ### create newapp/models/db_wizard.py'
p3361
sI504
S'    if options.generate_model:'
p3362
sI505
S"        model = os.path.join(request.folder,'..',app,'models','db_wizard.py')"
p3363
ssg3292
S"(options=<Storage {'generate_menu': False, 'apply_layout'...': True, 'id': None, 'populate_database': False}>)"
p3364
sg3294
S'create'
p3365
sa(dp3366
g3271
S'C:\\Users\\admin\\Desktop\\Sathvik\\Tharuni.Org\\applications\\admin\\controllers\\wizard.py'
p3367
sg3273
(dp3368
S'content'
p3369
g3313
sS'global read_file'
p3370
S'<function read_file>'
p3371
sS'filename'
p3372
S"r'C:\\Users\\admin\\Desktop\\Sathvik\\Tharuni.Org\\applications\\admin\\..\\tharuni\\models\\db.py'"
p3373
ssg3279
I368
sg3280
(dp3374
I363
S'        s+="db.define_table(\'%s_archive\',db.%s,Field(\'current_record\',\'reference %s\',readable=False,writable=False))\\n" % (table,table,table)'
p3375
sI364
S'    return s'
p3376
sI365
S''
sI366
S'def fix_db(filename):'
p3377
sI367
S"    params = dict(session.app['params'])"
p3378
sI368
S"    content = read_file(filename,'rb')"
p3379
sI369
S"    if 'auth_user' in session.app['tables']:"
p3380
sI370
S"        auth_user = make_table('auth_user',session.app['table_auth_user'])"
p3381
sI371
S"        content = content.replace('sqlite://storage.sqlite',"
p3382
sI372
S"                                params['database_uri'])"
p3383
ssg3292
S"(filename=r'C:\\Users\\admin\\Desktop\\Sathvik\\Tharuni.Org\\applications\\admin\\..\\tharuni\\models\\db.py')"
p3384
sg3294
S'fix_db'
p3385
sa(dp3386
g3271
S'C:\\Users\\admin\\Desktop\\Sathvik\\Tharuni.Org\\gluon\\fileutils.py'
p3387
sg3273
(dp3388
S'builtinopen'
p3389
S'<built-in function open>'
p3390
sS'filename'
p3391
S"r'C:\\Users\\admin\\Desktop\\Sathvik\\Tharuni.Org\\applications\\admin\\..\\tharuni\\models\\db.py'"
p3392
sS'mode'
p3393
S"'rb'"
p3394
sS'f'
g3313
ssg3279
I55
sg3280
(dp3395
I50
S"    d = datetime.datetime.strptime(m.group('datetime'),'%Y-%m-%d %H:%M:%S')"
p3396
sI51
S'    return (a,b,c,d,s)'
p3397
sI52
S''
sI53
S"def read_file(filename, mode='r'):"
p3398
sI54
S'    "returns content from filename, making sure to close the file explicitly on exit."'
p3399
sI55
S'    f = open(filename, mode)'
p3400
sI56
S'    try:'
p3401
sI57
S'        return f.read()'
p3402
sI58
S'    finally:'
p3403
sI59
S'        f.close()'
p3404
ssg3292
S"(filename=r'C:\\Users\\admin\\Desktop\\Sathvik\\Tharuni.Org\\applications\\admin\\..\\tharuni\\models\\db.py', mode='rb')"
p3405
sg3294
S'read_file'
p3406
sasS'pyver'
p3407
S'Python 2.7.3: C:\\Python27\\python.exe'
p3408
sS'session'
p3409
g62
(g63
g64
NtRp3410
(dp3411
g67
(dp3412
sg69
(lp3413
g62
(g71
g64
NtRp3414
(dp3415
g67
(dp3416
g75
I5
ssg76
Nsg69
(lp3417
g62
(g78
g64
NtRp3418
(dp3419
g67
(dp3420
sg76
g3414
sg69
(lp3421
g62
(g83
g64
NtRp3422
(dp3423
g67
(dp3424
g87
g88
ssg76
g3418
sg69
(lp3425
S'app'
p3426
asbag62
(g83
g64
NtRp3427
(dp3428
g67
(dp3429
g94
g95
ssg76
g3418
sg69
(lp3430
S':'
asbag62
(g83
g64
NtRp3431
(dp3432
g67
(dp3433
sg76
g3418
sg69
(lp3434
g62
(g63
g64
NtRp3435
(dp3436
g67
(dp3437
g75
I5
ssg76
g3431
sg69
(lp3438
g62
(g71
g64
NtRp3439
(dp3440
g67
(dp3441
g75
I4
ssg76
Nsg69
(lp3442
g62
(g78
g64
NtRp3443
(dp3444
g67
(dp3445
sg76
g3439
sg69
(lp3446
g62
(g83
g64
NtRp3447
(dp3448
g67
(dp3449
g87
g88
ssg76
g3443
sg69
(lp3450
S'name'
p3451
asbag62
(g83
g64
NtRp3452
(dp3453
g67
(dp3454
g94
g95
ssg76
g3443
sg69
(lp3455
S':'
asbag62
(g83
g64
NtRp3456
(dp3457
g67
(dp3458
sg76
g3443
sg69
(lp3459
g62
(g63
g64
NtRp3460
(dp3461
g67
(dp3462
g75
I4
ssg76
g3456
sg69
(lp3463
S'tharuni'
p3464
asbasbasbag62
(g78
g64
NtRp3465
(dp3466
g67
(dp3467
sg76
g3439
sg69
(lp3468
g62
(g83
g64
NtRp3469
(dp3470
g67
(dp3471
g87
g88
ssg76
g3465
sg69
(lp3472
S'page_error'
p3473
asbag62
(g83
g64
NtRp3474
(dp3475
g67
(dp3476
g94
g95
ssg76
g3465
sg69
(lp3477
S':'
asbag62
(g83
g64
NtRp3478
(dp3479
g67
(dp3480
sg76
g3465
sg69
(lp3481
g62
(g63
g64
NtRp3482
(dp3483
g67
(dp3484
g75
I4
ssg76
g3478
sg69
(lp3485
S'# Error: the document does not exist'
p3486
asbasbasbag62
(g78
g64
NtRp3487
(dp3488
g67
(dp3489
sg76
g3439
sg69
(lp3490
g62
(g83
g64
NtRp3491
(dp3492
g67
(dp3493
g87
g88
ssg76
g3487
sg69
(lp3494
S'page_index'
p3495
asbag62
(g83
g64
NtRp3496
(dp3497
g67
(dp3498
g94
g95
ssg76
g3487
sg69
(lp3499
S':'
asbag62
(g83
g64
NtRp3500
(dp3501
g67
(dp3502
sg76
g3487
sg69
(lp3503
g62
(g63
g64
NtRp3504
(dp3505
g67
(dp3506
g75
I4
ssg76
g3500
sg69
(lp3507
S'# Welcome to my new app'
p3508
asbasbasbag62
(g78
g64
NtRp3509
(dp3510
g67
(dp3511
sg76
g3439
sg69
(lp3512
g62
(g83
g64
NtRp3513
(dp3514
g67
(dp3515
g87
g88
ssg76
g3509
sg69
(lp3516
S'pages'
p3517
asbag62
(g83
g64
NtRp3518
(dp3519
g67
(dp3520
g94
g95
ssg76
g3509
sg69
(lp3521
S':'
asbag62
(g83
g64
NtRp3522
(dp3523
g67
(dp3524
sg76
g3509
sg69
(lp3525
g62
(g63
g64
NtRp3526
(dp3527
g67
(dp3528
g75
I4
ssg76
g3522
sg69
(lp3529
g62
(g71
g64
NtRp3530
(dp3531
g67
(dp3532
g75
I3
ssg76
Nsg69
(lp3533
sbasbasbasbag62
(g78
g64
NtRp3534
(dp3535
g67
(dp3536
sg76
g3439
sg69
(lp3537
g62
(g83
g64
NtRp3538
(dp3539
g67
(dp3540
g87
g88
ssg76
g3534
sg69
(lp3541
S'params'
p3542
asbag62
(g83
g64
NtRp3543
(dp3544
g67
(dp3545
g94
g95
ssg76
g3534
sg69
(lp3546
S':'
asbag62
(g83
g64
NtRp3547
(dp3548
g67
(dp3549
sg76
g3534
sg69
(lp3550
g62
(g63
g64
NtRp3551
(dp3552
g67
(dp3553
g75
I4
ssg76
g3547
sg69
(lp3554
g62
(g71
g64
NtRp3555
(dp3556
g67
(dp3557
g75
I3
ssg76
Nsg69
(lp3558
g62
(g78
g64
NtRp3559
(dp3560
g67
(dp3561
sg76
g3555
sg69
(lp3562
g62
(g83
g64
NtRp3563
(dp3564
g67
(dp3565
sg76
g3559
sg69
(lp3566
g62
(g63
g64
NtRp3567
(dp3568
g67
(dp3569
g75
I3
ssg76
g3563
sg69
(lp3570
g62
(g71
g64
NtRp3571
(dp3572
g67
(dp3573
g75
I2
ssg76
Nsg69
(lp3574
g62
(g78
g64
NtRp3575
(dp3576
g67
(dp3577
sg76
g3571
sg69
(lp3578
g62
(g83
g64
NtRp3579
(dp3580
g67
(dp3581
sg76
g3575
sg69
(lp3582
g62
(g63
g64
NtRp3583
(dp3584
g67
(dp3585
g75
I2
ssg76
g3579
sg69
(lp3586
S'title'
p3587
asbasbasbag62
(g78
g64
NtRp3588
(dp3589
g67
(dp3590
sg76
g3571
sg69
(lp3591
g62
(g83
g64
NtRp3592
(dp3593
g67
(dp3594
sg76
g3588
sg69
(lp3595
g62
(g63
g64
NtRp3596
(dp3597
g67
(dp3598
g75
I2
ssg76
g3592
sg69
(lp3599
S'Tharuni'
p3600
asbasbasbasbasbasbasbag62
(g78
g64
NtRp3601
(dp3602
g67
(dp3603
sg76
g3555
sg69
(lp3604
g62
(g83
g64
NtRp3605
(dp3606
g67
(dp3607
sg76
g3601
sg69
(lp3608
g62
(g63
g64
NtRp3609
(dp3610
g67
(dp3611
g75
I3
ssg76
g3605
sg69
(lp3612
g62
(g71
g64
NtRp3613
(dp3614
g67
(dp3615
g75
I2
ssg76
Nsg69
(lp3616
g62
(g78
g64
NtRp3617
(dp3618
g67
(dp3619
sg76
g3613
sg69
(lp3620
g62
(g83
g64
NtRp3621
(dp3622
g67
(dp3623
sg76
g3617
sg69
(lp3624
g62
(g63
g64
NtRp3625
(dp3626
g67
(dp3627
g75
I2
ssg76
g3621
sg69
(lp3628
S'subtitle'
p3629
asbasbasbag62
(g78
g64
NtRp3630
(dp3631
g67
(dp3632
sg76
g3613
sg69
(lp3633
g62
(g83
g64
NtRp3634
(dp3635
g67
(dp3636
sg76
g3630
sg69
(lp3637
g62
(g63
g64
NtRp3638
(dp3639
g67
(dp3640
g75
I2
ssg76
g3634
sg69
(lp3641
S'Working towards Empowerment of Adolescent Girls Women and the Aged'
p3642
asbasbasbasbasbasbasbag62
(g78
g64
NtRp3643
(dp3644
g67
(dp3645
sg76
g3555
sg69
(lp3646
g62
(g83
g64
NtRp3647
(dp3648
g67
(dp3649
sg76
g3643
sg69
(lp3650
g62
(g63
g64
NtRp3651
(dp3652
g67
(dp3653
g75
I3
ssg76
g3647
sg69
(lp3654
g62
(g71
g64
NtRp3655
(dp3656
g67
(dp3657
g75
I2
ssg76
Nsg69
(lp3658
g62
(g78
g64
NtRp3659
(dp3660
g67
(dp3661
sg76
g3655
sg69
(lp3662
g62
(g83
g64
NtRp3663
(dp3664
g67
(dp3665
sg76
g3659
sg69
(lp3666
g62
(g63
g64
NtRp3667
(dp3668
g67
(dp3669
g75
I2
ssg76
g3663
sg69
(lp3670
S'author'
p3671
asbasbasbag62
(g78
g64
NtRp3672
(dp3673
g67
(dp3674
sg76
g3655
sg69
(lp3675
g62
(g83
g64
NtRp3676
(dp3677
g67
(dp3678
sg76
g3672
sg69
(lp3679
g62
(g63
g64
NtRp3680
(dp3681
g67
(dp3682
g75
I2
ssg76
g3676
sg69
(lp3683
S"Doers' Guild"
p3684
asbasbasbasbasbasbasbag62
(g78
g64
NtRp3685
(dp3686
g67
(dp3687
sg76
g3555
sg69
(lp3688
g62
(g83
g64
NtRp3689
(dp3690
g67
(dp3691
sg76
g3685
sg69
(lp3692
g62
(g63
g64
NtRp3693
(dp3694
g67
(dp3695
g75
I3
ssg76
g3689
sg69
(lp3696
g62
(g71
g64
NtRp3697
(dp3698
g67
(dp3699
g75
I2
ssg76
Nsg69
(lp3700
g62
(g78
g64
NtRp3701
(dp3702
g67
(dp3703
sg76
g3697
sg69
(lp3704
g62
(g83
g64
NtRp3705
(dp3706
g67
(dp3707
sg76
g3701
sg69
(lp3708
g62
(g63
g64
NtRp3709
(dp3710
g67
(dp3711
g75
I2
ssg76
g3705
sg69
(lp3712
S'author_email'
p3713
asbasbasbag62
(g78
g64
NtRp3714
(dp3715
g67
(dp3716
sg76
g3697
sg69
(lp3717
g62
(g83
g64
NtRp3718
(dp3719
g67
(dp3720
sg76
g3714
sg69
(lp3721
g62
(g63
g64
NtRp3722
(dp3723
g67
(dp3724
g75
I2
ssg76
g3718
sg69
(lp3725
S'mail@doersguild.com'
p3726
asbasbasbasbasbasbasbag62
(g78
g64
NtRp3727
(dp3728
g67
(dp3729
sg76
g3555
sg69
(lp3730
g62
(g83
g64
NtRp3731
(dp3732
g67
(dp3733
sg76
g3727
sg69
(lp3734
g62
(g63
g64
NtRp3735
(dp3736
g67
(dp3737
g75
I3
ssg76
g3731
sg69
(lp3738
g62
(g71
g64
NtRp3739
(dp3740
g67
(dp3741
g75
I2
ssg76
Nsg69
(lp3742
g62
(g78
g64
NtRp3743
(dp3744
g67
(dp3745
sg76
g3739
sg69
(lp3746
g62
(g83
g64
NtRp3747
(dp3748
g67
(dp3749
sg76
g3743
sg69
(lp3750
g62
(g63
g64
NtRp3751
(dp3752
g67
(dp3753
g75
I2
ssg76
g3747
sg69
(lp3754
S'keywords'
p3755
asbasbasbag62
(g78
g64
NtRp3756
(dp3757
g67
(dp3758
sg76
g3739
sg69
(lp3759
g62
(g83
g64
NtRp3760
(dp3761
g67
(dp3762
sg76
g3756
sg69
(lp3763
g62
(g63
g64
NtRp3764
(dp3765
g67
(dp3766
g75
I2
ssg76
g3760
sg69
(lp3767
S''
asbasbasbasbasbasbasbag62
(g78
g64
NtRp3768
(dp3769
g67
(dp3770
sg76
g3555
sg69
(lp3771
g62
(g83
g64
NtRp3772
(dp3773
g67
(dp3774
sg76
g3768
sg69
(lp3775
g62
(g63
g64
NtRp3776
(dp3777
g67
(dp3778
g75
I3
ssg76
g3772
sg69
(lp3779
g62
(g71
g64
NtRp3780
(dp3781
g67
(dp3782
g75
I2
ssg76
Nsg69
(lp3783
g62
(g78
g64
NtRp3784
(dp3785
g67
(dp3786
sg76
g3780
sg69
(lp3787
g62
(g83
g64
NtRp3788
(dp3789
g67
(dp3790
sg76
g3784
sg69
(lp3791
g62
(g63
g64
NtRp3792
(dp3793
g67
(dp3794
g75
I2
ssg76
g3788
sg69
(lp3795
S'description'
p3796
asbasbasbag62
(g78
g64
NtRp3797
(dp3798
g67
(dp3799
sg76
g3780
sg69
(lp3800
g62
(g83
g64
NtRp3801
(dp3802
g67
(dp3803
sg76
g3797
sg69
(lp3804
g62
(g63
g64
NtRp3805
(dp3806
g67
(dp3807
g75
I2
ssg76
g3801
sg69
(lp3808
S'A Non-Profit Working towards Empowerment of Adolescent Girls Women and the Aged'
p3809
asbasbasbasbasbasbasbag62
(g78
g64
NtRp3810
(dp3811
g67
(dp3812
sg76
g3555
sg69
(lp3813
g62
(g83
g64
NtRp3814
(dp3815
g67
(dp3816
sg76
g3810
sg69
(lp3817
g62
(g63
g64
NtRp3818
(dp3819
g67
(dp3820
g75
I3
ssg76
g3814
sg69
(lp3821
g62
(g71
g64
NtRp3822
(dp3823
g67
(dp3824
g75
I2
ssg76
Nsg69
(lp3825
g62
(g78
g64
NtRp3826
(dp3827
g67
(dp3828
sg76
g3822
sg69
(lp3829
g62
(g83
g64
NtRp3830
(dp3831
g67
(dp3832
sg76
g3826
sg69
(lp3833
g62
(g63
g64
NtRp3834
(dp3835
g67
(dp3836
g75
I2
ssg76
g3830
sg69
(lp3837
S'layout_theme'
p3838
asbasbasbag62
(g78
g64
NtRp3839
(dp3840
g67
(dp3841
sg76
g3822
sg69
(lp3842
g62
(g83
g64
NtRp3843
(dp3844
g67
(dp3845
sg76
g3839
sg69
(lp3846
g62
(g63
g64
NtRp3847
(dp3848
g67
(dp3849
g75
I2
ssg76
g3843
sg69
(lp3850
S'BlueStatic'
p3851
asbasbasbasbasbasbasbag62
(g78
g64
NtRp3852
(dp3853
g67
(dp3854
sg76
g3555
sg69
(lp3855
g62
(g83
g64
NtRp3856
(dp3857
g67
(dp3858
sg76
g3852
sg69
(lp3859
g62
(g63
g64
NtRp3860
(dp3861
g67
(dp3862
g75
I3
ssg76
g3856
sg69
(lp3863
g62
(g71
g64
NtRp3864
(dp3865
g67
(dp3866
g75
I2
ssg76
Nsg69
(lp3867
g62
(g78
g64
NtRp3868
(dp3869
g67
(dp3870
sg76
g3864
sg69
(lp3871
g62
(g83
g64
NtRp3872
(dp3873
g67
(dp3874
sg76
g3868
sg69
(lp3875
g62
(g63
g64
NtRp3876
(dp3877
g67
(dp3878
g75
I2
ssg76
g3872
sg69
(lp3879
S'database_uri'
p3880
asbasbasbag62
(g78
g64
NtRp3881
(dp3882
g67
(dp3883
sg76
g3864
sg69
(lp3884
g62
(g83
g64
NtRp3885
(dp3886
g67
(dp3887
sg76
g3881
sg69
(lp3888
g62
(g63
g64
NtRp3889
(dp3890
g67
(dp3891
g75
I2
ssg76
g3885
sg69
(lp3892
S'sqlite://storage.sqlite'
p3893
asbasbasbasbasbasbasbag62
(g78
g64
NtRp3894
(dp3895
g67
(dp3896
sg76
g3555
sg69
(lp3897
g62
(g83
g64
NtRp3898
(dp3899
g67
(dp3900
sg76
g3894
sg69
(lp3901
g62
(g63
g64
NtRp3902
(dp3903
g67
(dp3904
g75
I3
ssg76
g3898
sg69
(lp3905
g62
(g71
g64
NtRp3906
(dp3907
g67
(dp3908
g75
I2
ssg76
Nsg69
(lp3909
g62
(g78
g64
NtRp3910
(dp3911
g67
(dp3912
sg76
g3906
sg69
(lp3913
g62
(g83
g64
NtRp3914
(dp3915
g67
(dp3916
sg76
g3910
sg69
(lp3917
g62
(g63
g64
NtRp3918
(dp3919
g67
(dp3920
g75
I2
ssg76
g3914
sg69
(lp3921
S'security_key'
p3922
asbasbasbag62
(g78
g64
NtRp3923
(dp3924
g67
(dp3925
sg76
g3906
sg69
(lp3926
g62
(g83
g64
NtRp3927
(dp3928
g67
(dp3929
sg76
g3923
sg69
(lp3930
g62
(g63
g64
NtRp3931
(dp3932
g67
(dp3933
g75
I2
ssg76
g3927
sg69
(lp3934
S'f6dbea65-c4fd-4fb4-a8ad-aea0d551aee6'
p3935
asbasbasbasbasbasbasbag62
(g78
g64
NtRp3936
(dp3937
g67
(dp3938
sg76
g3555
sg69
(lp3939
g62
(g83
g64
NtRp3940
(dp3941
g67
(dp3942
sg76
g3936
sg69
(lp3943
g62
(g63
g64
NtRp3944
(dp3945
g67
(dp3946
g75
I3
ssg76
g3940
sg69
(lp3947
g62
(g71
g64
NtRp3948
(dp3949
g67
(dp3950
g75
I2
ssg76
Nsg69
(lp3951
g62
(g78
g64
NtRp3952
(dp3953
g67
(dp3954
sg76
g3948
sg69
(lp3955
g62
(g83
g64
NtRp3956
(dp3957
g67
(dp3958
sg76
g3952
sg69
(lp3959
g62
(g63
g64
NtRp3960
(dp3961
g67
(dp3962
g75
I2
ssg76
g3956
sg69
(lp3963
S'email_server'
p3964
asbasbasbag62
(g78
g64
NtRp3965
(dp3966
g67
(dp3967
sg76
g3948
sg69
(lp3968
g62
(g83
g64
NtRp3969
(dp3970
g67
(dp3971
sg76
g3965
sg69
(lp3972
g62
(g63
g64
NtRp3973
(dp3974
g67
(dp3975
g75
I2
ssg76
g3969
sg69
(lp3976
S'localhost'
p3977
asbasbasbasbasbasbasbag62
(g78
g64
NtRp3978
(dp3979
g67
(dp3980
sg76
g3555
sg69
(lp3981
g62
(g83
g64
NtRp3982
(dp3983
g67
(dp3984
sg76
g3978
sg69
(lp3985
g62
(g63
g64
NtRp3986
(dp3987
g67
(dp3988
g75
I3
ssg76
g3982
sg69
(lp3989
g62
(g71
g64
NtRp3990
(dp3991
g67
(dp3992
g75
I2
ssg76
Nsg69
(lp3993
g62
(g78
g64
NtRp3994
(dp3995
g67
(dp3996
sg76
g3990
sg69
(lp3997
g62
(g83
g64
NtRp3998
(dp3999
g67
(dp4000
sg76
g3994
sg69
(lp4001
g62
(g63
g64
NtRp4002
(dp4003
g67
(dp4004
g75
I2
ssg76
g3998
sg69
(lp4005
S'email_sender'
p4006
asbasbasbag62
(g78
g64
NtRp4007
(dp4008
g67
(dp4009
sg76
g3990
sg69
(lp4010
g62
(g83
g64
NtRp4011
(dp4012
g67
(dp4013
sg76
g4007
sg69
(lp4014
g62
(g63
g64
NtRp4015
(dp4016
g67
(dp4017
g75
I2
ssg76
g4011
sg69
(lp4018
S'you@example.com'
p4019
asbasbasbasbasbasbasbag62
(g78
g64
NtRp4020
(dp4021
g67
(dp4022
sg76
g3555
sg69
(lp4023
g62
(g83
g64
NtRp4024
(dp4025
g67
(dp4026
sg76
g4020
sg69
(lp4027
g62
(g63
g64
NtRp4028
(dp4029
g67
(dp4030
g75
I3
ssg76
g4024
sg69
(lp4031
g62
(g71
g64
NtRp4032
(dp4033
g67
(dp4034
g75
I2
ssg76
Nsg69
(lp4035
g62
(g78
g64
NtRp4036
(dp4037
g67
(dp4038
sg76
g4032
sg69
(lp4039
g62
(g83
g64
NtRp4040
(dp4041
g67
(dp4042
sg76
g4036
sg69
(lp4043
g62
(g63
g64
NtRp4044
(dp4045
g67
(dp4046
g75
I2
ssg76
g4040
sg69
(lp4047
S'email_login'
p4048
asbasbasbag62
(g78
g64
NtRp4049
(dp4050
g67
(dp4051
sg76
g4032
sg69
(lp4052
g62
(g83
g64
NtRp4053
(dp4054
g67
(dp4055
sg76
g4049
sg69
(lp4056
g62
(g63
g64
NtRp4057
(dp4058
g67
(dp4059
g75
I2
ssg76
g4053
sg69
(lp4060
S''
asbasbasbasbasbasbasbag62
(g78
g64
NtRp4061
(dp4062
g67
(dp4063
sg76
g3555
sg69
(lp4064
g62
(g83
g64
NtRp4065
(dp4066
g67
(dp4067
sg76
g4061
sg69
(lp4068
g62
(g63
g64
NtRp4069
(dp4070
g67
(dp4071
g75
I3
ssg76
g4065
sg69
(lp4072
g62
(g71
g64
NtRp4073
(dp4074
g67
(dp4075
g75
I2
ssg76
Nsg69
(lp4076
g62
(g78
g64
NtRp4077
(dp4078
g67
(dp4079
sg76
g4073
sg69
(lp4080
g62
(g83
g64
NtRp4081
(dp4082
g67
(dp4083
sg76
g4077
sg69
(lp4084
g62
(g63
g64
NtRp4085
(dp4086
g67
(dp4087
g75
I2
ssg76
g4081
sg69
(lp4088
S'login_method'
p4089
asbasbasbag62
(g78
g64
NtRp4090
(dp4091
g67
(dp4092
sg76
g4073
sg69
(lp4093
g62
(g83
g64
NtRp4094
(dp4095
g67
(dp4096
sg76
g4090
sg69
(lp4097
g62
(g63
g64
NtRp4098
(dp4099
g67
(dp4100
g75
I2
ssg76
g4094
sg69
(lp4101
S'local'
p4102
asbasbasbasbasbasbasbag62
(g78
g64
NtRp4103
(dp4104
g67
(dp4105
sg76
g3555
sg69
(lp4106
g62
(g83
g64
NtRp4107
(dp4108
g67
(dp4109
sg76
g4103
sg69
(lp4110
g62
(g63
g64
NtRp4111
(dp4112
g67
(dp4113
g75
I3
ssg76
g4107
sg69
(lp4114
g62
(g71
g64
NtRp4115
(dp4116
g67
(dp4117
g75
I2
ssg76
Nsg69
(lp4118
g62
(g78
g64
NtRp4119
(dp4120
g67
(dp4121
sg76
g4115
sg69
(lp4122
g62
(g83
g64
NtRp4123
(dp4124
g67
(dp4125
sg76
g4119
sg69
(lp4126
g62
(g63
g64
NtRp4127
(dp4128
g67
(dp4129
g75
I2
ssg76
g4123
sg69
(lp4130
S'login_config'
p4131
asbasbasbag62
(g78
g64
NtRp4132
(dp4133
g67
(dp4134
sg76
g4115
sg69
(lp4135
g62
(g83
g64
NtRp4136
(dp4137
g67
(dp4138
sg76
g4132
sg69
(lp4139
g62
(g63
g64
NtRp4140
(dp4141
g67
(dp4142
g75
I2
ssg76
g4136
sg69
(lp4143
S''
asbasbasbasbasbasbasbag62
(g78
g64
NtRp4144
(dp4145
g67
(dp4146
sg76
g3555
sg69
(lp4147
g62
(g83
g64
NtRp4148
(dp4149
g67
(dp4150
sg76
g4144
sg69
(lp4151
g62
(g63
g64
NtRp4152
(dp4153
g67
(dp4154
g75
I3
ssg76
g4148
sg69
(lp4155
g62
(g71
g64
NtRp4156
(dp4157
g67
(dp4158
g75
I2
ssg76
Nsg69
(lp4159
g62
(g78
g64
NtRp4160
(dp4161
g67
(dp4162
sg76
g4156
sg69
(lp4163
g62
(g83
g64
NtRp4164
(dp4165
g67
(dp4166
sg76
g4160
sg69
(lp4167
g62
(g63
g64
NtRp4168
(dp4169
g67
(dp4170
g75
I2
ssg76
g4164
sg69
(lp4171
S'plugins'
p4172
asbasbasbag62
(g78
g64
NtRp4173
(dp4174
g67
(dp4175
sg76
g4156
sg69
(lp4176
g62
(g83
g64
NtRp4177
(dp4178
g67
(dp4179
sg76
g4173
sg69
(lp4180
g62
(g63
g64
NtRp4181
(dp4182
g67
(dp4183
g75
I2
ssg76
g4177
sg69
(lp4184
g62
(g71
g64
NtRp4185
(dp4186
g67
(dp4187
g75
I1
ssg76
Nsg69
(lp4188
sbasbasbasbasbasbasbasbasbasbasbasbag62
(g78
g64
NtRp4189
(dp4190
g67
(dp4191
sg76
g3439
sg69
(lp4192
g62
(g83
g64
NtRp4193
(dp4194
g67
(dp4195
g87
g88
ssg76
g4189
sg69
(lp4196
S'table_auth_user'
p4197
asbag62
(g83
g64
NtRp4198
(dp4199
g67
(dp4200
g94
g95
ssg76
g4189
sg69
(lp4201
S':'
asbag62
(g83
g64
NtRp4202
(dp4203
g67
(dp4204
sg76
g4189
sg69
(lp4205
g62
(g63
g64
NtRp4206
(dp4207
g67
(dp4208
g75
I4
ssg76
g4202
sg69
(lp4209
g62
(g71
g64
NtRp4210
(dp4211
g67
(dp4212
g75
I3
ssg76
Nsg69
(lp4213
g62
(g78
g64
NtRp4214
(dp4215
g67
(dp4216
sg76
g4210
sg69
(lp4217
g62
(g83
g64
NtRp4218
(dp4219
g67
(dp4220
sg76
g4214
sg69
(lp4221
g62
(g63
g64
NtRp4222
(dp4223
g67
(dp4224
g75
I3
ssg76
g4218
sg69
(lp4225
S'username'
p4226
asbasbasbag62
(g78
g64
NtRp4227
(dp4228
g67
(dp4229
sg76
g4210
sg69
(lp4230
g62
(g83
g64
NtRp4231
(dp4232
g67
(dp4233
sg76
g4227
sg69
(lp4234
g62
(g63
g64
NtRp4235
(dp4236
g67
(dp4237
g75
I3
ssg76
g4231
sg69
(lp4238
S'first_name'
p4239
asbasbasbag62
(g78
g64
NtRp4240
(dp4241
g67
(dp4242
sg76
g4210
sg69
(lp4243
g62
(g83
g64
NtRp4244
(dp4245
g67
(dp4246
sg76
g4240
sg69
(lp4247
g62
(g63
g64
NtRp4248
(dp4249
g67
(dp4250
g75
I3
ssg76
g4244
sg69
(lp4251
S'last_name'
p4252
asbasbasbag62
(g78
g64
NtRp4253
(dp4254
g67
(dp4255
sg76
g4210
sg69
(lp4256
g62
(g83
g64
NtRp4257
(dp4258
g67
(dp4259
sg76
g4253
sg69
(lp4260
g62
(g63
g64
NtRp4261
(dp4262
g67
(dp4263
g75
I3
ssg76
g4257
sg69
(lp4264
S'email'
p4265
asbasbasbag62
(g78
g64
NtRp4266
(dp4267
g67
(dp4268
sg76
g4210
sg69
(lp4269
g62
(g83
g64
NtRp4270
(dp4271
g67
(dp4272
sg76
g4266
sg69
(lp4273
g62
(g63
g64
NtRp4274
(dp4275
g67
(dp4276
g75
I3
ssg76
g4270
sg69
(lp4277
S'password'
p4278
asbasbasbasbasbasbasbag62
(g78
g64
NtRp4279
(dp4280
g67
(dp4281
sg76
g3439
sg69
(lp4282
g62
(g83
g64
NtRp4283
(dp4284
g67
(dp4285
g87
g88
ssg76
g4279
sg69
(lp4286
S'tables'
p4287
asbag62
(g83
g64
NtRp4288
(dp4289
g67
(dp4290
g94
g95
ssg76
g4279
sg69
(lp4291
S':'
asbag62
(g83
g64
NtRp4292
(dp4293
g67
(dp4294
sg76
g4279
sg69
(lp4295
g62
(g63
g64
NtRp4296
(dp4297
g67
(dp4298
g75
I4
ssg76
g4292
sg69
(lp4299
g62
(g71
g64
NtRp4300
(dp4301
g67
(dp4302
g75
I3
ssg76
Nsg69
(lp4303
sbasbasbasbasbasbasbasbag62
(g78
g64
NtRp4304
(dp4305
g67
(dp4306
sg76
g3414
sg69
(lp4307
g62
(g83
g64
NtRp4308
(dp4309
g67
(dp4310
g87
g88
ssg76
g4304
sg69
(lp4311
S'authorized'
p4312
asbag62
(g83
g64
NtRp4313
(dp4314
g67
(dp4315
g94
g95
ssg76
g4304
sg69
(lp4316
S':'
asbag62
(g83
g64
NtRp4317
(dp4318
g67
(dp4319
sg76
g4304
sg69
(lp4320
g62
(g63
g64
NtRp4321
(dp4322
g67
(dp4323
g75
I5
ssg76
g4317
sg69
(lp4324
g1693
asbasbasbag62
(g78
g64
NtRp4325
(dp4326
g67
(dp4327
sg76
g3414
sg69
(lp4328
g62
(g83
g64
NtRp4329
(dp4330
g67
(dp4331
g87
g88
ssg76
g4325
sg69
(lp4332
S'check_version'
p4333
asbag62
(g83
g64
NtRp4334
(dp4335
g67
(dp4336
g94
g95
ssg76
g4325
sg69
(lp4337
S':'
asbag62
(g83
g64
NtRp4338
(dp4339
g67
(dp4340
sg76
g4325
sg69
(lp4341
g62
(g63
g64
NtRp4342
(dp4343
g67
(dp4344
g75
I5
ssg76
g4338
sg69
(lp4345
g105
asbasbasbag62
(g78
g64
NtRp4346
(dp4347
g67
(dp4348
sg76
g3414
sg69
(lp4349
g62
(g83
g64
NtRp4350
(dp4351
g67
(dp4352
g87
g88
ssg76
g4346
sg69
(lp4353
S'flash'
p4354
asbag62
(g83
g64
NtRp4355
(dp4356
g67
(dp4357
g94
g95
ssg76
g4346
sg69
(lp4358
S':'
asbag62
(g83
g64
NtRp4359
(dp4360
g67
(dp4361
sg76
g4346
sg69
(lp4362
g62
(g63
g64
NtRp4363
(dp4364
g67
(dp4365
g75
I5
ssg76
g4359
sg69
(lp4366
S'None'
p4367
asbasbasbag62
(g78
g64
NtRp4368
(dp4369
g67
(dp4370
sg76
g3414
sg69
(lp4371
g62
(g83
g64
NtRp4372
(dp4373
g67
(dp4374
g87
g88
ssg76
g4368
sg69
(lp4375
S'last_time'
p4376
asbag62
(g83
g64
NtRp4377
(dp4378
g67
(dp4379
g94
g95
ssg76
g4368
sg69
(lp4380
S':'
asbag62
(g83
g64
NtRp4381
(dp4382
g67
(dp4383
sg76
g4368
sg69
(lp4384
g62
(g63
g64
NtRp4385
(dp4386
g67
(dp4387
g75
I5
ssg76
g4381
sg69
(lp4388
S'1350210367.476'
p4389
asbasbasbag62
(g78
g64
NtRp4390
(dp4391
g67
(dp4392
sg76
g3414
sg69
(lp4393
g62
(g83
g64
NtRp4394
(dp4395
g67
(dp4396
g87
g88
ssg76
g4390
sg69
(lp4397
S'pam_user'
p4398
asbag62
(g83
g64
NtRp4399
(dp4400
g67
(dp4401
g94
g95
ssg76
g4390
sg69
(lp4402
S':'
asbag62
(g83
g64
NtRp4403
(dp4404
g67
(dp4405
sg76
g4390
sg69
(lp4406
g62
(g63
g64
NtRp4407
(dp4408
g67
(dp4409
g75
I5
ssg76
g4403
sg69
(lp4410
S'None'
p4411
asbasbasbag62
(g78
g64
NtRp4412
(dp4413
g67
(dp4414
sg76
g3414
sg69
(lp4415
g62
(g83
g64
NtRp4416
(dp4417
g67
(dp4418
g87
g88
ssg76
g4412
sg69
(lp4419
S'plugins'
p4420
asbag62
(g83
g64
NtRp4421
(dp4422
g67
(dp4423
g94
g95
ssg76
g4412
sg69
(lp4424
S':'
asbag62
(g83
g64
NtRp4425
(dp4426
g67
(dp4427
sg76
g4412
sg69
(lp4428
g62
(g63
g64
NtRp4429
(dp4430
g67
(dp4431
g75
I5
ssg76
g4425
sg69
(lp4432
g62
(g71
g64
NtRp4433
(dp4434
g67
(dp4435
g75
I4
ssg76
Nsg69
(lp4436
g62
(g78
g64
NtRp4437
(dp4438
g67
(dp4439
sg76
g4433
sg69
(lp4440
g62
(g83
g64
NtRp4441
(dp4442
g67
(dp4443
sg76
g4437
sg69
(lp4444
g62
(g63
g64
NtRp4445
(dp4446
g67
(dp4447
g75
I4
ssg76
g4441
sg69
(lp4448
S'web2py.plugin.attachments.w2p'
p4449
asbasbasbag62
(g78
g64
NtRp4450
(dp4451
g67
(dp4452
sg76
g4433
sg69
(lp4453
g62
(g83
g64
NtRp4454
(dp4455
g67
(dp4456
sg76
g4450
sg69
(lp4457
g62
(g63
g64
NtRp4458
(dp4459
g67
(dp4460
g75
I4
ssg76
g4454
sg69
(lp4461
S'web2py.plugin.datatable.w2p'
p4462
asbasbasbag62
(g78
g64
NtRp4463
(dp4464
g67
(dp4465
sg76
g4433
sg69
(lp4466
g62
(g83
g64
NtRp4467
(dp4468
g67
(dp4469
sg76
g4463
sg69
(lp4470
g62
(g63
g64
NtRp4471
(dp4472
g67
(dp4473
g75
I4
ssg76
g4467
sg69
(lp4474
S'web2py.plugin.dropdown.w2p'
p4475
asbasbasbag62
(g78
g64
NtRp4476
(dp4477
g67
(dp4478
sg76
g4433
sg69
(lp4479
g62
(g83
g64
NtRp4480
(dp4481
g67
(dp4482
sg76
g4476
sg69
(lp4483
g62
(g63
g64
NtRp4484
(dp4485
g67
(dp4486
g75
I4
ssg76
g4480
sg69
(lp4487
S'web2py.plugin.wiki.w2p'
p4488
asbasbasbag62
(g78
g64
NtRp4489
(dp4490
g67
(dp4491
sg76
g4433
sg69
(lp4492
g62
(g83
g64
NtRp4493
(dp4494
g67
(dp4495
sg76
g4489
sg69
(lp4496
g62
(g63
g64
NtRp4497
(dp4498
g67
(dp4499
g75
I4
ssg76
g4493
sg69
(lp4500
S'web2py.plugin.comments.w2p'
p4501
asbasbasbag62
(g78
g64
NtRp4502
(dp4503
g67
(dp4504
sg76
g4433
sg69
(lp4505
g62
(g83
g64
NtRp4506
(dp4507
g67
(dp4508
sg76
g4502
sg69
(lp4509
g62
(g63
g64
NtRp4510
(dp4511
g67
(dp4512
g75
I4
ssg76
g4506
sg69
(lp4513
S'web2py.plugin.locking.w2p'
p4514
asbasbasbag62
(g78
g64
NtRp4515
(dp4516
g67
(dp4517
sg76
g4433
sg69
(lp4518
g62
(g83
g64
NtRp4519
(dp4520
g67
(dp4521
sg76
g4515
sg69
(lp4522
g62
(g63
g64
NtRp4523
(dp4524
g67
(dp4525
g75
I4
ssg76
g4519
sg69
(lp4526
S'web2py.plugin.mmodal.w2p'
p4527
asbasbasbag62
(g78
g64
NtRp4528
(dp4529
g67
(dp4530
sg76
g4433
sg69
(lp4531
g62
(g83
g64
NtRp4532
(dp4533
g67
(dp4534
sg76
g4528
sg69
(lp4535
g62
(g63
g64
NtRp4536
(dp4537
g67
(dp4538
g75
I4
ssg76
g4532
sg69
(lp4539
S'web2py.plugin.jqmobile.w2p'
p4540
asbasbasbag62
(g78
g64
NtRp4541
(dp4542
g67
(dp4543
sg76
g4433
sg69
(lp4544
g62
(g83
g64
NtRp4545
(dp4546
g67
(dp4547
sg76
g4541
sg69
(lp4548
g62
(g63
g64
NtRp4549
(dp4550
g67
(dp4551
g75
I4
ssg76
g4545
sg69
(lp4552
S'web2py.plugin.google_checkout.w2p'
p4553
asbasbasbag62
(g78
g64
NtRp4554
(dp4555
g67
(dp4556
sg76
g4433
sg69
(lp4557
g62
(g83
g64
NtRp4558
(dp4559
g67
(dp4560
sg76
g4554
sg69
(lp4561
g62
(g63
g64
NtRp4562
(dp4563
g67
(dp4564
g75
I4
ssg76
g4558
sg69
(lp4565
S'web2py.plugin.tagging.w2p'
p4566
asbasbasbag62
(g78
g64
NtRp4567
(dp4568
g67
(dp4569
sg76
g4433
sg69
(lp4570
g62
(g83
g64
NtRp4571
(dp4572
g67
(dp4573
sg76
g4567
sg69
(lp4574
g62
(g63
g64
NtRp4575
(dp4576
g67
(dp4577
g75
I4
ssg76
g4571
sg69
(lp4578
S'web2py.plugin.mediaplayer.w2p'
p4579
asbasbasbag62
(g78
g64
NtRp4580
(dp4581
g67
(dp4582
sg76
g4433
sg69
(lp4583
g62
(g83
g64
NtRp4584
(dp4585
g67
(dp4586
sg76
g4580
sg69
(lp4587
g62
(g63
g64
NtRp4588
(dp4589
g67
(dp4590
g75
I4
ssg76
g4584
sg69
(lp4591
S'web2py.plugin.latex.w2p'
p4592
asbasbasbag62
(g78
g64
NtRp4593
(dp4594
g67
(dp4595
sg76
g4433
sg69
(lp4596
g62
(g83
g64
NtRp4597
(dp4598
g67
(dp4599
sg76
g4593
sg69
(lp4600
g62
(g63
g64
NtRp4601
(dp4602
g67
(dp4603
g75
I4
ssg76
g4597
sg69
(lp4604
S'web2py.plugin.clickatell.w2p'
p4605
asbasbasbag62
(g78
g64
NtRp4606
(dp4607
g67
(dp4608
sg76
g4433
sg69
(lp4609
g62
(g83
g64
NtRp4610
(dp4611
g67
(dp4612
sg76
g4606
sg69
(lp4613
g62
(g63
g64
NtRp4614
(dp4615
g67
(dp4616
g75
I4
ssg76
g4610
sg69
(lp4617
S'web2py.plugin.matplotlib.w2p'
p4618
asbasbasbag62
(g78
g64
NtRp4619
(dp4620
g67
(dp4621
sg76
g4433
sg69
(lp4622
g62
(g83
g64
NtRp4623
(dp4624
g67
(dp4625
sg76
g4619
sg69
(lp4626
g62
(g63
g64
NtRp4627
(dp4628
g67
(dp4629
g75
I4
ssg76
g4623
sg69
(lp4630
S'web2py.plugin.simple_comments.w2p'
p4631
asbasbasbag62
(g78
g64
NtRp4632
(dp4633
g67
(dp4634
sg76
g4433
sg69
(lp4635
g62
(g83
g64
NtRp4636
(dp4637
g67
(dp4638
sg76
g4632
sg69
(lp4639
g62
(g63
g64
NtRp4640
(dp4641
g67
(dp4642
g75
I4
ssg76
g4636
sg69
(lp4643
S'web2py.plugin.rating.w2p'
p4644
asbasbasbag62
(g78
g64
NtRp4645
(dp4646
g67
(dp4647
sg76
g4433
sg69
(lp4648
g62
(g83
g64
NtRp4649
(dp4650
g67
(dp4651
sg76
g4645
sg69
(lp4652
g62
(g63
g64
NtRp4653
(dp4654
g67
(dp4655
g75
I4
ssg76
g4649
sg69
(lp4656
S'web2py.plugin.utils.w2p'
p4657
asbasbasbag62
(g78
g64
NtRp4658
(dp4659
g67
(dp4660
sg76
g4433
sg69
(lp4661
g62
(g83
g64
NtRp4662
(dp4663
g67
(dp4664
sg76
g4658
sg69
(lp4665
g62
(g63
g64
NtRp4666
(dp4667
g67
(dp4668
g75
I4
ssg76
g4662
sg69
(lp4669
S'web2py.plugin.gmap.w2p'
p4670
asbasbasbag62
(g78
g64
NtRp4671
(dp4672
g67
(dp4673
sg76
g4433
sg69
(lp4674
g62
(g83
g64
NtRp4675
(dp4676
g67
(dp4677
sg76
g4671
sg69
(lp4678
g62
(g63
g64
NtRp4679
(dp4680
g67
(dp4681
g75
I4
ssg76
g4675
sg69
(lp4682
S'web2py.plugin.markitup.w2p'
p4683
asbasbasbag62
(g78
g64
NtRp4684
(dp4685
g67
(dp4686
sg76
g4433
sg69
(lp4687
g62
(g83
g64
NtRp4688
(dp4689
g67
(dp4690
sg76
g4684
sg69
(lp4691
g62
(g63
g64
NtRp4692
(dp4693
g67
(dp4694
g75
I4
ssg76
g4688
sg69
(lp4695
S'web2py.plugin.jqgrid.w2p'
p4696
asbasbasbag62
(g78
g64
NtRp4697
(dp4698
g67
(dp4699
sg76
g4433
sg69
(lp4700
g62
(g83
g64
NtRp4701
(dp4702
g67
(dp4703
sg76
g4697
sg69
(lp4704
g62
(g63
g64
NtRp4705
(dp4706
g67
(dp4707
g75
I4
ssg76
g4701
sg69
(lp4708
S'web2py.plugin.multiselect.w2p'
p4709
asbasbasbag62
(g78
g64
NtRp4710
(dp4711
g67
(dp4712
sg76
g4433
sg69
(lp4713
g62
(g83
g64
NtRp4714
(dp4715
g67
(dp4716
sg76
g4710
sg69
(lp4717
g62
(g63
g64
NtRp4718
(dp4719
g67
(dp4720
g75
I4
ssg76
g4714
sg69
(lp4721
S'web2py.plugin.translate.w2p'
p4722
asbasbasbag62
(g78
g64
NtRp4723
(dp4724
g67
(dp4725
sg76
g4433
sg69
(lp4726
g62
(g83
g64
NtRp4727
(dp4728
g67
(dp4729
sg76
g4723
sg69
(lp4730
g62
(g63
g64
NtRp4731
(dp4732
g67
(dp4733
g75
I4
ssg76
g4727
sg69
(lp4734
S'web2py.plugin.sortable.w2p'
p4735
asbasbasbasbasbasbasbag62
(g78
g64
NtRp4736
(dp4737
g67
(dp4738
sg76
g3414
sg69
(lp4739
g62
(g83
g64
NtRp4740
(dp4741
g67
(dp4742
g87
g88
ssg76
g4736
sg69
(lp4743
S'themes'
p4744
asbag62
(g83
g64
NtRp4745
(dp4746
g67
(dp4747
g94
g95
ssg76
g4736
sg69
(lp4748
S':'
asbag62
(g83
g64
NtRp4749
(dp4750
g67
(dp4751
sg76
g4736
sg69
(lp4752
g62
(g63
g64
NtRp4753
(dp4754
g67
(dp4755
g75
I5
ssg76
g4749
sg69
(lp4756
g62
(g71
g64
NtRp4757
(dp4758
g67
(dp4759
g75
I4
ssg76
Nsg69
(lp4760
g62
(g78
g64
NtRp4761
(dp4762
g67
(dp4763
sg76
g4757
sg69
(lp4764
g62
(g83
g64
NtRp4765
(dp4766
g67
(dp4767
sg76
g4761
sg69
(lp4768
g62
(g63
g64
NtRp4769
(dp4770
g67
(dp4771
g75
I4
ssg76
g4765
sg69
(lp4772
S'Default'
p4773
asbasbasbag62
(g78
g64
NtRp4774
(dp4775
g67
(dp4776
sg76
g4757
sg69
(lp4777
g62
(g83
g64
NtRp4778
(dp4779
g67
(dp4780
sg76
g4774
sg69
(lp4781
g62
(g63
g64
NtRp4782
(dp4783
g67
(dp4784
g75
I4
ssg76
g4778
sg69
(lp4785
S'Customize'
p4786
asbasbasbag62
(g78
g64
NtRp4787
(dp4788
g67
(dp4789
sg76
g4757
sg69
(lp4790
g62
(g83
g64
NtRp4791
(dp4792
g67
(dp4793
sg76
g4787
sg69
(lp4794
g62
(g63
g64
NtRp4795
(dp4796
g67
(dp4797
g75
I4
ssg76
g4791
sg69
(lp4798
S'OrangeandBlack'
p4799
asbasbasbag62
(g78
g64
NtRp4800
(dp4801
g67
(dp4802
sg76
g4757
sg69
(lp4803
g62
(g83
g64
NtRp4804
(dp4805
g67
(dp4806
sg76
g4800
sg69
(lp4807
g62
(g63
g64
NtRp4808
(dp4809
g67
(dp4810
g75
I4
ssg76
g4804
sg69
(lp4811
S'solutiongreen'
p4812
asbasbasbag62
(g78
g64
NtRp4813
(dp4814
g67
(dp4815
sg76
g4757
sg69
(lp4816
g62
(g83
g64
NtRp4817
(dp4818
g67
(dp4819
sg76
g4813
sg69
(lp4820
g62
(g63
g64
NtRp4821
(dp4822
g67
(dp4823
g75
I4
ssg76
g4817
sg69
(lp4824
S'FreshLight'
p4825
asbasbasbag62
(g78
g64
NtRp4826
(dp4827
g67
(dp4828
sg76
g4757
sg69
(lp4829
g62
(g83
g64
NtRp4830
(dp4831
g67
(dp4832
sg76
g4826
sg69
(lp4833
g62
(g63
g64
NtRp4834
(dp4835
g67
(dp4836
g75
I4
ssg76
g4830
sg69
(lp4837
S'StickyBud'
p4838
asbasbasbag62
(g78
g64
NtRp4839
(dp4840
g67
(dp4841
sg76
g4757
sg69
(lp4842
g62
(g83
g64
NtRp4843
(dp4844
g67
(dp4845
sg76
g4839
sg69
(lp4846
g62
(g63
g64
NtRp4847
(dp4848
g67
(dp4849
g75
I4
ssg76
g4843
sg69
(lp4850
S'orangeflower'
p4851
asbasbasbag62
(g78
g64
NtRp4852
(dp4853
g67
(dp4854
sg76
g4757
sg69
(lp4855
g62
(g83
g64
NtRp4856
(dp4857
g67
(dp4858
sg76
g4852
sg69
(lp4859
g62
(g63
g64
NtRp4860
(dp4861
g67
(dp4862
g75
I4
ssg76
g4856
sg69
(lp4863
S'Interlude'
p4864
asbasbasbag62
(g78
g64
NtRp4865
(dp4866
g67
(dp4867
sg76
g4757
sg69
(lp4868
g62
(g83
g64
NtRp4869
(dp4870
g67
(dp4871
sg76
g4865
sg69
(lp4872
g62
(g63
g64
NtRp4873
(dp4874
g67
(dp4875
g75
I4
ssg76
g4869
sg69
(lp4876
S'Industrial'
p4877
asbasbasbag62
(g78
g64
NtRp4878
(dp4879
g67
(dp4880
sg76
g4757
sg69
(lp4881
g62
(g83
g64
NtRp4882
(dp4883
g67
(dp4884
sg76
g4878
sg69
(lp4885
g62
(g63
g64
NtRp4886
(dp4887
g67
(dp4888
g75
I4
ssg76
g4882
sg69
(lp4889
S'GreenandPlain'
p4890
asbasbasbag62
(g78
g64
NtRp4891
(dp4892
g67
(dp4893
sg76
g4757
sg69
(lp4894
g62
(g83
g64
NtRp4895
(dp4896
g67
(dp4897
sg76
g4891
sg69
(lp4898
g62
(g63
g64
NtRp4899
(dp4900
g67
(dp4901
g75
I4
ssg76
g4895
sg69
(lp4902
S'FunRide'
p4903
asbasbasbag62
(g78
g64
NtRp4904
(dp4905
g67
(dp4906
sg76
g4757
sg69
(lp4907
g62
(g83
g64
NtRp4908
(dp4909
g67
(dp4910
sg76
g4904
sg69
(lp4911
g62
(g63
g64
NtRp4912
(dp4913
g67
(dp4914
g75
I4
ssg76
g4908
sg69
(lp4915
S'CorporateOffice'
p4916
asbasbasbag62
(g78
g64
NtRp4917
(dp4918
g67
(dp4919
sg76
g4757
sg69
(lp4920
g62
(g83
g64
NtRp4921
(dp4922
g67
(dp4923
sg76
g4917
sg69
(lp4924
g62
(g63
g64
NtRp4925
(dp4926
g67
(dp4927
g75
I4
ssg76
g4921
sg69
(lp4928
S'BlogSmith'
p4929
asbasbasbag62
(g78
g64
NtRp4930
(dp4931
g67
(dp4932
sg76
g4757
sg69
(lp4933
g62
(g83
g64
NtRp4934
(dp4935
g67
(dp4936
sg76
g4930
sg69
(lp4937
g62
(g63
g64
NtRp4938
(dp4939
g67
(dp4940
g75
I4
ssg76
g4934
sg69
(lp4941
S'Hibiscus'
p4942
asbasbasbag62
(g78
g64
NtRp4943
(dp4944
g67
(dp4945
sg76
g4757
sg69
(lp4946
g62
(g83
g64
NtRp4947
(dp4948
g67
(dp4949
sg76
g4943
sg69
(lp4950
g62
(g63
g64
NtRp4951
(dp4952
g67
(dp4953
g75
I4
ssg76
g4947
sg69
(lp4954
S'VioletRay'
p4955
asbasbasbag62
(g78
g64
NtRp4956
(dp4957
g67
(dp4958
sg76
g4757
sg69
(lp4959
g62
(g83
g64
NtRp4960
(dp4961
g67
(dp4962
sg76
g4956
sg69
(lp4963
g62
(g63
g64
NtRp4964
(dp4965
g67
(dp4966
g75
I4
ssg76
g4960
sg69
(lp4967
S'Chasmogamous'
p4968
asbasbasbag62
(g78
g64
NtRp4969
(dp4970
g67
(dp4971
sg76
g4757
sg69
(lp4972
g62
(g83
g64
NtRp4973
(dp4974
g67
(dp4975
sg76
g4969
sg69
(lp4976
g62
(g63
g64
NtRp4977
(dp4978
g67
(dp4979
g75
I4
ssg76
g4973
sg69
(lp4980
S'Uncomplicated'
p4981
asbasbasbag62
(g78
g64
NtRp4982
(dp4983
g67
(dp4984
sg76
g4757
sg69
(lp4985
g62
(g83
g64
NtRp4986
(dp4987
g67
(dp4988
sg76
g4982
sg69
(lp4989
g62
(g63
g64
NtRp4990
(dp4991
g67
(dp4992
g75
I4
ssg76
g4986
sg69
(lp4993
S'RoundHouse'
p4994
asbasbasbag62
(g78
g64
NtRp4995
(dp4996
g67
(dp4997
sg76
g4757
sg69
(lp4998
g62
(g83
g64
NtRp4999
(dp5000
g67
(dp5001
sg76
g4995
sg69
(lp5002
g62
(g63
g64
NtRp5003
(dp5004
g67
(dp5005
g75
I4
ssg76
g4999
sg69
(lp5006
S'CupofCoffee'
p5007
asbasbasbag62
(g78
g64
NtRp5008
(dp5009
g67
(dp5010
sg76
g4757
sg69
(lp5011
g62
(g83
g64
NtRp5012
(dp5013
g67
(dp5014
sg76
g5008
sg69
(lp5015
g62
(g63
g64
NtRp5016
(dp5017
g67
(dp5018
g75
I4
ssg76
g5012
sg69
(lp5019
S'Transient'
p5020
asbasbasbag62
(g78
g64
NtRp5021
(dp5022
g67
(dp5023
sg76
g4757
sg69
(lp5024
g62
(g83
g64
NtRp5025
(dp5026
g67
(dp5027
sg76
g5021
sg69
(lp5028
g62
(g63
g64
NtRp5029
(dp5030
g67
(dp5031
g75
I4
ssg76
g5025
sg69
(lp5032
S'Flourish'
p5033
asbasbasbag62
(g78
g64
NtRp5034
(dp5035
g67
(dp5036
sg76
g4757
sg69
(lp5037
g62
(g83
g64
NtRp5038
(dp5039
g67
(dp5040
sg76
g5034
sg69
(lp5041
g62
(g63
g64
NtRp5042
(dp5043
g67
(dp5044
g75
I4
ssg76
g5038
sg69
(lp5045
S'Astroturfd'
p5046
asbasbasbag62
(g78
g64
NtRp5047
(dp5048
g67
(dp5049
sg76
g4757
sg69
(lp5050
g62
(g83
g64
NtRp5051
(dp5052
g67
(dp5053
sg76
g5047
sg69
(lp5054
g62
(g63
g64
NtRp5055
(dp5056
g67
(dp5057
g75
I4
ssg76
g5051
sg69
(lp5058
S'EfflorescenceGreen'
p5059
asbasbasbag62
(g78
g64
NtRp5060
(dp5061
g67
(dp5062
sg76
g4757
sg69
(lp5063
g62
(g83
g64
NtRp5064
(dp5065
g67
(dp5066
sg76
g5060
sg69
(lp5067
g62
(g63
g64
NtRp5068
(dp5069
g67
(dp5070
g75
I4
ssg76
g5064
sg69
(lp5071
S'Instant'
p5072
asbasbasbag62
(g78
g64
NtRp5073
(dp5074
g67
(dp5075
sg76
g4757
sg69
(lp5076
g62
(g83
g64
NtRp5077
(dp5078
g67
(dp5079
sg76
g5073
sg69
(lp5080
g62
(g63
g64
NtRp5081
(dp5082
g67
(dp5083
g75
I4
ssg76
g5077
sg69
(lp5084
S'solutionblue'
p5085
asbasbasbag62
(g78
g64
NtRp5086
(dp5087
g67
(dp5088
sg76
g4757
sg69
(lp5089
g62
(g83
g64
NtRp5090
(dp5091
g67
(dp5092
sg76
g5086
sg69
(lp5093
g62
(g63
g64
NtRp5094
(dp5095
g67
(dp5096
g75
I4
ssg76
g5090
sg69
(lp5097
S'Balanced'
p5098
asbasbasbag62
(g78
g64
NtRp5099
(dp5100
g67
(dp5101
sg76
g4757
sg69
(lp5102
g62
(g83
g64
NtRp5103
(dp5104
g67
(dp5105
sg76
g5099
sg69
(lp5106
g62
(g63
g64
NtRp5107
(dp5108
g67
(dp5109
g75
I4
ssg76
g5103
sg69
(lp5110
S'RedCity'
p5111
asbasbasbag62
(g78
g64
NtRp5112
(dp5113
g67
(dp5114
sg76
g4757
sg69
(lp5115
g62
(g83
g64
NtRp5116
(dp5117
g67
(dp5118
sg76
g5112
sg69
(lp5119
g62
(g63
g64
NtRp5120
(dp5121
g67
(dp5122
g75
I4
ssg76
g5116
sg69
(lp5123
S'Stardust'
p5124
asbasbasbag62
(g78
g64
NtRp5125
(dp5126
g67
(dp5127
sg76
g4757
sg69
(lp5128
g62
(g83
g64
NtRp5129
(dp5130
g67
(dp5131
sg76
g5125
sg69
(lp5132
g62
(g63
g64
NtRp5133
(dp5134
g67
(dp5135
g75
I4
ssg76
g5129
sg69
(lp5136
S'EfflorescenceBlue'
p5137
asbasbasbag62
(g78
g64
NtRp5138
(dp5139
g67
(dp5140
sg76
g4757
sg69
(lp5141
g62
(g83
g64
NtRp5142
(dp5143
g67
(dp5144
sg76
g5138
sg69
(lp5145
g62
(g63
g64
NtRp5146
(dp5147
g67
(dp5148
g75
I4
ssg76
g5142
sg69
(lp5149
S'FlashyWeb'
p5150
asbasbasbag62
(g78
g64
NtRp5151
(dp5152
g67
(dp5153
sg76
g4757
sg69
(lp5154
g62
(g83
g64
NtRp5155
(dp5156
g67
(dp5157
sg76
g5151
sg69
(lp5158
g62
(g63
g64
NtRp5159
(dp5160
g67
(dp5161
g75
I4
ssg76
g5155
sg69
(lp5162
S'Spaced'
p5163
asbasbasbag62
(g78
g64
NtRp5164
(dp5165
g67
(dp5166
sg76
g4757
sg69
(lp5167
g62
(g83
g64
NtRp5168
(dp5169
g67
(dp5170
sg76
g5164
sg69
(lp5171
g62
(g63
g64
NtRp5172
(dp5173
g67
(dp5174
g75
I4
ssg76
g5168
sg69
(lp5175
S'EfflorescencePurple'
p5176
asbasbasbag62
(g78
g64
NtRp5177
(dp5178
g67
(dp5179
sg76
g4757
sg69
(lp5180
g62
(g83
g64
NtRp5181
(dp5182
g67
(dp5183
sg76
g5177
sg69
(lp5184
g62
(g63
g64
NtRp5185
(dp5186
g67
(dp5187
g75
I4
ssg76
g5181
sg69
(lp5188
S'TheMissingPiece'
p5189
asbasbasbag62
(g78
g64
NtRp5190
(dp5191
g67
(dp5192
sg76
g4757
sg69
(lp5193
g62
(g83
g64
NtRp5194
(dp5195
g67
(dp5196
sg76
g5190
sg69
(lp5197
g62
(g63
g64
NtRp5198
(dp5199
g67
(dp5200
g75
I4
ssg76
g5194
sg69
(lp5201
S'PremiumSeries'
p5202
asbasbasbag62
(g78
g64
NtRp5203
(dp5204
g67
(dp5205
sg76
g4757
sg69
(lp5206
g62
(g83
g64
NtRp5207
(dp5208
g67
(dp5209
sg76
g5203
sg69
(lp5210
g62
(g63
g64
NtRp5211
(dp5212
g67
(dp5213
g75
I4
ssg76
g5207
sg69
(lp5214
S'Abrasive'
p5215
asbasbasbag62
(g78
g64
NtRp5216
(dp5217
g67
(dp5218
sg76
g4757
sg69
(lp5219
g62
(g83
g64
NtRp5220
(dp5221
g67
(dp5222
sg76
g5216
sg69
(lp5223
g62
(g63
g64
NtRp5224
(dp5225
g67
(dp5226
g75
I4
ssg76
g5220
sg69
(lp5227
S'Simpletex'
p5228
asbasbasbag62
(g78
g64
NtRp5229
(dp5230
g67
(dp5231
sg76
g4757
sg69
(lp5232
g62
(g83
g64
NtRp5233
(dp5234
g67
(dp5235
sg76
g5229
sg69
(lp5236
g62
(g63
g64
NtRp5237
(dp5238
g67
(dp5239
g75
I4
ssg76
g5233
sg69
(lp5240
S'PinkFloat'
p5241
asbasbasbag62
(g78
g64
NtRp5242
(dp5243
g67
(dp5244
sg76
g4757
sg69
(lp5245
g62
(g83
g64
NtRp5246
(dp5247
g67
(dp5248
sg76
g5242
sg69
(lp5249
g62
(g63
g64
NtRp5250
(dp5251
g67
(dp5252
g75
I4
ssg76
g5246
sg69
(lp5253
S'FCTHarvest'
p5254
asbasbasbag62
(g78
g64
NtRp5255
(dp5256
g67
(dp5257
sg76
g4757
sg69
(lp5258
g62
(g83
g64
NtRp5259
(dp5260
g67
(dp5261
sg76
g5255
sg69
(lp5262
g62
(g63
g64
NtRp5263
(dp5264
g67
(dp5265
g75
I4
ssg76
g5259
sg69
(lp5266
S'Bounderies'
p5267
asbasbasbag62
(g78
g64
NtRp5268
(dp5269
g67
(dp5270
sg76
g4757
sg69
(lp5271
g62
(g83
g64
NtRp5272
(dp5273
g67
(dp5274
sg76
g5268
sg69
(lp5275
g62
(g63
g64
NtRp5276
(dp5277
g67
(dp5278
g75
I4
ssg76
g5272
sg69
(lp5279
S'BackgroundBlue'
p5280
asbasbasbag62
(g78
g64
NtRp5281
(dp5282
g67
(dp5283
sg76
g4757
sg69
(lp5284
g62
(g83
g64
NtRp5285
(dp5286
g67
(dp5287
sg76
g5281
sg69
(lp5288
g62
(g63
g64
NtRp5289
(dp5290
g67
(dp5291
g75
I4
ssg76
g5285
sg69
(lp5292
S'Tastelessly'
p5293
asbasbasbag62
(g78
g64
NtRp5294
(dp5295
g67
(dp5296
sg76
g4757
sg69
(lp5297
g62
(g83
g64
NtRp5298
(dp5299
g67
(dp5300
sg76
g5294
sg69
(lp5301
g62
(g63
g64
NtRp5302
(dp5303
g67
(dp5304
g75
I4
ssg76
g5298
sg69
(lp5305
S'Settings'
p5306
asbasbasbag62
(g78
g64
NtRp5307
(dp5308
g67
(dp5309
sg76
g4757
sg69
(lp5310
g62
(g83
g64
NtRp5311
(dp5312
g67
(dp5313
sg76
g5307
sg69
(lp5314
g62
(g63
g64
NtRp5315
(dp5316
g67
(dp5317
g75
I4
ssg76
g5311
sg69
(lp5318
S'Colorus'
p5319
asbasbasbag62
(g78
g64
NtRp5320
(dp5321
g67
(dp5322
sg76
g4757
sg69
(lp5323
g62
(g83
g64
NtRp5324
(dp5325
g67
(dp5326
sg76
g5320
sg69
(lp5327
g62
(g63
g64
NtRp5328
(dp5329
g67
(dp5330
g75
I4
ssg76
g5324
sg69
(lp5331
S'BackgroundGreen'
p5332
asbasbasbag62
(g78
g64
NtRp5333
(dp5334
g67
(dp5335
sg76
g4757
sg69
(lp5336
g62
(g83
g64
NtRp5337
(dp5338
g67
(dp5339
sg76
g5333
sg69
(lp5340
g62
(g63
g64
NtRp5341
(dp5342
g67
(dp5343
g75
I4
ssg76
g5337
sg69
(lp5344
S'TheIsland'
p5345
asbasbasbag62
(g78
g64
NtRp5346
(dp5347
g67
(dp5348
sg76
g4757
sg69
(lp5349
g62
(g83
g64
NtRp5350
(dp5351
g67
(dp5352
sg76
g5346
sg69
(lp5353
g62
(g63
g64
NtRp5354
(dp5355
g67
(dp5356
g75
I4
ssg76
g5350
sg69
(lp5357
S'TinyBlue'
p5358
asbasbasbag62
(g78
g64
NtRp5359
(dp5360
g67
(dp5361
sg76
g4757
sg69
(lp5362
g62
(g83
g64
NtRp5363
(dp5364
g67
(dp5365
sg76
g5359
sg69
(lp5366
g62
(g63
g64
NtRp5367
(dp5368
g67
(dp5369
g75
I4
ssg76
g5363
sg69
(lp5370
S'hexahedron'
p5371
asbasbasbag62
(g78
g64
NtRp5372
(dp5373
g67
(dp5374
sg76
g4757
sg69
(lp5375
g62
(g83
g64
NtRp5376
(dp5377
g67
(dp5378
sg76
g5372
sg69
(lp5379
g62
(g63
g64
NtRp5380
(dp5381
g67
(dp5382
g75
I4
ssg76
g5376
sg69
(lp5383
S'PetCharms'
p5384
asbasbasbag62
(g78
g64
NtRp5385
(dp5386
g67
(dp5387
sg76
g4757
sg69
(lp5388
g62
(g83
g64
NtRp5389
(dp5390
g67
(dp5391
sg76
g5385
sg69
(lp5392
g62
(g63
g64
NtRp5393
(dp5394
g67
(dp5395
g75
I4
ssg76
g5389
sg69
(lp5396
S'Subordinate'
p5397
asbasbasbag62
(g78
g64
NtRp5398
(dp5399
g67
(dp5400
sg76
g4757
sg69
(lp5401
g62
(g83
g64
NtRp5402
(dp5403
g67
(dp5404
sg76
g5398
sg69
(lp5405
g62
(g63
g64
NtRp5406
(dp5407
g67
(dp5408
g75
I4
ssg76
g5402
sg69
(lp5409
S'Voyage'
p5410
asbasbasbag62
(g78
g64
NtRp5411
(dp5412
g67
(dp5413
sg76
g4757
sg69
(lp5414
g62
(g83
g64
NtRp5415
(dp5416
g67
(dp5417
sg76
g5411
sg69
(lp5418
g62
(g63
g64
NtRp5419
(dp5420
g67
(dp5421
g75
I4
ssg76
g5415
sg69
(lp5422
S'Replenish'
p5423
asbasbasbag62
(g78
g64
NtRp5424
(dp5425
g67
(dp5426
sg76
g4757
sg69
(lp5427
g62
(g83
g64
NtRp5428
(dp5429
g67
(dp5430
sg76
g5424
sg69
(lp5431
g62
(g63
g64
NtRp5432
(dp5433
g67
(dp5434
g75
I4
ssg76
g5428
sg69
(lp5435
S'sliced'
p5436
asbasbasbag62
(g78
g64
NtRp5437
(dp5438
g67
(dp5439
sg76
g4757
sg69
(lp5440
g62
(g83
g64
NtRp5441
(dp5442
g67
(dp5443
sg76
g5437
sg69
(lp5444
g62
(g63
g64
NtRp5445
(dp5446
g67
(dp5447
g75
I4
ssg76
g5441
sg69
(lp5448
S'Papira'
p5449
asbasbasbag62
(g78
g64
NtRp5450
(dp5451
g67
(dp5452
sg76
g4757
sg69
(lp5453
g62
(g83
g64
NtRp5454
(dp5455
g67
(dp5456
sg76
g5450
sg69
(lp5457
g62
(g63
g64
NtRp5458
(dp5459
g67
(dp5460
g75
I4
ssg76
g5454
sg69
(lp5461
S'NewsFlash'
p5462
asbasbasbag62
(g78
g64
NtRp5463
(dp5464
g67
(dp5465
sg76
g4757
sg69
(lp5466
g62
(g83
g64
NtRp5467
(dp5468
g67
(dp5469
sg76
g5463
sg69
(lp5470
g62
(g63
g64
NtRp5471
(dp5472
g67
(dp5473
g75
I4
ssg76
g5467
sg69
(lp5474
S'Reference'
p5475
asbasbasbag62
(g78
g64
NtRp5476
(dp5477
g67
(dp5478
sg76
g4757
sg69
(lp5479
g62
(g83
g64
NtRp5480
(dp5481
g67
(dp5482
sg76
g5476
sg69
(lp5483
g62
(g63
g64
NtRp5484
(dp5485
g67
(dp5486
g75
I4
ssg76
g5480
sg69
(lp5487
S'Unqualified'
p5488
asbasbasbag62
(g78
g64
NtRp5489
(dp5490
g67
(dp5491
sg76
g4757
sg69
(lp5492
g62
(g83
g64
NtRp5493
(dp5494
g67
(dp5495
sg76
g5489
sg69
(lp5496
g62
(g63
g64
NtRp5497
(dp5498
g67
(dp5499
g75
I4
ssg76
g5493
sg69
(lp5500
S'Branches'
p5501
asbasbasbag62
(g78
g64
NtRp5502
(dp5503
g67
(dp5504
sg76
g4757
sg69
(lp5505
g62
(g83
g64
NtRp5506
(dp5507
g67
(dp5508
sg76
g5502
sg69
(lp5509
g62
(g63
g64
NtRp5510
(dp5511
g67
(dp5512
g75
I4
ssg76
g5506
sg69
(lp5513
S'Glazed'
p5514
asbasbasbag62
(g78
g64
NtRp5515
(dp5516
g67
(dp5517
sg76
g4757
sg69
(lp5518
g62
(g83
g64
NtRp5519
(dp5520
g67
(dp5521
sg76
g5515
sg69
(lp5522
g62
(g63
g64
NtRp5523
(dp5524
g67
(dp5525
g75
I4
ssg76
g5519
sg69
(lp5526
S'Excess'
p5527
asbasbasbag62
(g78
g64
NtRp5528
(dp5529
g67
(dp5530
sg76
g4757
sg69
(lp5531
g62
(g83
g64
NtRp5532
(dp5533
g67
(dp5534
sg76
g5528
sg69
(lp5535
g62
(g63
g64
NtRp5536
(dp5537
g67
(dp5538
g75
I4
ssg76
g5532
sg69
(lp5539
S'Commission'
p5540
asbasbasbag62
(g78
g64
NtRp5541
(dp5542
g67
(dp5543
sg76
g4757
sg69
(lp5544
g62
(g83
g64
NtRp5545
(dp5546
g67
(dp5547
sg76
g5541
sg69
(lp5548
g62
(g63
g64
NtRp5549
(dp5550
g67
(dp5551
g75
I4
ssg76
g5545
sg69
(lp5552
S'Frozenage'
p5553
asbasbasbag62
(g78
g64
NtRp5554
(dp5555
g67
(dp5556
sg76
g4757
sg69
(lp5557
g62
(g83
g64
NtRp5558
(dp5559
g67
(dp5560
sg76
g5554
sg69
(lp5561
g62
(g63
g64
NtRp5562
(dp5563
g67
(dp5564
g75
I4
ssg76
g5558
sg69
(lp5565
S'Blogging'
p5566
asbasbasbag62
(g78
g64
NtRp5567
(dp5568
g67
(dp5569
sg76
g4757
sg69
(lp5570
g62
(g83
g64
NtRp5571
(dp5572
g67
(dp5573
sg76
g5567
sg69
(lp5574
g62
(g63
g64
NtRp5575
(dp5576
g67
(dp5577
g75
I4
ssg76
g5571
sg69
(lp5578
S'Extracts'
p5579
asbasbasbag62
(g78
g64
NtRp5580
(dp5581
g67
(dp5582
sg76
g4757
sg69
(lp5583
g62
(g83
g64
NtRp5584
(dp5585
g67
(dp5586
sg76
g5580
sg69
(lp5587
g62
(g63
g64
NtRp5588
(dp5589
g67
(dp5590
g75
I4
ssg76
g5584
sg69
(lp5591
S'Rambling'
p5592
asbasbasbag62
(g78
g64
NtRp5593
(dp5594
g67
(dp5595
sg76
g4757
sg69
(lp5596
g62
(g83
g64
NtRp5597
(dp5598
g67
(dp5599
sg76
g5593
sg69
(lp5600
g62
(g63
g64
NtRp5601
(dp5602
g67
(dp5603
g75
I4
ssg76
g5597
sg69
(lp5604
S'OldArchitecture'
p5605
asbasbasbag62
(g78
g64
NtRp5606
(dp5607
g67
(dp5608
sg76
g4757
sg69
(lp5609
g62
(g83
g64
NtRp5610
(dp5611
g67
(dp5612
sg76
g5606
sg69
(lp5613
g62
(g63
g64
NtRp5614
(dp5615
g67
(dp5616
g75
I4
ssg76
g5610
sg69
(lp5617
S'Miscellaneous'
p5618
asbasbasbag62
(g78
g64
NtRp5619
(dp5620
g67
(dp5621
sg76
g4757
sg69
(lp5622
g62
(g83
g64
NtRp5623
(dp5624
g67
(dp5625
sg76
g5619
sg69
(lp5626
g62
(g63
g64
NtRp5627
(dp5628
g67
(dp5629
g75
I4
ssg76
g5623
sg69
(lp5630
S'Blend'
p5631
asbasbasbag62
(g78
g64
NtRp5632
(dp5633
g67
(dp5634
sg76
g4757
sg69
(lp5635
g62
(g83
g64
NtRp5636
(dp5637
g67
(dp5638
sg76
g5632
sg69
(lp5639
g62
(g63
g64
NtRp5640
(dp5641
g67
(dp5642
g75
I4
ssg76
g5636
sg69
(lp5643
S'Squarely'
p5644
asbasbasbag62
(g78
g64
NtRp5645
(dp5646
g67
(dp5647
sg76
g4757
sg69
(lp5648
g62
(g83
g64
NtRp5649
(dp5650
g67
(dp5651
sg76
g5645
sg69
(lp5652
g62
(g63
g64
NtRp5653
(dp5654
g67
(dp5655
g75
I4
ssg76
g5649
sg69
(lp5656
S'SnowCrystals'
p5657
asbasbasbag62
(g78
g64
NtRp5658
(dp5659
g67
(dp5660
sg76
g4757
sg69
(lp5661
g62
(g83
g64
NtRp5662
(dp5663
g67
(dp5664
sg76
g5658
sg69
(lp5665
g62
(g63
g64
NtRp5666
(dp5667
g67
(dp5668
g75
I4
ssg76
g5662
sg69
(lp5669
S'Emporium'
p5670
asbasbasbag62
(g78
g64
NtRp5671
(dp5672
g67
(dp5673
sg76
g4757
sg69
(lp5674
g62
(g83
g64
NtRp5675
(dp5676
g67
(dp5677
sg76
g5671
sg69
(lp5678
g62
(g63
g64
NtRp5679
(dp5680
g67
(dp5681
g75
I4
ssg76
g5675
sg69
(lp5682
S'Clicker'
p5683
asbasbasbag62
(g78
g64
NtRp5684
(dp5685
g67
(dp5686
sg76
g4757
sg69
(lp5687
g62
(g83
g64
NtRp5688
(dp5689
g67
(dp5690
sg76
g5684
sg69
(lp5691
g62
(g63
g64
NtRp5692
(dp5693
g67
(dp5694
g75
I4
ssg76
g5688
sg69
(lp5695
S'ConcreteV2'
p5696
asbasbasbag62
(g78
g64
NtRp5697
(dp5698
g67
(dp5699
sg76
g4757
sg69
(lp5700
g62
(g83
g64
NtRp5701
(dp5702
g67
(dp5703
sg76
g5697
sg69
(lp5704
g62
(g63
g64
NtRp5705
(dp5706
g67
(dp5707
g75
I4
ssg76
g5701
sg69
(lp5708
S'Neutral'
p5709
asbasbasbag62
(g78
g64
NtRp5710
(dp5711
g67
(dp5712
sg76
g4757
sg69
(lp5713
g62
(g83
g64
NtRp5714
(dp5715
g67
(dp5716
sg76
g5710
sg69
(lp5717
g62
(g63
g64
NtRp5718
(dp5719
g67
(dp5720
g75
I4
ssg76
g5714
sg69
(lp5721
S'EfflorescenceOrange'
p5722
asbasbasbag62
(g78
g64
NtRp5723
(dp5724
g67
(dp5725
sg76
g4757
sg69
(lp5726
g62
(g83
g64
NtRp5727
(dp5728
g67
(dp5729
sg76
g5723
sg69
(lp5730
g62
(g63
g64
NtRp5731
(dp5732
g67
(dp5733
g75
I4
ssg76
g5727
sg69
(lp5734
S'Boorish'
p5735
asbasbasbag62
(g78
g64
NtRp5736
(dp5737
g67
(dp5738
sg76
g4757
sg69
(lp5739
g62
(g83
g64
NtRp5740
(dp5741
g67
(dp5742
sg76
g5736
sg69
(lp5743
g62
(g63
g64
NtRp5744
(dp5745
g67
(dp5746
g75
I4
ssg76
g5740
sg69
(lp5747
S'Experience'
p5748
asbasbasbag62
(g78
g64
NtRp5749
(dp5750
g67
(dp5751
sg76
g4757
sg69
(lp5752
g62
(g83
g64
NtRp5753
(dp5754
g67
(dp5755
sg76
g5749
sg69
(lp5756
g62
(g63
g64
NtRp5757
(dp5758
g67
(dp5759
g75
I4
ssg76
g5753
sg69
(lp5760
S'CityLights'
p5761
asbasbasbag62
(g78
g64
NtRp5762
(dp5763
g67
(dp5764
sg76
g4757
sg69
(lp5765
g62
(g83
g64
NtRp5766
(dp5767
g67
(dp5768
sg76
g5762
sg69
(lp5769
g62
(g63
g64
NtRp5770
(dp5771
g67
(dp5772
g75
I4
ssg76
g5766
sg69
(lp5773
S'Incorporated'
p5774
asbasbasbag62
(g78
g64
NtRp5775
(dp5776
g67
(dp5777
sg76
g4757
sg69
(lp5778
g62
(g83
g64
NtRp5779
(dp5780
g67
(dp5781
sg76
g5775
sg69
(lp5782
g62
(g63
g64
NtRp5783
(dp5784
g67
(dp5785
g75
I4
ssg76
g5779
sg69
(lp5786
S'Thingreenline'
p5787
asbasbasbag62
(g78
g64
NtRp5788
(dp5789
g67
(dp5790
sg76
g4757
sg69
(lp5791
g62
(g83
g64
NtRp5792
(dp5793
g67
(dp5794
sg76
g5788
sg69
(lp5795
g62
(g63
g64
NtRp5796
(dp5797
g67
(dp5798
g75
I4
ssg76
g5792
sg69
(lp5799
S'HotAirBalloons'
p5800
asbasbasbag62
(g78
g64
NtRp5801
(dp5802
g67
(dp5803
sg76
g4757
sg69
(lp5804
g62
(g83
g64
NtRp5805
(dp5806
g67
(dp5807
sg76
g5801
sg69
(lp5808
g62
(g63
g64
NtRp5809
(dp5810
g67
(dp5811
g75
I4
ssg76
g5805
sg69
(lp5812
S'Optimism'
p5813
asbasbasbag62
(g78
g64
NtRp5814
(dp5815
g67
(dp5816
sg76
g4757
sg69
(lp5817
g62
(g83
g64
NtRp5818
(dp5819
g67
(dp5820
sg76
g5814
sg69
(lp5821
g62
(g63
g64
NtRp5822
(dp5823
g67
(dp5824
g75
I4
ssg76
g5818
sg69
(lp5825
S'Sampling'
p5826
asbasbasbag62
(g78
g64
NtRp5827
(dp5828
g67
(dp5829
sg76
g4757
sg69
(lp5830
g62
(g83
g64
NtRp5831
(dp5832
g67
(dp5833
sg76
g5827
sg69
(lp5834
g62
(g63
g64
NtRp5835
(dp5836
g67
(dp5837
g75
I4
ssg76
g5831
sg69
(lp5838
S'Oxidation'
p5839
asbasbasbag62
(g78
g64
NtRp5840
(dp5841
g67
(dp5842
sg76
g4757
sg69
(lp5843
g62
(g83
g64
NtRp5844
(dp5845
g67
(dp5846
sg76
g5840
sg69
(lp5847
g62
(g63
g64
NtRp5848
(dp5849
g67
(dp5850
g75
I4
ssg76
g5844
sg69
(lp5851
S'External'
p5852
asbasbasbag62
(g78
g64
NtRp5853
(dp5854
g67
(dp5855
sg76
g4757
sg69
(lp5856
g62
(g83
g64
NtRp5857
(dp5858
g67
(dp5859
sg76
g5853
sg69
(lp5860
g62
(g63
g64
NtRp5861
(dp5862
g67
(dp5863
g75
I4
ssg76
g5857
sg69
(lp5864
S'FCTInnovation'
p5865
asbasbasbag62
(g78
g64
NtRp5866
(dp5867
g67
(dp5868
sg76
g4757
sg69
(lp5869
g62
(g83
g64
NtRp5870
(dp5871
g67
(dp5872
sg76
g5866
sg69
(lp5873
g62
(g63
g64
NtRp5874
(dp5875
g67
(dp5876
g75
I4
ssg76
g5870
sg69
(lp5877
S'BlueStatic'
p5878
asbasbasbag62
(g78
g64
NtRp5879
(dp5880
g67
(dp5881
sg76
g4757
sg69
(lp5882
g62
(g83
g64
NtRp5883
(dp5884
g67
(dp5885
sg76
g5879
sg69
(lp5886
g62
(g63
g64
NtRp5887
(dp5888
g67
(dp5889
g75
I4
ssg76
g5883
sg69
(lp5890
S'Compromise'
p5891
asbasbasbag62
(g78
g64
NtRp5892
(dp5893
g67
(dp5894
sg76
g4757
sg69
(lp5895
g62
(g83
g64
NtRp5896
(dp5897
g67
(dp5898
sg76
g5892
sg69
(lp5899
g62
(g63
g64
NtRp5900
(dp5901
g67
(dp5902
g75
I4
ssg76
g5896
sg69
(lp5903
S'LongBeach'
p5904
asbasbasbag62
(g78
g64
NtRp5905
(dp5906
g67
(dp5907
sg76
g4757
sg69
(lp5908
g62
(g83
g64
NtRp5909
(dp5910
g67
(dp5911
sg76
g5905
sg69
(lp5912
g62
(g63
g64
NtRp5913
(dp5914
g67
(dp5915
g75
I4
ssg76
g5909
sg69
(lp5916
S'Efflorescence'
p5917
asbasbasbag62
(g78
g64
NtRp5918
(dp5919
g67
(dp5920
sg76
g4757
sg69
(lp5921
g62
(g83
g64
NtRp5922
(dp5923
g67
(dp5924
sg76
g5918
sg69
(lp5925
g62
(g63
g64
NtRp5926
(dp5927
g67
(dp5928
g75
I4
ssg76
g5922
sg69
(lp5929
S'KeepitSimple'
p5930
asbasbasbag62
(g78
g64
NtRp5931
(dp5932
g67
(dp5933
sg76
g4757
sg69
(lp5934
g62
(g83
g64
NtRp5935
(dp5936
g67
(dp5937
sg76
g5931
sg69
(lp5938
g62
(g63
g64
NtRp5939
(dp5940
g67
(dp5941
g75
I4
ssg76
g5935
sg69
(lp5942
S'Pressurized'
p5943
asbasbasbag62
(g78
g64
NtRp5944
(dp5945
g67
(dp5946
sg76
g4757
sg69
(lp5947
g62
(g83
g64
NtRp5948
(dp5949
g67
(dp5950
sg76
g5944
sg69
(lp5951
g62
(g63
g64
NtRp5952
(dp5953
g67
(dp5954
g75
I4
ssg76
g5948
sg69
(lp5955
S'FCTPuzzled'
p5956
asbasbasbag62
(g78
g64
NtRp5957
(dp5958
g67
(dp5959
sg76
g4757
sg69
(lp5960
g62
(g83
g64
NtRp5961
(dp5962
g67
(dp5963
sg76
g5957
sg69
(lp5964
g62
(g63
g64
NtRp5965
(dp5966
g67
(dp5967
g75
I4
ssg76
g5961
sg69
(lp5968
S'Embouteillage'
p5969
asbasbasbag62
(g78
g64
NtRp5970
(dp5971
g67
(dp5972
sg76
g4757
sg69
(lp5973
g62
(g83
g64
NtRp5974
(dp5975
g67
(dp5976
sg76
g5970
sg69
(lp5977
g62
(g63
g64
NtRp5978
(dp5979
g67
(dp5980
g75
I4
ssg76
g5974
sg69
(lp5981
S'Whitelight'
p5982
asbasbasbag62
(g78
g64
NtRp5983
(dp5984
g67
(dp5985
sg76
g4757
sg69
(lp5986
g62
(g83
g64
NtRp5987
(dp5988
g67
(dp5989
sg76
g5983
sg69
(lp5990
g62
(g63
g64
NtRp5991
(dp5992
g67
(dp5993
g75
I4
ssg76
g5987
sg69
(lp5994
S'Pluralism'
p5995
asbasbasbag62
(g78
g64
NtRp5996
(dp5997
g67
(dp5998
sg76
g4757
sg69
(lp5999
g62
(g83
g64
NtRp6000
(dp6001
g67
(dp6002
sg76
g5996
sg69
(lp6003
g62
(g63
g64
NtRp6004
(dp6005
g67
(dp6006
g75
I4
ssg76
g6000
sg69
(lp6007
S'solutionorange'
p6008
asbasbasbasbasbasbasbag62
(g78
g64
NtRp6009
(dp6010
g67
(dp6011
sg76
g3414
sg69
(lp6012
g62
(g83
g64
NtRp6013
(dp6014
g67
(dp6015
g87
g88
ssg76
g6009
sg69
(lp6016
S'token'
p6017
asbag62
(g83
g64
NtRp6018
(dp6019
g67
(dp6020
g94
g95
ssg76
g6009
sg69
(lp6021
S':'
asbag62
(g83
g64
NtRp6022
(dp6023
g67
(dp6024
sg76
g6009
sg69
(lp6025
g62
(g63
g64
NtRp6026
(dp6027
g67
(dp6028
g75
I5
ssg76
g6022
sg69
(lp6029
S'8c6da387-220b-4126-9b99-e97263d6c223'
p6030
asbasbasbasbasbsS'etype'
p6031
S"<type 'exceptions.IOError'>"
p6032
sS'date'
p6033
S'Sun Oct 14 15:56:07 2012'
p6034
sS'response'
p6035
g62
(g63
g64
NtRp6036
(dp6037
g67
(dp6038
sg69
(lp6039
g62
(g71
g64
NtRp6040
(dp6041
g67
(dp6042
g75
I5
ssg76
Nsg69
(lp6043
g62
(g78
g64
NtRp6044
(dp6045
g67
(dp6046
sg76
g6040
sg69
(lp6047
g62
(g83
g64
NtRp6048
(dp6049
g67
(dp6050
g87
g88
ssg76
g6044
sg69
(lp6051
g160
asbag62
(g83
g64
NtRp6052
(dp6053
g67
(dp6054
g94
g95
ssg76
g6044
sg69
(lp6055
S':'
asbag62
(g83
g64
NtRp6056
(dp6057
g67
(dp6058
sg76
g6044
sg69
(lp6059
g62
(g63
g64
NtRp6060
(dp6061
g67
(dp6062
g75
I5
ssg76
g6056
sg69
(lp6063
S'<cStringIO.StringO object at 0x0000000009112148>'
p6064
asbasbasbag62
(g78
g64
NtRp6065
(dp6066
g67
(dp6067
sg76
g6040
sg69
(lp6068
g62
(g83
g64
NtRp6069
(dp6070
g67
(dp6071
g87
g88
ssg76
g6065
sg69
(lp6072
g248
asbag62
(g83
g64
NtRp6073
(dp6074
g67
(dp6075
g94
g95
ssg76
g6065
sg69
(lp6076
S':'
asbag62
(g83
g64
NtRp6077
(dp6078
g67
(dp6079
sg76
g6065
sg69
(lp6080
g62
(g63
g64
NtRp6081
(dp6082
g67
(dp6083
g75
I5
ssg76
g6077
sg69
(lp6084
g62
(g71
g64
NtRp6085
(dp6086
g67
(dp6087
g75
I4
ssg76
Nsg69
(lp6088
g62
(g78
g64
NtRp6089
(dp6090
g67
(dp6091
sg76
g6085
sg69
(lp6092
g62
(g83
g64
NtRp6093
(dp6094
g67
(dp6095
g87
g88
ssg76
g6089
sg69
(lp6096
S'session_id_admin'
p6097
asbag62
(g83
g64
NtRp6098
(dp6099
g67
(dp6100
g94
g95
ssg76
g6089
sg69
(lp6101
S':'
asbag62
(g83
g64
NtRp6102
(dp6103
g67
(dp6104
sg76
g6089
sg69
(lp6105
g62
(g63
g64
NtRp6106
(dp6107
g67
(dp6108
g75
I4
ssg76
g6102
sg69
(lp6109
g286
ag62
(g71
g64
NtRp6110
(dp6111
g67
(dp6112
g75
I3
ssg76
Nsg69
(lp6113
g62
(g78
g64
NtRp6114
(dp6115
g67
(dp6116
sg76
g6110
sg69
(lp6117
g62
(g83
g64
NtRp6118
(dp6119
g67
(dp6120
g87
g88
ssg76
g6114
sg69
(lp6121
g299
asbag62
(g83
g64
NtRp6122
(dp6123
g67
(dp6124
g94
g95
ssg76
g6114
sg69
(lp6125
S':'
asbag62
(g83
g64
NtRp6126
(dp6127
g67
(dp6128
sg76
g6114
sg69
(lp6129
g62
(g63
g64
NtRp6130
(dp6131
g67
(dp6132
g75
I3
ssg76
g6126
sg69
(lp6133
S''
asbasbasbag62
(g78
g64
NtRp6134
(dp6135
g67
(dp6136
sg76
g6110
sg69
(lp6137
g62
(g83
g64
NtRp6138
(dp6139
g67
(dp6140
g87
g88
ssg76
g6134
sg69
(lp6141
g320
asbag62
(g83
g64
NtRp6142
(dp6143
g67
(dp6144
g94
g95
ssg76
g6134
sg69
(lp6145
S':'
asbag62
(g83
g64
NtRp6146
(dp6147
g67
(dp6148
sg76
g6134
sg69
(lp6149
g62
(g63
g64
NtRp6150
(dp6151
g67
(dp6152
g75
I3
ssg76
g6146
sg69
(lp6153
S''
asbasbasbag62
(g78
g64
NtRp6154
(dp6155
g67
(dp6156
sg76
g6110
sg69
(lp6157
g62
(g83
g64
NtRp6158
(dp6159
g67
(dp6160
g87
g88
ssg76
g6154
sg69
(lp6161
g341
asbag62
(g83
g64
NtRp6162
(dp6163
g67
(dp6164
g94
g95
ssg76
g6154
sg69
(lp6165
S':'
asbag62
(g83
g64
NtRp6166
(dp6167
g67
(dp6168
sg76
g6154
sg69
(lp6169
g62
(g63
g64
NtRp6170
(dp6171
g67
(dp6172
g75
I3
ssg76
g6166
sg69
(lp6173
S''
asbasbasbag62
(g78
g64
NtRp6174
(dp6175
g67
(dp6176
sg76
g6110
sg69
(lp6177
g62
(g83
g64
NtRp6178
(dp6179
g67
(dp6180
g87
g88
ssg76
g6174
sg69
(lp6181
g362
asbag62
(g83
g64
NtRp6182
(dp6183
g67
(dp6184
g94
g95
ssg76
g6174
sg69
(lp6185
S':'
asbag62
(g83
g64
NtRp6186
(dp6187
g67
(dp6188
sg76
g6174
sg69
(lp6189
g62
(g63
g64
NtRp6190
(dp6191
g67
(dp6192
g75
I3
ssg76
g6186
sg69
(lp6193
S''
asbasbasbag62
(g78
g64
NtRp6194
(dp6195
g67
(dp6196
sg76
g6110
sg69
(lp6197
g62
(g83
g64
NtRp6198
(dp6199
g67
(dp6200
g87
g88
ssg76
g6194
sg69
(lp6201
g383
asbag62
(g83
g64
NtRp6202
(dp6203
g67
(dp6204
g94
g95
ssg76
g6194
sg69
(lp6205
S':'
asbag62
(g83
g64
NtRp6206
(dp6207
g67
(dp6208
sg76
g6194
sg69
(lp6209
g62
(g63
g64
NtRp6210
(dp6211
g67
(dp6212
g75
I3
ssg76
g6206
sg69
(lp6213
S''
asbasbasbag62
(g78
g64
NtRp6214
(dp6215
g67
(dp6216
sg76
g6110
sg69
(lp6217
g62
(g83
g64
NtRp6218
(dp6219
g67
(dp6220
g87
g88
ssg76
g6214
sg69
(lp6221
g404
asbag62
(g83
g64
NtRp6222
(dp6223
g67
(dp6224
g94
g95
ssg76
g6214
sg69
(lp6225
S':'
asbag62
(g83
g64
NtRp6226
(dp6227
g67
(dp6228
sg76
g6214
sg69
(lp6229
g62
(g63
g64
NtRp6230
(dp6231
g67
(dp6232
g75
I3
ssg76
g6226
sg69
(lp6233
S'/'
asbasbasbag62
(g78
g64
NtRp6234
(dp6235
g67
(dp6236
sg76
g6110
sg69
(lp6237
g62
(g83
g64
NtRp6238
(dp6239
g67
(dp6240
g87
g88
ssg76
g6234
sg69
(lp6241
g425
asbag62
(g83
g64
NtRp6242
(dp6243
g67
(dp6244
g94
g95
ssg76
g6234
sg69
(lp6245
S':'
asbag62
(g83
g64
NtRp6246
(dp6247
g67
(dp6248
sg76
g6234
sg69
(lp6249
g62
(g63
g64
NtRp6250
(dp6251
g67
(dp6252
g75
I3
ssg76
g6246
sg69
(lp6253
S''
asbasbasbag62
(g78
g64
NtRp6254
(dp6255
g67
(dp6256
sg76
g6110
sg69
(lp6257
g62
(g83
g64
NtRp6258
(dp6259
g67
(dp6260
g87
g88
ssg76
g6254
sg69
(lp6261
g446
asbag62
(g83
g64
NtRp6262
(dp6263
g67
(dp6264
g94
g95
ssg76
g6254
sg69
(lp6265
S':'
asbag62
(g83
g64
NtRp6266
(dp6267
g67
(dp6268
sg76
g6254
sg69
(lp6269
g62
(g63
g64
NtRp6270
(dp6271
g67
(dp6272
g75
I3
ssg76
g6266
sg69
(lp6273
S''
asbasbasbasbasbasbasbasbasbasbasbag62
(g78
g64
NtRp6274
(dp6275
g67
(dp6276
sg76
g6040
sg69
(lp6277
g62
(g83
g64
NtRp6278
(dp6279
g67
(dp6280
g87
g88
ssg76
g6274
sg69
(lp6281
S'delimiters'
p6282
asbag62
(g83
g64
NtRp6283
(dp6284
g67
(dp6285
g94
g95
ssg76
g6274
sg69
(lp6286
S':'
asbag62
(g83
g64
NtRp6287
(dp6288
g67
(dp6289
sg76
g6274
sg69
(lp6290
g62
(g63
g64
NtRp6291
(dp6292
g67
(dp6293
g75
I5
ssg76
g6287
sg69
(lp6294
g62
(g71
g64
NtRp6295
(dp6296
g67
(dp6297
g75
I4
ssg76
Nsg69
(lp6298
g62
(g78
g64
NtRp6299
(dp6300
g67
(dp6301
sg76
g6295
sg69
(lp6302
g62
(g83
g64
NtRp6303
(dp6304
g67
(dp6305
sg76
g6299
sg69
(lp6306
g62
(g63
g64
NtRp6307
(dp6308
g67
(dp6309
g75
I4
ssg76
g6303
sg69
(lp6310
S'{{'
p6311
asbasbasbag62
(g78
g64
NtRp6312
(dp6313
g67
(dp6314
sg76
g6295
sg69
(lp6315
g62
(g83
g64
NtRp6316
(dp6317
g67
(dp6318
sg76
g6312
sg69
(lp6319
g62
(g63
g64
NtRp6320
(dp6321
g67
(dp6322
g75
I4
ssg76
g6316
sg69
(lp6323
S'}}'
p6324
asbasbasbasbasbasbasbag62
(g78
g64
NtRp6325
(dp6326
g67
(dp6327
sg76
g6040
sg69
(lp6328
g62
(g83
g64
NtRp6329
(dp6330
g67
(dp6331
g87
g88
ssg76
g6325
sg69
(lp6332
S'files'
p6333
asbag62
(g83
g64
NtRp6334
(dp6335
g67
(dp6336
g94
g95
ssg76
g6325
sg69
(lp6337
S':'
asbag62
(g83
g64
NtRp6338
(dp6339
g67
(dp6340
sg76
g6325
sg69
(lp6341
g62
(g63
g64
NtRp6342
(dp6343
g67
(dp6344
g75
I5
ssg76
g6338
sg69
(lp6345
g62
(g71
g64
NtRp6346
(dp6347
g67
(dp6348
g75
I4
ssg76
Nsg69
(lp6349
g62
(g78
g64
NtRp6350
(dp6351
g67
(dp6352
sg76
g6346
sg69
(lp6353
g62
(g83
g64
NtRp6354
(dp6355
g67
(dp6356
sg76
g6350
sg69
(lp6357
g62
(g63
g64
NtRp6358
(dp6359
g67
(dp6360
g75
I4
ssg76
g6354
sg69
(lp6361
S'/admin/static/plugin_multiselect/jquery.multi-select.js'
p6362
asbasbasbag62
(g78
g64
NtRp6363
(dp6364
g67
(dp6365
sg76
g6346
sg69
(lp6366
g62
(g83
g64
NtRp6367
(dp6368
g67
(dp6369
sg76
g6363
sg69
(lp6370
g62
(g63
g64
NtRp6371
(dp6372
g67
(dp6373
g75
I4
ssg76
g6367
sg69
(lp6374
S'/admin/static/plugin_multiselect/multi-select.css'
p6375
asbasbasbag62
(g78
g64
NtRp6376
(dp6377
g67
(dp6378
sg76
g6346
sg69
(lp6379
g62
(g83
g64
NtRp6380
(dp6381
g67
(dp6382
sg76
g6376
sg69
(lp6383
g62
(g63
g64
NtRp6384
(dp6385
g67
(dp6386
g75
I4
ssg76
g6380
sg69
(lp6387
S'/admin/static/plugin_multiselect/start.js'
p6388
asbasbasbasbasbasbasbag62
(g78
g64
NtRp6389
(dp6390
g67
(dp6391
sg76
g6040
sg69
(lp6392
g62
(g83
g64
NtRp6393
(dp6394
g67
(dp6395
g87
g88
ssg76
g6389
sg69
(lp6396
S'flash'
p6397
asbag62
(g83
g64
NtRp6398
(dp6399
g67
(dp6400
g94
g95
ssg76
g6389
sg69
(lp6401
S':'
asbag62
(g83
g64
NtRp6402
(dp6403
g67
(dp6404
sg76
g6389
sg69
(lp6405
g62
(g63
g64
NtRp6406
(dp6407
g67
(dp6408
g75
I5
ssg76
g6402
sg69
(lp6409
S''
asbasbasbag62
(g78
g64
NtRp6410
(dp6411
g67
(dp6412
sg76
g6040
sg69
(lp6413
g62
(g83
g64
NtRp6414
(dp6415
g67
(dp6416
g87
g88
ssg76
g6410
sg69
(lp6417
S'generic_patterns'
p6418
asbag62
(g83
g64
NtRp6419
(dp6420
g67
(dp6421
g94
g95
ssg76
g6410
sg69
(lp6422
S':'
asbag62
(g83
g64
NtRp6423
(dp6424
g67
(dp6425
sg76
g6410
sg69
(lp6426
g62
(g63
g64
NtRp6427
(dp6428
g67
(dp6429
g75
I5
ssg76
g6423
sg69
(lp6430
g62
(g71
g64
NtRp6431
(dp6432
g67
(dp6433
g75
I4
ssg76
Nsg69
(lp6434
sbasbasbasbag62
(g78
g64
NtRp6435
(dp6436
g67
(dp6437
sg76
g6040
sg69
(lp6438
g62
(g83
g64
NtRp6439
(dp6440
g67
(dp6441
g87
g88
ssg76
g6435
sg69
(lp6442
S'headers'
p6443
asbag62
(g83
g64
NtRp6444
(dp6445
g67
(dp6446
g94
g95
ssg76
g6435
sg69
(lp6447
S':'
asbag62
(g83
g64
NtRp6448
(dp6449
g67
(dp6450
sg76
g6435
sg69
(lp6451
g62
(g63
g64
NtRp6452
(dp6453
g67
(dp6454
g75
I5
ssg76
g6448
sg69
(lp6455
g62
(g71
g64
NtRp6456
(dp6457
g67
(dp6458
g75
I4
ssg76
Nsg69
(lp6459
g62
(g78
g64
NtRp6460
(dp6461
g67
(dp6462
sg76
g6456
sg69
(lp6463
g62
(g83
g64
NtRp6464
(dp6465
g67
(dp6466
g87
g88
ssg76
g6460
sg69
(lp6467
S'X-Powered-By'
p6468
asbag62
(g83
g64
NtRp6469
(dp6470
g67
(dp6471
g94
g95
ssg76
g6460
sg69
(lp6472
S':'
asbag62
(g83
g64
NtRp6473
(dp6474
g67
(dp6475
sg76
g6460
sg69
(lp6476
g62
(g63
g64
NtRp6477
(dp6478
g67
(dp6479
g75
I4
ssg76
g6473
sg69
(lp6480
S'web2py'
p6481
asbasbasbasbasbasbasbag62
(g78
g64
NtRp6482
(dp6483
g67
(dp6484
sg76
g6040
sg69
(lp6485
g62
(g83
g64
NtRp6486
(dp6487
g67
(dp6488
g87
g88
ssg76
g6482
sg69
(lp6489
S'menu'
p6490
asbag62
(g83
g64
NtRp6491
(dp6492
g67
(dp6493
g94
g95
ssg76
g6482
sg69
(lp6494
S':'
asbag62
(g83
g64
NtRp6495
(dp6496
g67
(dp6497
sg76
g6482
sg69
(lp6498
g62
(g63
g64
NtRp6499
(dp6500
g67
(dp6501
g75
I5
ssg76
g6495
sg69
(lp6502
g62
(g71
g64
NtRp6503
(dp6504
g67
(dp6505
g75
I4
ssg76
Nsg69
(lp6506
g62
(g78
g64
NtRp6507
(dp6508
g67
(dp6509
sg76
g6503
sg69
(lp6510
g62
(g83
g64
NtRp6511
(dp6512
g67
(dp6513
sg76
g6507
sg69
(lp6514
g62
(g63
g64
NtRp6515
(dp6516
g67
(dp6517
g75
I4
ssg76
g6511
sg69
(lp6518
g62
(g71
g64
NtRp6519
(dp6520
g67
(dp6521
g75
I3
ssg76
Nsg69
(lp6522
g62
(g78
g64
NtRp6523
(dp6524
g67
(dp6525
sg76
g6519
sg69
(lp6526
g62
(g83
g64
NtRp6527
(dp6528
g67
(dp6529
sg76
g6523
sg69
(lp6530
g62
(g63
g64
NtRp6531
(dp6532
g67
(dp6533
g75
I3
ssg76
g6527
sg69
(lp6534
cgluon.languages
lazyT_unpickle
p6535
(S's\x04\x00\x00\x00Site'
tRp6536
asbasbasbag62
(g78
g64
NtRp6537
(dp6538
g67
(dp6539
sg76
g6519
sg69
(lp6540
g62
(g83
g64
NtRp6541
(dp6542
g67
(dp6543
sg76
g6537
sg69
(lp6544
g62
(g63
g64
NtRp6545
(dp6546
g67
(dp6547
g75
I3
ssg76
g6541
sg69
(lp6548
g105
asbasbasbag62
(g78
g64
NtRp6549
(dp6550
g67
(dp6551
sg76
g6519
sg69
(lp6552
g62
(g83
g64
NtRp6553
(dp6554
g67
(dp6555
sg76
g6549
sg69
(lp6556
g62
(g63
g64
NtRp6557
(dp6558
g67
(dp6559
g75
I3
ssg76
g6553
sg69
(lp6560
S'/admin/default/site'
p6561
asbasbasbasbasbasbasbag62
(g78
g64
NtRp6562
(dp6563
g67
(dp6564
sg76
g6503
sg69
(lp6565
g62
(g83
g64
NtRp6566
(dp6567
g67
(dp6568
sg76
g6562
sg69
(lp6569
g62
(g63
g64
NtRp6570
(dp6571
g67
(dp6572
g75
I4
ssg76
g6566
sg69
(lp6573
g62
(g71
g64
NtRp6574
(dp6575
g67
(dp6576
g75
I3
ssg76
Nsg69
(lp6577
g62
(g78
g64
NtRp6578
(dp6579
g67
(dp6580
sg76
g6574
sg69
(lp6581
g62
(g83
g64
NtRp6582
(dp6583
g67
(dp6584
sg76
g6578
sg69
(lp6585
g62
(g63
g64
NtRp6586
(dp6587
g67
(dp6588
g75
I3
ssg76
g6582
sg69
(lp6589
g6535
(S's\x06\x00\x00\x00Logout'
tRp6590
asbasbasbag62
(g78
g64
NtRp6591
(dp6592
g67
(dp6593
sg76
g6574
sg69
(lp6594
g62
(g83
g64
NtRp6595
(dp6596
g67
(dp6597
sg76
g6591
sg69
(lp6598
g62
(g63
g64
NtRp6599
(dp6600
g67
(dp6601
g75
I3
ssg76
g6595
sg69
(lp6602
g105
asbasbasbag62
(g78
g64
NtRp6603
(dp6604
g67
(dp6605
sg76
g6574
sg69
(lp6606
g62
(g83
g64
NtRp6607
(dp6608
g67
(dp6609
sg76
g6603
sg69
(lp6610
g62
(g63
g64
NtRp6611
(dp6612
g67
(dp6613
g75
I3
ssg76
g6607
sg69
(lp6614
S'/admin/default/logout'
p6615
asbasbasbasbasbasbasbag62
(g78
g64
NtRp6616
(dp6617
g67
(dp6618
sg76
g6503
sg69
(lp6619
g62
(g83
g64
NtRp6620
(dp6621
g67
(dp6622
sg76
g6616
sg69
(lp6623
g62
(g63
g64
NtRp6624
(dp6625
g67
(dp6626
g75
I4
ssg76
g6620
sg69
(lp6627
g62
(g71
g64
NtRp6628
(dp6629
g67
(dp6630
g75
I3
ssg76
Nsg69
(lp6631
g62
(g78
g64
NtRp6632
(dp6633
g67
(dp6634
sg76
g6628
sg69
(lp6635
g62
(g83
g64
NtRp6636
(dp6637
g67
(dp6638
sg76
g6632
sg69
(lp6639
g62
(g63
g64
NtRp6640
(dp6641
g67
(dp6642
g75
I3
ssg76
g6636
sg69
(lp6643
g6535
(S's\x05\x00\x00\x00Debug'
tRp6644
asbasbasbag62
(g78
g64
NtRp6645
(dp6646
g67
(dp6647
sg76
g6628
sg69
(lp6648
g62
(g83
g64
NtRp6649
(dp6650
g67
(dp6651
sg76
g6645
sg69
(lp6652
g62
(g63
g64
NtRp6653
(dp6654
g67
(dp6655
g75
I3
ssg76
g6649
sg69
(lp6656
g105
asbasbasbag62
(g78
g64
NtRp6657
(dp6658
g67
(dp6659
sg76
g6628
sg69
(lp6660
g62
(g83
g64
NtRp6661
(dp6662
g67
(dp6663
sg76
g6657
sg69
(lp6664
g62
(g63
g64
NtRp6665
(dp6666
g67
(dp6667
g75
I3
ssg76
g6661
sg69
(lp6668
S'/admin/debug/interact'
p6669
asbasbasbasbasbasbasbag62
(g78
g64
NtRp6670
(dp6671
g67
(dp6672
sg76
g6503
sg69
(lp6673
g62
(g83
g64
NtRp6674
(dp6675
g67
(dp6676
sg76
g6670
sg69
(lp6677
g62
(g63
g64
NtRp6678
(dp6679
g67
(dp6680
g75
I4
ssg76
g6674
sg69
(lp6681
g62
(g71
g64
NtRp6682
(dp6683
g67
(dp6684
g75
I3
ssg76
Nsg69
(lp6685
g62
(g78
g64
NtRp6686
(dp6687
g67
(dp6688
sg76
g6682
sg69
(lp6689
g62
(g83
g64
NtRp6690
(dp6691
g67
(dp6692
sg76
g6686
sg69
(lp6693
g62
(g63
g64
NtRp6694
(dp6695
g67
(dp6696
g75
I3
ssg76
g6690
sg69
(lp6697
g6535
(S's\x04\x00\x00\x00Help'
tRp6698
asbasbasbag62
(g78
g64
NtRp6699
(dp6700
g67
(dp6701
sg76
g6682
sg69
(lp6702
g62
(g83
g64
NtRp6703
(dp6704
g67
(dp6705
sg76
g6699
sg69
(lp6706
g62
(g63
g64
NtRp6707
(dp6708
g67
(dp6709
g75
I3
ssg76
g6703
sg69
(lp6710
g105
asbasbasbag62
(g78
g64
NtRp6711
(dp6712
g67
(dp6713
sg76
g6682
sg69
(lp6714
g62
(g83
g64
NtRp6715
(dp6716
g67
(dp6717
sg76
g6711
sg69
(lp6718
g62
(g63
g64
NtRp6719
(dp6720
g67
(dp6721
g75
I3
ssg76
g6715
sg69
(lp6722
S'http://web2py.com/examples'
p6723
asbasbasbasbasbasbasbasbasbasbasbag62
(g78
g64
NtRp6724
(dp6725
g67
(dp6726
sg76
g6040
sg69
(lp6727
g62
(g83
g64
NtRp6728
(dp6729
g67
(dp6730
g87
g88
ssg76
g6724
sg69
(lp6731
S'meta'
p6732
asbag62
(g83
g64
NtRp6733
(dp6734
g67
(dp6735
g94
g95
ssg76
g6724
sg69
(lp6736
S':'
asbag62
(g83
g64
NtRp6737
(dp6738
g67
(dp6739
sg76
g6724
sg69
(lp6740
g62
(g63
g64
NtRp6741
(dp6742
g67
(dp6743
g75
I5
ssg76
g6737
sg69
(lp6744
g62
(g71
g64
NtRp6745
(dp6746
g67
(dp6747
g75
I4
ssg76
Nsg69
(lp6748
sbasbasbasbag62
(g78
g64
NtRp6749
(dp6750
g67
(dp6751
sg76
g6040
sg69
(lp6752
g62
(g83
g64
NtRp6753
(dp6754
g67
(dp6755
g87
g88
ssg76
g6749
sg69
(lp6756
S'models_to_run'
p6757
asbag62
(g83
g64
NtRp6758
(dp6759
g67
(dp6760
g94
g95
ssg76
g6749
sg69
(lp6761
S':'
asbag62
(g83
g64
NtRp6762
(dp6763
g67
(dp6764
sg76
g6749
sg69
(lp6765
g62
(g63
g64
NtRp6766
(dp6767
g67
(dp6768
g75
I5
ssg76
g6762
sg69
(lp6769
g62
(g71
g64
NtRp6770
(dp6771
g67
(dp6772
g75
I4
ssg76
Nsg69
(lp6773
g62
(g78
g64
NtRp6774
(dp6775
g67
(dp6776
sg76
g6770
sg69
(lp6777
g62
(g83
g64
NtRp6778
(dp6779
g67
(dp6780
sg76
g6774
sg69
(lp6781
g62
(g63
g64
NtRp6782
(dp6783
g67
(dp6784
g75
I4
ssg76
g6778
sg69
(lp6785
S'^\\w+\\.py$'
p6786
asbasbasbag62
(g78
g64
NtRp6787
(dp6788
g67
(dp6789
sg76
g6770
sg69
(lp6790
g62
(g83
g64
NtRp6791
(dp6792
g67
(dp6793
sg76
g6787
sg69
(lp6794
g62
(g63
g64
NtRp6795
(dp6796
g67
(dp6797
g75
I4
ssg76
g6791
sg69
(lp6798
S'^wizard/\\w+\\.py$'
p6799
asbasbasbag62
(g78
g64
NtRp6800
(dp6801
g67
(dp6802
sg76
g6770
sg69
(lp6803
g62
(g83
g64
NtRp6804
(dp6805
g67
(dp6806
sg76
g6800
sg69
(lp6807
g62
(g63
g64
NtRp6808
(dp6809
g67
(dp6810
g75
I4
ssg76
g6804
sg69
(lp6811
S'^wizard/step6/\\w+\\.py$'
p6812
asbasbasbasbasbasbasbag62
(g78
g64
NtRp6813
(dp6814
g67
(dp6815
sg76
g6040
sg69
(lp6816
g62
(g83
g64
NtRp6817
(dp6818
g67
(dp6819
g87
g88
ssg76
g6813
sg69
(lp6820
S'postprocessing'
p6821
asbag62
(g83
g64
NtRp6822
(dp6823
g67
(dp6824
g94
g95
ssg76
g6813
sg69
(lp6825
S':'
asbag62
(g83
g64
NtRp6826
(dp6827
g67
(dp6828
sg76
g6813
sg69
(lp6829
g62
(g63
g64
NtRp6830
(dp6831
g67
(dp6832
g75
I5
ssg76
g6826
sg69
(lp6833
g62
(g71
g64
NtRp6834
(dp6835
g67
(dp6836
g75
I4
ssg76
Nsg69
(lp6837
sbasbasbasbag62
(g78
g64
NtRp6838
(dp6839
g67
(dp6840
sg76
g6040
sg69
(lp6841
g62
(g83
g64
NtRp6842
(dp6843
g67
(dp6844
g87
g88
ssg76
g6838
sg69
(lp6845
S'session_file'
p6846
asbag62
(g83
g64
NtRp6847
(dp6848
g67
(dp6849
g94
g95
ssg76
g6838
sg69
(lp6850
S':'
asbag62
(g83
g64
NtRp6851
(dp6852
g67
(dp6853
sg76
g6838
sg69
(lp6854
g62
(g63
g64
NtRp6855
(dp6856
g67
(dp6857
g75
I5
ssg76
g6851
sg69
(lp6858
S"<open file 'C:\\Users\\admin\\Desktop\\Sathvik\\Tharuni.Org\\applications\\admin\\sessions\\127.0.0.1-b09474c4-74c6-4bff-864d-e3d6c3b6e87e', mode 'rb+' at 0x000000000450CF60>"
p6859
asbasbasbag62
(g78
g64
NtRp6860
(dp6861
g67
(dp6862
sg76
g6040
sg69
(lp6863
g62
(g83
g64
NtRp6864
(dp6865
g67
(dp6866
g87
g88
ssg76
g6860
sg69
(lp6867
S'session_filename'
p6868
asbag62
(g83
g64
NtRp6869
(dp6870
g67
(dp6871
g94
g95
ssg76
g6860
sg69
(lp6872
S':'
asbag62
(g83
g64
NtRp6873
(dp6874
g67
(dp6875
sg76
g6860
sg69
(lp6876
g62
(g63
g64
NtRp6877
(dp6878
g67
(dp6879
g75
I5
ssg76
g6873
sg69
(lp6880
S'C:\\Users\\admin\\Desktop\\Sathvik\\Tharuni.Org\\applications\\admin\\sessions\\127.0.0.1-b09474c4-74c6-4bff-864d-e3d6c3b6e87e'
p6881
asbasbasbag62
(g78
g64
NtRp6882
(dp6883
g67
(dp6884
sg76
g6040
sg69
(lp6885
g62
(g83
g64
NtRp6886
(dp6887
g67
(dp6888
g87
g88
ssg76
g6882
sg69
(lp6889
S'session_id'
p6890
asbag62
(g83
g64
NtRp6891
(dp6892
g67
(dp6893
g94
g95
ssg76
g6882
sg69
(lp6894
S':'
asbag62
(g83
g64
NtRp6895
(dp6896
g67
(dp6897
sg76
g6882
sg69
(lp6898
g62
(g63
g64
NtRp6899
(dp6900
g67
(dp6901
g75
I5
ssg76
g6895
sg69
(lp6902
g286
asbasbasbag62
(g78
g64
NtRp6903
(dp6904
g67
(dp6905
sg76
g6040
sg69
(lp6906
g62
(g83
g64
NtRp6907
(dp6908
g67
(dp6909
g87
g88
ssg76
g6903
sg69
(lp6910
S'session_id_name'
p6911
asbag62
(g83
g64
NtRp6912
(dp6913
g67
(dp6914
g94
g95
ssg76
g6903
sg69
(lp6915
S':'
asbag62
(g83
g64
NtRp6916
(dp6917
g67
(dp6918
sg76
g6903
sg69
(lp6919
g62
(g63
g64
NtRp6920
(dp6921
g67
(dp6922
g75
I5
ssg76
g6916
sg69
(lp6923
g6097
asbasbasbag62
(g78
g64
NtRp6924
(dp6925
g67
(dp6926
sg76
g6040
sg69
(lp6927
g62
(g83
g64
NtRp6928
(dp6929
g67
(dp6930
g87
g88
ssg76
g6924
sg69
(lp6931
S'session_locked'
p6932
asbag62
(g83
g64
NtRp6933
(dp6934
g67
(dp6935
g94
g95
ssg76
g6924
sg69
(lp6936
S':'
asbag62
(g83
g64
NtRp6937
(dp6938
g67
(dp6939
sg76
g6924
sg69
(lp6940
g62
(g63
g64
NtRp6941
(dp6942
g67
(dp6943
g75
I5
ssg76
g6937
sg69
(lp6944
g1693
asbasbasbag62
(g78
g64
NtRp6945
(dp6946
g67
(dp6947
sg76
g6040
sg69
(lp6948
g62
(g83
g64
NtRp6949
(dp6950
g67
(dp6951
g87
g88
ssg76
g6945
sg69
(lp6952
S'session_new'
p6953
asbag62
(g83
g64
NtRp6954
(dp6955
g67
(dp6956
g94
g95
ssg76
g6945
sg69
(lp6957
S':'
asbag62
(g83
g64
NtRp6958
(dp6959
g67
(dp6960
sg76
g6945
sg69
(lp6961
g62
(g63
g64
NtRp6962
(dp6963
g67
(dp6964
g75
I5
ssg76
g6958
sg69
(lp6965
g105
asbasbasbag62
(g78
g64
NtRp6966
(dp6967
g67
(dp6968
sg76
g6040
sg69
(lp6969
g62
(g83
g64
NtRp6970
(dp6971
g67
(dp6972
g87
g88
ssg76
g6966
sg69
(lp6973
S'status'
p6974
asbag62
(g83
g64
NtRp6975
(dp6976
g67
(dp6977
g94
g95
ssg76
g6966
sg69
(lp6978
S':'
asbag62
(g83
g64
NtRp6979
(dp6980
g67
(dp6981
sg76
g6966
sg69
(lp6982
g62
(g63
g64
NtRp6983
(dp6984
g67
(dp6985
g75
I5
ssg76
g6979
sg69
(lp6986
S'200'
p6987
asbasbasbag62
(g78
g64
NtRp6988
(dp6989
g67
(dp6990
sg76
g6040
sg69
(lp6991
g62
(g83
g64
NtRp6992
(dp6993
g67
(dp6994
g87
g88
ssg76
g6988
sg69
(lp6995
S'subtitle'
p6996
asbag62
(g83
g64
NtRp6997
(dp6998
g67
(dp6999
g94
g95
ssg76
g6988
sg69
(lp7000
S':'
asbag62
(g83
g64
NtRp7001
(dp7002
g67
(dp7003
sg76
g6988
sg69
(lp7004
g62
(g63
g64
NtRp7005
(dp7006
g67
(dp7007
g75
I5
ssg76
g7001
sg69
(lp7008
S'admin'
p7009
asbasbasbag62
(g78
g64
NtRp7010
(dp7011
g67
(dp7012
sg76
g6040
sg69
(lp7013
g62
(g83
g64
NtRp7014
(dp7015
g67
(dp7016
g87
g88
ssg76
g7010
sg69
(lp7017
S'title'
p7018
asbag62
(g83
g64
NtRp7019
(dp7020
g67
(dp7021
g94
g95
ssg76
g7010
sg69
(lp7022
S':'
asbag62
(g83
g64
NtRp7023
(dp7024
g67
(dp7025
sg76
g7010
sg69
(lp7026
g62
(g63
g64
NtRp7027
(dp7028
g67
(dp7029
g75
I5
ssg76
g7023
sg69
(lp7030
S'step6 '
p7031
asbasbasbag62
(g78
g64
NtRp7032
(dp7033
g67
(dp7034
sg76
g6040
sg69
(lp7035
g62
(g83
g64
NtRp7036
(dp7037
g67
(dp7038
g87
g88
ssg76
g7032
sg69
(lp7039
S'view'
p7040
asbag62
(g83
g64
NtRp7041
(dp7042
g67
(dp7043
g94
g95
ssg76
g7032
sg69
(lp7044
S':'
asbag62
(g83
g64
NtRp7045
(dp7046
g67
(dp7047
sg76
g7032
sg69
(lp7048
g62
(g63
g64
NtRp7049
(dp7050
g67
(dp7051
g75
I5
ssg76
g7045
sg69
(lp7052
S'wizard/step.html'
p7053
asbasbasbasbasbsS'locals'
p7054
(dp7055
S'mode'
p7056
S"'rb'"
p7057
sg35
S"r'C:\\Users\\admin\\Desktop\\Sathvik\\Tharuni.Org\\applications\\admin\\..\\tharuni\\models\\db.py'"
p7058
sssS'traceback'
p7059
S'Traceback (most recent call last):\n  File "C:\\Users\\admin\\Desktop\\Sathvik\\Tharuni.Org\\gluon\\restricted.py", line 209, in restricted\n    exec ccode in environment\n  File "C:\\Users\\admin\\Desktop\\Sathvik\\Tharuni.Org\\applications\\admin\\controllers/wizard.py", line 560, in <module>\n  File "C:\\Users\\admin\\Desktop\\Sathvik\\Tharuni.Org\\gluon\\globals.py", line 186, in <lambda>\n    self._caller = lambda f: f()\n  File "C:\\Users\\admin\\Desktop\\Sathvik\\Tharuni.Org\\applications\\admin\\controllers/wizard.py", line 228, in step6\n    create(form.vars)\n  File "C:\\Users\\admin\\Desktop\\Sathvik\\Tharuni.Org\\applications\\admin\\controllers/wizard.py", line 501, in create\n    fix_db(model)\n  File "C:\\Users\\admin\\Desktop\\Sathvik\\Tharuni.Org\\applications\\admin\\controllers/wizard.py", line 368, in fix_db\n    content = read_file(filename,\'rb\')\n  File "C:\\Users\\admin\\Desktop\\Sathvik\\Tharuni.Org\\gluon\\fileutils.py", line 55, in read_file\n    f = open(filename, mode)\nIOError: [Errno 2] No such file or directory: \'C:\\\\Users\\\\admin\\\\Desktop\\\\Sathvik\\\\Tharuni.Org\\\\applications\\\\admin\\\\..\\\\tharuni\\\\models\\\\db.py\'\n'
p7060
s.