(dp1
S'output'
p2
S"<type 'exceptions.IOError'> [Errno 2] No such file or directory: 'C:\\\\Users\\\\admin\\\\Desktop\\\\Sathvik\\\\Tharuni.Org\\\\applications\\\\admin\\\\..\\\\tharuni\\\\models\\\\db.py'"
p3
sS'layer'
p4
S'C:\\Users\\admin\\Desktop\\Sathvik\\Tharuni.Org\\applications\\admin\\controllers/wizard.py'
p5
sS'code'
p6
S'# -*- coding: utf-8 -*-\n\nimport os, uuid, re, pickle, urllib, glob\nfrom gluon.admin import app_create, plugin_install\nfrom gluon.fileutils import abspath, read_file, write_file\n\ndef reset(session):\n    session.app={\n        \'name\':\'\',\n        \'params\':[(\'title\',\'My New App\'),\n                  (\'subtitle\',\'powered by web2py\'),\n                  (\'author\',\'you\'),\n                  (\'author_email\',\'you@example.com\'),\n                  (\'keywords\',\'\'),\n                  (\'description\',\'\'),\n                  (\'layout_theme\',\'Default\'),\n                  (\'database_uri\',\'sqlite://storage.sqlite\'),\n                  (\'security_key\',str(uuid.uuid4())),\n                  (\'email_server\',\'localhost\'),\n                  (\'email_sender\',\'you@example.com\'),\n                  (\'email_login\',\'\'),\n                  (\'login_method\',\'local\'),\n                  (\'login_config\',\'\'),\n                  (\'plugins\',[])],\n        \'tables\':[\'auth_user\'],\n        \'table_auth_user\':[\'username\',\'first_name\',\n                           \'last_name\',\'email\',\'password\'],\n        \'pages\':[\'index\',\'error\'],\n        \'page_index\':\'# Welcome to my new app\',\n        \'page_error\':\'# Error: the document does not exist\',\n        }\n\nif not session.app: reset(session)\n\ndef listify(x):\n    if not isinstance(x,(list,tuple)):\n        return x and [x] or []\n    return x\n\ndef clean(name):\n    return re.sub(\'\\W+\',\'_\',name.strip().lower())\n\ndef index():\n    response.view=\'wizard/step.html\'\n    reset(session)\n    apps=os.listdir(os.path.join(request.folder,\'..\'))\n    form=SQLFORM.factory(Field(\'name\',requires=[IS_NOT_EMPTY(),\n                                                IS_ALPHANUMERIC()]))\n    if form.accepts(request.vars):\n        app = form.vars.name\n        session.app[\'name\'] = app\n        if MULTI_USER_MODE and db(db.app.name==app)\\\n                (db.app.owner!=auth.user.id).count():\n            session.flash = \'App belongs already to other user\'\n        elif app in apps:\n            meta = os.path.normpath(\\\n                os.path.join(os.path.normpath(request.folder),\n                             \'..\',app,\'wizard.metadata\'))\n            if os.path.exists(meta):\n                try:\n                    metafile = open(meta,\'rb\')\n                    try:\n                        session.app = pickle.load(metafile)\n                    finally:\n                        metafile.close()\n                    session.flash = T("The app exists, was created by wizard, continue to overwrite!")\n                except:\n                    session.flash = T("The app exists, was NOT created by wizard, continue to overwrite!")\n        redirect(URL(\'step1\'))\n    return dict(step=\'Start\',form=form)\n\n\ndef step1():\n    from gluon.contrib.simplejson import loads\n    import urllib\n    if not session.themes:\n        url=LAYOUTS_APP+\'/default/layouts.json\'\n        try:\n            data = urllib.urlopen(url).read()\n            session.themes = [\'Default\'] + loads(data)[\'layouts\']\n        except:\n            session.themes = [\'Default\']\n    themes = session.themes\n    if not session.plugins:\n        url = PLUGINS_APP+\'/default/plugins.json\'\n        try:\n            data = urllib.urlopen(url).read()\n            session.plugins = loads(data)[\'plugins\']\n        except:\n            session.plugins = []\n    plugins = [x.split(\'.\')[2] for x in session.plugins]\n    response.view=\'wizard/step.html\'\n    params = dict(session.app[\'params\'])\n    form=SQLFORM.factory(\n                Field(\'title\',default=params.get(\'title\',None),\n                                      requires=IS_NOT_EMPTY()),\n                Field(\'subtitle\',default=params.get(\'subtitle\',None)),\n                Field(\'author\',default=params.get(\'author\',None)),\n                Field(\'author_email\',default=params.get(\'author_email\',None)),\n                Field(\'keywords\',default=params.get(\'keywords\',None)),\n                Field(\'description\',\'text\',\n                      default=params.get(\'description\',None)),\n                Field(\'layout_theme\',requires=IS_IN_SET(themes),\n                      default=params.get(\'layout_theme\',themes[0])),\n                Field(\'database_uri\',default=params.get(\'database_uri\',None)),\n                Field(\'security_key\',default=params.get(\'security_key\',None)),\n                Field(\'email_server\',default=params.get(\'email_server\',None)),\n                Field(\'email_sender\',default=params.get(\'email_sender\',None)),\n                Field(\'email_login\',default=params.get(\'email_login\',None)),\n                Field(\'login_method\',requires=IS_IN_SET((\'local\',\'janrain\')),\n                      default=params.get(\'login_method\',\'local\')),\n                Field(\'login_config\',default=params.get(\'login_config\',None)),\n                Field(\'plugins\',\'list:string\',requires=IS_IN_SET(plugins,multiple=True)))\n\n    if form.accepts(request.vars):\n        session.app[\'params\']=[(key,form.vars.get(key,None))\n                               for key,value in session.app[\'params\']]\n        redirect(URL(\'step2\'))\n    return dict(step=\'1: Setting Parameters\',form=form)\n\ndef step2():\n    response.view=\'wizard/step.html\'\n    form=SQLFORM.factory(Field(\'table_names\',\'list:string\',\n                               default=session.app[\'tables\']))\n    if form.accepts(request.vars):\n        table_names = [clean(t) for t in listify(form.vars.table_names) \\\n                           if t.strip()]\n        if [t for t in table_names if t.startswith(\'auth_\') and \\\n                not t==\'auth_user\']:\n            form.error.table_names = \\\n                T(\'invalid table names (auth_* tables already defined)\')\n        else:\n            session.app[\'tables\']=table_names\n            for table in session.app[\'tables\']:\n                if not \'table_\'+table in session.app:\n                    session.app[\'table_\'+table]=[\'name\']\n                if not table==\'auth_user\':\n                    name = table+\'_manage\'\n                    if not name in session.app[\'pages\']:\n                        session.app[\'pages\'].append(name)\n                        session.app[\'page_\'+name] = \\\n                            \'## Manage %s\\n\\n{{=form}}\' % (table)\n            if session.app[\'tables\']:\n                redirect(URL(\'step3\',args=0))\n            else:\n                redirect(URL(\'step4\'))\n    return dict(step=\'2: Tables\',form=form)\n\ndef step3():\n    response.view=\'wizard/step.html\'\n    n=int(request.args(0) or 0)\n    m=len(session.app[\'tables\'])\n    if n>=m: redirect(URL(\'step2\'))\n    table=session.app[\'tables\'][n]\n    form=SQLFORM.factory(Field(\'field_names\',\'list:string\',\n                               default=session.app.get(\'table_\'+table,[])))\n    if form.accepts(request.vars) and form.vars.field_names:\n        fields=listify(form.vars.field_names)\n        if table==\'auth_user\':\n            for field in [\'first_name\',\'last_name\',\'username\',\'email\',\'password\']:\n                if not field in fields:\n                    fields.append(field)\n        session.app[\'table_\'+table]=[t.strip().lower()\n                                       for t in listify(form.vars.field_names)\n                                       if t.strip()]\n        try:\n            tables=sort_tables(session.app[\'tables\'])\n        except RuntimeError:\n            response.flash=T(\'invalid circular reference\')\n        else:\n            if n<m-1:\n                redirect(URL(\'step3\',args=n+1))\n            else:\n                redirect(URL(\'step4\'))\n    return dict(step=\'3: Fields for table "%s" (%s of %s)\' \\\n                    % (table,n+1,m),table=table,form=form)\n\ndef step4():\n    response.view=\'wizard/step.html\'\n    form=SQLFORM.factory(Field(\'pages\',\'list:string\',\n                               default=session.app[\'pages\']))\n    if form.accepts(request.vars):\n        session.app[\'pages\']=[clean(t)\n                              for t in listify(form.vars.pages)\n                              if t.strip()]\n        if session.app[\'pages\']:\n            redirect(URL(\'step5\',args=0))\n        else:\n            redirect(URL(\'step6\'))\n    return dict(step=\'4: Pages\',form=form)\n\ndef step5():\n    response.view=\'wizard/step.html\'\n    n=int(request.args(0) or 0)\n    m=len(session.app[\'pages\'])\n    if n>=m: redirect(URL(\'step4\'))\n    page=session.app[\'pages\'][n]\n    markmin_url=\'http://web2py.com/examples/static/markmin.html\'\n    form=SQLFORM.factory(Field(\'content\',\'text\',\n                               default=session.app.get(\'page_\'+page,[]),\n                               comment=A(\'use markmin\',\n                                         _href=markmin_url,_target=\'_blank\')),\n                         formstyle=\'table2cols\')\n    if form.accepts(request.vars):\n        session.app[\'page_\'+page]=form.vars.content\n        if n<m-1:\n            redirect(URL(\'step5\',args=n+1))\n        else:\n            redirect(URL(\'step6\'))\n    return dict(step=\'5: View for page "%s" (%s of %s)\' % (page,n+1,m),form=form)\n\ndef step6():\n    response.view=\'wizard/step.html\'\n    params = dict(session.app[\'params\'])\n    app = session.app[\'name\']\n    form=SQLFORM.factory(\n        Field(\'generate_model\',\'boolean\',default=True),\n        Field(\'generate_controller\',\'boolean\',default=True),\n        Field(\'generate_views\',\'boolean\',default=True),\n        Field(\'generate_menu\',\'boolean\',default=True),\n        Field(\'apply_layout\',\'boolean\',default=True),\n        Field(\'erase_database\',\'boolean\',default=True),\n        Field(\'populate_database\',\'boolean\',default=True))\n    if form.accepts(request.vars):\n        if DEMO_MODE:\n            session.flash = T(\'Application cannot be generated in demo mode\')\n            redirect(URL(\'index\'))\n        create(form.vars)\n        session.flash = \'Application %s created\' % app\n        redirect(URL(\'generated\'))\n    return dict(step=\'6: Generate app "%s"\' % app,form=form)\n\ndef generated():\n    return dict(app=session.app[\'name\'])\n\ndef sort_tables(tables):\n    import re\n    regex = re.compile(\'(%s)\' % \'|\'.join(tables))\n    is_auth_user = \'auth_user\' in tables\n    d={}\n    for table in tables:\n        d[table]=[]\n        for field in session.app[\'table_%s\' % table]:\n            d[table]+=regex.findall(field)\n    tables=[]\n    if is_auth_user:\n        tables.append(\'auth_user\')\n    def append(table,trail=[]):\n        if table in trail:\n            raise RuntimeError\n        for t in d[table]:\n            # if not t==table: (problem, no dropdown for self references)\n            append(t,trail=trail+[table])\n        if not table in tables:\n            tables.append(table)\n    for table in d: append(table)\n    return tables\n\ndef make_table(table,fields):\n    rawtable=table\n    if table!=\'auth_user\': table=\'t_\'+table\n    s=\'\'\n    s+=\'\\n\'+\'#\'*40+\'\\n\'\n    s+="db.define_table(\'%s\',\\n" % table\n    first_field=\'id\'\n    for field in fields:\n        items=[x.lower() for x in field.split()]\n        has = {}\n        keys = []\n        for key in [\'notnull\',\'unique\',\'integer\',\'double\',\'boolean\',\'float\',\n                    \'boolean\', \'date\',\'time\',\'datetime\',\'text\',\'wiki\',\n                    \'html\',\'file\',\'upload\',\'image\',\'true\',\n                    \'hidden\',\'readonly\',\'writeonly\',\'multiple\',\n                    \'notempty\',\'required\']:\n            if key in items[1:]:\n                keys.append(key)\n                has[key] = True\n        tables = session.app[\'tables\']\n        refs = [t for t in tables if t in items]\n        items = items[:1] + [x for x in items[1:] \\\n                                 if not x in keys and not x in tables]\n        barename = name = \'_\'.join(items)\n        if table[:2]==\'t_\': name=\'f_\'+name\n        if first_field==\'id\': first_field=name\n\n        ### determine field type\n        ftype=\'string\'\n        deftypes={\'integer\':\'integer\',\'double\':\'double\',\'boolean\':\'boolean\',\n                  \'float\':\'double\',\'bool\':\'boolean\',\n                  \'date\':\'date\',\'time\':\'time\',\'datetime\':\'datetime\',\n                  \'text\':\'text\',\'file\':\'upload\',\'image\':\'upload\',\n                  \'upload\':\'upload\',\'wiki\':\'text\', \'html\':\'text\'}\n        for key,t in deftypes.items():\n            if key in has:\n                ftype = t\n        if refs:\n            key = refs[0]\n            if not key==\'auth_user\': key=\'t_\'+key\n            if \'multiple\' in has:\n                ftype=\'list:reference %s\' % key\n            else:\n                ftype=\'reference %s\' % key\n        if ftype==\'string\' and \'multiple\' in has:\n            ftype=\'list:string\'\n        elif ftype==\'integer\' and \'multiple\' in has:\n            ftype=\'list:integer\'\n        elif name==\'password\':\n            ftype=\'password\'\n        s+="    Field(\'%s\', type=\'%s\'" % (name, ftype)\n\n        ### determine field attributes\n        if \'notnull\' in has or \'notempty\' in has or \'required\' in has:\n            s+=\', notnull=True\'\n        if \'unique\' in has:\n            s+=\', unique=True\'\n        if ftype==\'boolean\' and \'true\' in has:\n            s+=",\\n          default=True"\n\n        ### determine field representation\n        elif \'wiki\' in has:\n            s+=",\\n          represent=lambda x, row: MARKMIN(x)"\n            s+=",\\n          comment=\'WIKI (markmin)\'"\n        elif \'html\' in has:\n            s+=",\\n          represent=lambda x, row: XML(x,sanitize=True)"\n            s+=",\\n          comment=\'HTML (sanitized)\'"\n        ### determine field access\n        if name==\'password\' or \'writeonly\' in has:\n            s+=",\\n          readable=False"\n        elif \'hidden\' in has:\n            s+=",\\n          writable=False, readable=False"\n        elif \'readonly\' in has:\n            s+=",\\n          writable=False"\n\n        ### make up a label\n        s+=",\\n          label=T(\'%s\')),\\n" % \\\n            \' \'.join(x.capitalize() for x in barename.split(\'_\'))\n    if table==\'auth_user\':\n        s+="    Field(\'created_on\',\'datetime\',default=request.now,\\n"\n        s+="          label=T(\'Created On\'),writable=False,readable=False),\\n"\n        s+="    Field(\'modified_on\',\'datetime\',default=request.now,\\n"\n        s+="          label=T(\'Modified On\'),writable=False,readable=False,\\n"\n        s+="          update=request.now),\\n"\n        s+="    Field(\'registration_key\',default=\'\',\\n"\n        s+="          writable=False,readable=False),\\n"\n        s+="    Field(\'reset_password_key\',default=\'\',\\n"\n        s+="          writable=False,readable=False),\\n"\n        s+="    Field(\'registration_id\',default=\'\',\\n"\n        s+="          writable=False,readable=False),\\n"\n    elif \'auth_user\' in session.app[\'tables\']:\n        s+="    auth.signature,\\n"\n    s+="    format=\'%("+first_field+")s\',\\n"\n    s+="    migrate=settings.migrate)\\n\\n"\n    if table==\'auth_user\':\n        s+="""\ndb.auth_user.first_name.requires = IS_NOT_EMPTY(error_message=auth.messages.is_empty)\ndb.auth_user.last_name.requires = IS_NOT_EMPTY(error_message=auth.messages.is_empty)\ndb.auth_user.password.requires = CRYPT(key=auth.settings.hmac_key, min_length=4)\ndb.auth_user.username.requires = IS_NOT_IN_DB(db, db.auth_user.username)\ndb.auth_user.email.requires = (IS_EMAIL(error_message=auth.messages.invalid_email),\n                               IS_NOT_IN_DB(db, db.auth_user.email))\n"""\n    else:\n        s+="db.define_table(\'%s_archive\',db.%s,Field(\'current_record\',\'reference %s\',readable=False,writable=False))\\n" % (table,table,table)\n    return s\n\ndef fix_db(filename):\n    params = dict(session.app[\'params\'])\n    content = read_file(filename,\'rb\')\n    if \'auth_user\' in session.app[\'tables\']:\n        auth_user = make_table(\'auth_user\',session.app[\'table_auth_user\'])\n        content = content.replace(\'sqlite://storage.sqlite\',\n                                params[\'database_uri\'])\n        content = content.replace(\'auth.define_tables()\',\\\n            auth_user+\'auth.define_tables(migrate = settings.migrate)\')\n    content += """\nmail.settings.server = settings.email_server\nmail.settings.sender = settings.email_sender\nmail.settings.login = settings.email_login\n"""\n    if params[\'login_method\']==\'janrain\':\n        content+="""\nfrom gluon.contrib.login_methods.rpx_account import RPXAccount\nauth.settings.actions_disabled=[\'register\',\'change_password\',\'request_reset_password\']\nauth.settings.login_form = RPXAccount(request,\n    api_key = settings.login_config.split(\':\')[-1],\n    domain = settings.login_config.split(\':\')[0],\n    url = "http://%s/%s/default/user/login" % (request.env.http_host,request.application))\n"""\n    write_file(filename, content, \'wb\')\n\ndef make_menu(pages):\n    s=\'\'\n    s+=\'response.title = settings.title\\n\'\n    s+=\'response.subtitle = settings.subtitle\\n\'\n    s+="response.meta.author = \'%(author)s <%(author_email)s>\' % settings\\n"\n    s+=\'response.meta.keywords = settings.keywords\\n\'\n    s+=\'response.meta.description = settings.description\\n\'\n    s+=\'response.menu = [\\n\'\n    for page in pages:\n        if not page.startswith(\'error\'):\n            if page.endswith(\'_manage\'):\n                page_name = page[:-7]\n            else:\n                page_name = page\n            page_name = \' \'.join(x.capitalize() for x in page_name.split(\'_\'))\n            s+="(T(\'%s\'),URL(\'default\',\'%s\')==URL(),URL(\'default\',\'%s\'),[]),\\n" \\\n                % (page_name,page,page)\n    s+=\']\'\n    return s\n\ndef make_page(page,contents):\n    if \'auth_user\' in session.app[\'tables\'] and not page in (\'index\',\'error\'):\n        s="@auth.requires_login()\\ndef %s():\\n" % page\n    else:\n        s="def %s():\\n" % page\n    items = page.rsplit(\'_\',1)\n    if items[0] in session.app[\'tables\'] and len(items)==2 and items[1]==\'manage\':\n        s+="    form = SQLFORM.smartgrid(db.t_%s,onupdate=auth.archive)\\n" % items[0]\n        s+="    return locals()\\n\\n"\n    else:\n        s+="    return dict()\\n\\n"\n    return s\n\ndef make_view(page,contents):\n    s="{{extend \'layout.html\'}}\\n\\n"\n    s+=str(MARKMIN(contents))\n    return s\n\ndef populate(tables):\n    s = \'from gluon.contrib.populate import populate\\n\'\n    s+= \'if db(db.auth_user).isempty():\\n\'\n    for table in sort_tables(tables):\n        t=table==\'auth_user\' and \'auth_user\' or \'t_\'+table\n        s+="     populate(db.%s,10)\\n" % t\n    return s\n\ndef create(options):\n    if DEMO_MODE:\n        session.flash = T(\'disabled in demo mode\')\n        redirect(URL(\'step6\'))\n    params = dict(session.app[\'params\'])\n    app = session.app[\'name\']\n    if app_create(app,request,force=True,key=params[\'security_key\']):\n        if MULTI_USER_MODE:\n            db.app.insert(name=app,owner=auth.user.id)\n    else:\n        session.flash = \'Failure to create application\'\n        redirect(URL(\'step6\'))\n\n    ### save metadata in newapp/wizard.metadata\n    try:\n        meta = os.path.join(request.folder,\'..\',app,\'wizard.metadata\')\n        file=open(meta,\'wb\')\n        pickle.dump(session.app,file)\n        file.close()\n    except IOError:\n        session.flash = \'Failure to write wizard metadata\'\n        redirect(URL(\'step6\'))\n\n    ### apply theme\n    if options.apply_layout and params[\'layout_theme\']!=\'Default\':\n        try:\n            fn = \'web2py.plugin.layout_%s.w2p\' % params[\'layout_theme\']\n            theme = urllib.urlopen(LAYOUTS_APP+\'/static/plugin_layouts/plugins/\'+fn)\n            plugin_install(app, theme, request, fn)\n        except:\n            session.flash = T("unable to download layout")\n\n    ### apply plugins\n    for plugin in params[\'plugins\']:\n        try:\n            plugin_name = \'web2py.plugin.\'+plugin+\'.w2p\'\n            stream = urllib.urlopen(PLUGINS_APP+\'/static/\'+plugin_name)\n            plugin_install(app, stream, request, plugin_name)\n        except Exception, e:\n            session.flash = T("unable to download plugin: %s" % plugin)\n\n    ### write configuration file into newapp/models/0.py\n    model = os.path.join(request.folder,\'..\',app,\'models\',\'0.py\')\n    file = open(model, \'wb\')\n    try:\n        file.write("from gluon.storage import Storage\\n")\n        file.write("settings = Storage()\\n\\n")\n        file.write("settings.migrate = True\\n")\n        for key,value in session.app[\'params\']:\n            file.write("settings.%s = %s\\n" % (key,repr(value)))\n    finally:\n        file.close()\n\n    ### write configuration file into newapp/models/menu.py\n    if options.generate_menu:\n        model = os.path.join(request.folder,\'..\',app,\'models\',\'menu.py\')\n        file = open(model,\'wb\')\n        try:\n            file.write(make_menu(session.app[\'pages\']))\n        finally:\n            file.close()\n\n    ### customize the auth_user table\n    model = os.path.join(request.folder,\'..\',app,\'models\',\'db.py\')\n    fix_db(model)\n\n    ### create newapp/models/db_wizard.py\n    if options.generate_model:\n        model = os.path.join(request.folder,\'..\',app,\'models\',\'db_wizard.py\')\n        file = open(model,\'wb\')\n        try:\n            file.write(\'### we prepend t_ to tablenames and f_ to fieldnames for disambiguity\\n\\n\')\n            tables = sort_tables(session.app[\'tables\'])\n            for table in tables:\n                if table==\'auth_user\': continue\n                file.write(make_table(table,session.app[\'table_\'+table]))\n        finally:\n            file.close()\n\n    model = os.path.join(request.folder,\'..\',app,\n                         \'models\',\'db_wizard_populate.py\')\n    if os.path.exists(model): os.unlink(model)\n    if options.populate_database and session.app[\'tables\']:\n        file = open(model,\'wb\')\n        try:\n            file.write(populate(session.app[\'tables\']))\n        finally:\n            file.close()\n\n    ### create newapp/controllers/default.py\n    if options.generate_controller:\n        controller = os.path.join(request.folder,\'..\',app,\'controllers\',\'default.py\')\n        file = open(controller,\'wb\')\n        try:\n            file.write("""# -*- coding: utf-8 -*-\n### required - do no delete\ndef user(): return dict(form=auth())\ndef download(): return response.download(request,db)\ndef call(): return service()\n### end requires\n""")\n            for page in session.app[\'pages\']:\n                file.write(make_page(page,session.app.get(\'page_\'+page,\'\')))\n        finally:\n            file.close()\n\n    ### create newapp/views/default/*.html\n    if options.generate_views:\n        for page in session.app[\'pages\']:\n            view = os.path.join(request.folder,\'..\',app,\'views\',\'default\',page+\'.html\')\n            file = open(view,\'wb\')\n            try:\n                file.write(make_view(page,session.app.get(\'page_\'+page,\'\')))\n            finally:\n                file.close()\n\n    if options.erase_database:\n        path = os.path.join(request.folder,\'..\',app,\'databases\',\'*\')\n        for file in glob.glob(path):\n            os.unlink(file)\n\n\n\nresponse._vars=response._caller(step6)\n'
p7
sS'snapshot'
p8
(dp9
S'exception'
p10
(dp11
S'__getslice__'
p12
S"<method-wrapper '__getslice__' of exceptions.IOError object>"
p13
sS'__str__'
p14
S"<method-wrapper '__str__' of exceptions.IOError object>"
p15
sS'__reduce__'
p16
S'<built-in method __reduce__ of exceptions.IOError object>'
p17
sS'__dict__'
p18
S'{}'
p19
sS'__sizeof__'
p20
S'<built-in method __sizeof__ of exceptions.IOError object>'
p21
sS'__init__'
p22
S"<method-wrapper '__init__' of exceptions.IOError object>"
p23
sS'__setattr__'
p24
S"<method-wrapper '__setattr__' of exceptions.IOError object>"
p25
sS'__reduce_ex__'
p26
S'<built-in method __reduce_ex__ of exceptions.IOError object>'
p27
sS'__new__'
p28
S'<built-in method __new__ of type object>'
p29
sS'errno'
p30
S'2'
sS'__format__'
p31
S'<built-in method __format__ of exceptions.IOError object>'
p32
sS'__class__'
p33
S"<type 'exceptions.IOError'>"
p34
sS'filename'
p35
S"r'C:\\Users\\admin\\Desktop\\Sathvik\\Tharuni.Org\\applications\\admin\\..\\tharuni\\models\\db.py'"
p36
sS'__doc__'
p37
S"'I/O operation failed.'"
p38
sS'__getitem__'
p39
S"<method-wrapper '__getitem__' of exceptions.IOError object>"
p40
sS'__setstate__'
p41
S'<built-in method __setstate__ of exceptions.IOError object>'
p42
sS'__getattribute__'
p43
S"<method-wrapper '__getattribute__' of exceptions.IOError object>"
p44
sS'args'
p45
S"(2, 'No such file or directory')"
p46
sS'__subclasshook__'
p47
S'<built-in method __subclasshook__ of type object>'
p48
sS'__unicode__'
p49
S'<built-in method __unicode__ of exceptions.IOError object>'
p50
sS'strerror'
p51
S"'No such file or directory'"
p52
sS'__delattr__'
p53
S"<method-wrapper '__delattr__' of exceptions.IOError object>"
p54
sS'__repr__'
p55
S"<method-wrapper '__repr__' of exceptions.IOError object>"
p56
sS'__hash__'
p57
S"<method-wrapper '__hash__' of exceptions.IOError object>"
p58
ssS'evalue'
p59
S"[Errno 2] No such file or directory: 'C:\\\\Users\\\\admin\\\\Desktop\\\\Sathvik\\\\Tharuni.Org\\\\applications\\\\admin\\\\..\\\\tharuni\\\\models\\\\db.py'"
p60
sS'request'
p61
ccopy_reg
_reconstructor
p62
(cgluon.html
BEAUTIFY
p63
c__builtin__
object
p64
NtRp65
(dp66
S'attributes'
p67
(dp68
sS'components'
p69
(lp70
g62
(cgluon.html
TABLE
p71
g64
NtRp72
(dp73
g67
(dp74
S'level'
p75
I5
ssS'parent'
p76
Nsg69
(lp77
g62
(cgluon.html
TR
p78
g64
NtRp79
(dp80
g67
(dp81
sg76
g72
sg69
(lp82
g62
(cgluon.html
TD
p83
g64
NtRp84
(dp85
g67
(dp86
S'_style'
p87
S'font-weight:bold;vertical-align:top'
p88
ssg76
g79
sg69
(lp89
S'ajax'
p90
asbag62
(g83
g64
NtRp91
(dp92
g67
(dp93
S'_valign'
p94
S'top'
p95
ssg76
g79
sg69
(lp96
S':'
asbag62
(g83
g64
NtRp97
(dp98
g67
(dp99
sg76
g79
sg69
(lp100
g62
(g63
g64
NtRp101
(dp102
g67
(dp103
g75
I5
ssg76
g97
sg69
(lp104
S'False'
p105
asbasbasbag62
(g78
g64
NtRp106
(dp107
g67
(dp108
sg76
g72
sg69
(lp109
g62
(g83
g64
NtRp110
(dp111
g67
(dp112
g87
g88
ssg76
g106
sg69
(lp113
S'application'
p114
asbag62
(g83
g64
NtRp115
(dp116
g67
(dp117
g94
g95
ssg76
g106
sg69
(lp118
S':'
asbag62
(g83
g64
NtRp119
(dp120
g67
(dp121
sg76
g106
sg69
(lp122
g62
(g63
g64
NtRp123
(dp124
g67
(dp125
g75
I5
ssg76
g119
sg69
(lp126
S'admin'
p127
asbasbasbag62
(g78
g64
NtRp128
(dp129
g67
(dp130
sg76
g72
sg69
(lp131
g62
(g83
g64
NtRp132
(dp133
g67
(dp134
g87
g88
ssg76
g128
sg69
(lp135
g45
asbag62
(g83
g64
NtRp136
(dp137
g67
(dp138
g94
g95
ssg76
g128
sg69
(lp139
S':'
asbag62
(g83
g64
NtRp140
(dp141
g67
(dp142
sg76
g128
sg69
(lp143
g62
(g63
g64
NtRp144
(dp145
g67
(dp146
g75
I5
ssg76
g140
sg69
(lp147
g62
(g71
g64
NtRp148
(dp149
g67
(dp150
g75
I4
ssg76
Nsg69
(lp151
sbasbasbasbag62
(g78
g64
NtRp152
(dp153
g67
(dp154
sg76
g72
sg69
(lp155
g62
(g83
g64
NtRp156
(dp157
g67
(dp158
g87
g88
ssg76
g152
sg69
(lp159
S'body'
p160
asbag62
(g83
g64
NtRp161
(dp162
g67
(dp163
g94
g95
ssg76
g152
sg69
(lp164
S':'
asbag62
(g83
g64
NtRp165
(dp166
g67
(dp167
sg76
g152
sg69
(lp168
g62
(g63
g64
NtRp169
(dp170
g67
(dp171
g75
I5
ssg76
g165
sg69
(lp172
S"<open file '<fdopen>', mode 'w+b' at 0x00000000086BFC90>"
p173
asbasbasbag62
(g78
g64
NtRp174
(dp175
g67
(dp176
sg76
g72
sg69
(lp177
g62
(g83
g64
NtRp178
(dp179
g67
(dp180
g87
g88
ssg76
g174
sg69
(lp181
S'cid'
p182
asbag62
(g83
g64
NtRp183
(dp184
g67
(dp185
g94
g95
ssg76
g174
sg69
(lp186
S':'
asbag62
(g83
g64
NtRp187
(dp188
g67
(dp189
sg76
g174
sg69
(lp190
g62
(g63
g64
NtRp191
(dp192
g67
(dp193
g75
I5
ssg76
g187
sg69
(lp194
S'None'
p195
asbasbasbag62
(g78
g64
NtRp196
(dp197
g67
(dp198
sg76
g72
sg69
(lp199
g62
(g83
g64
NtRp200
(dp201
g67
(dp202
g87
g88
ssg76
g196
sg69
(lp203
S'client'
p204
asbag62
(g83
g64
NtRp205
(dp206
g67
(dp207
g94
g95
ssg76
g196
sg69
(lp208
S':'
asbag62
(g83
g64
NtRp209
(dp210
g67
(dp211
sg76
g196
sg69
(lp212
g62
(g63
g64
NtRp213
(dp214
g67
(dp215
g75
I5
ssg76
g209
sg69
(lp216
S'127.0.0.1'
p217
asbasbasbag62
(g78
g64
NtRp218
(dp219
g67
(dp220
sg76
g72
sg69
(lp221
g62
(g83
g64
NtRp222
(dp223
g67
(dp224
g87
g88
ssg76
g218
sg69
(lp225
S'controller'
p226
asbag62
(g83
g64
NtRp227
(dp228
g67
(dp229
g94
g95
ssg76
g218
sg69
(lp230
S':'
asbag62
(g83
g64
NtRp231
(dp232
g67
(dp233
sg76
g218
sg69
(lp234
g62
(g63
g64
NtRp235
(dp236
g67
(dp237
g75
I5
ssg76
g231
sg69
(lp238
S'wizard'
p239
asbasbasbag62
(g78
g64
NtRp240
(dp241
g67
(dp242
sg76
g72
sg69
(lp243
g62
(g83
g64
NtRp244
(dp245
g67
(dp246
g87
g88
ssg76
g240
sg69
(lp247
S'cookies'
p248
asbag62
(g83
g64
NtRp249
(dp250
g67
(dp251
g94
g95
ssg76
g240
sg69
(lp252
S':'
asbag62
(g83
g64
NtRp253
(dp254
g67
(dp255
sg76
g240
sg69
(lp256
g62
(g63
g64
NtRp257
(dp258
g67
(dp259
g75
I5
ssg76
g253
sg69
(lp260
g62
(g71
g64
NtRp261
(dp262
g67
(dp263
g75
I4
ssg76
Nsg69
(lp264
g62
(g78
g64
NtRp265
(dp266
g67
(dp267
sg76
g261
sg69
(lp268
g62
(g83
g64
NtRp269
(dp270
g67
(dp271
g87
g88
ssg76
g265
sg69
(lp272
S'session_id_admin'
p273
asbag62
(g83
g64
NtRp274
(dp275
g67
(dp276
g94
g95
ssg76
g265
sg69
(lp277
S':'
asbag62
(g83
g64
NtRp278
(dp279
g67
(dp280
sg76
g265
sg69
(lp281
g62
(g63
g64
NtRp282
(dp283
g67
(dp284
g75
I4
ssg76
g278
sg69
(lp285
S'127.0.0.1-b09474c4-74c6-4bff-864d-e3d6c3b6e87e'
p286
ag62
(g71
g64
NtRp287
(dp288
g67
(dp289
g75
I3
ssg76
Nsg69
(lp290
g62
(g78
g64
NtRp291
(dp292
g67
(dp293
sg76
g287
sg69
(lp294
g62
(g83
g64
NtRp295
(dp296
g67
(dp297
g87
g88
ssg76
g291
sg69
(lp298
S'comment'
p299
asbag62
(g83
g64
NtRp300
(dp301
g67
(dp302
g94
g95
ssg76
g291
sg69
(lp303
S':'
asbag62
(g83
g64
NtRp304
(dp305
g67
(dp306
sg76
g291
sg69
(lp307
g62
(g63
g64
NtRp308
(dp309
g67
(dp310
g75
I3
ssg76
g304
sg69
(lp311
S''
asbasbasbag62
(g78
g64
NtRp312
(dp313
g67
(dp314
sg76
g287
sg69
(lp315
g62
(g83
g64
NtRp316
(dp317
g67
(dp318
g87
g88
ssg76
g312
sg69
(lp319
S'domain'
p320
asbag62
(g83
g64
NtRp321
(dp322
g67
(dp323
g94
g95
ssg76
g312
sg69
(lp324
S':'
asbag62
(g83
g64
NtRp325
(dp326
g67
(dp327
sg76
g312
sg69
(lp328
g62
(g63
g64
NtRp329
(dp330
g67
(dp331
g75
I3
ssg76
g325
sg69
(lp332
S''
asbasbasbag62
(g78
g64
NtRp333
(dp334
g67
(dp335
sg76
g287
sg69
(lp336
g62
(g83
g64
NtRp337
(dp338
g67
(dp339
g87
g88
ssg76
g333
sg69
(lp340
S'expires'
p341
asbag62
(g83
g64
NtRp342
(dp343
g67
(dp344
g94
g95
ssg76
g333
sg69
(lp345
S':'
asbag62
(g83
g64
NtRp346
(dp347
g67
(dp348
sg76
g333
sg69
(lp349
g62
(g63
g64
NtRp350
(dp351
g67
(dp352
g75
I3
ssg76
g346
sg69
(lp353
S''
asbasbasbag62
(g78
g64
NtRp354
(dp355
g67
(dp356
sg76
g287
sg69
(lp357
g62
(g83
g64
NtRp358
(dp359
g67
(dp360
g87
g88
ssg76
g354
sg69
(lp361
S'httponly'
p362
asbag62
(g83
g64
NtRp363
(dp364
g67
(dp365
g94
g95
ssg76
g354
sg69
(lp366
S':'
asbag62
(g83
g64
NtRp367
(dp368
g67
(dp369
sg76
g354
sg69
(lp370
g62
(g63
g64
NtRp371
(dp372
g67
(dp373
g75
I3
ssg76
g367
sg69
(lp374
S''
asbasbasbag62
(g78
g64
NtRp375
(dp376
g67
(dp377
sg76
g287
sg69
(lp378
g62
(g83
g64
NtRp379
(dp380
g67
(dp381
g87
g88
ssg76
g375
sg69
(lp382
S'max-age'
p383
asbag62
(g83
g64
NtRp384
(dp385
g67
(dp386
g94
g95
ssg76
g375
sg69
(lp387
S':'
asbag62
(g83
g64
NtRp388
(dp389
g67
(dp390
sg76
g375
sg69
(lp391
g62
(g63
g64
NtRp392
(dp393
g67
(dp394
g75
I3
ssg76
g388
sg69
(lp395
S''
asbasbasbag62
(g78
g64
NtRp396
(dp397
g67
(dp398
sg76
g287
sg69
(lp399
g62
(g83
g64
NtRp400
(dp401
g67
(dp402
g87
g88
ssg76
g396
sg69
(lp403
S'path'
p404
asbag62
(g83
g64
NtRp405
(dp406
g67
(dp407
g94
g95
ssg76
g396
sg69
(lp408
S':'
asbag62
(g83
g64
NtRp409
(dp410
g67
(dp411
sg76
g396
sg69
(lp412
g62
(g63
g64
NtRp413
(dp414
g67
(dp415
g75
I3
ssg76
g409
sg69
(lp416
S''
asbasbasbag62
(g78
g64
NtRp417
(dp418
g67
(dp419
sg76
g287
sg69
(lp420
g62
(g83
g64
NtRp421
(dp422
g67
(dp423
g87
g88
ssg76
g417
sg69
(lp424
S'secure'
p425
asbag62
(g83
g64
NtRp426
(dp427
g67
(dp428
g94
g95
ssg76
g417
sg69
(lp429
S':'
asbag62
(g83
g64
NtRp430
(dp431
g67
(dp432
sg76
g417
sg69
(lp433
g62
(g63
g64
NtRp434
(dp435
g67
(dp436
g75
I3
ssg76
g430
sg69
(lp437
S''
asbasbasbag62
(g78
g64
NtRp438
(dp439
g67
(dp440
sg76
g287
sg69
(lp441
g62
(g83
g64
NtRp442
(dp443
g67
(dp444
g87
g88
ssg76
g438
sg69
(lp445
S'version'
p446
asbag62
(g83
g64
NtRp447
(dp448
g67
(dp449
g94
g95
ssg76
g438
sg69
(lp450
S':'
asbag62
(g83
g64
NtRp451
(dp452
g67
(dp453
sg76
g438
sg69
(lp454
g62
(g63
g64
NtRp455
(dp456
g67
(dp457
g75
I3
ssg76
g451
sg69
(lp458
S''
asbasbasbasbasbasbasbag62
(g78
g64
NtRp459
(dp460
g67
(dp461
sg76
g261
sg69
(lp462
g62
(g83
g64
NtRp463
(dp464
g67
(dp465
g87
g88
ssg76
g459
sg69
(lp466
S'session_id_init'
p467
asbag62
(g83
g64
NtRp468
(dp469
g67
(dp470
g94
g95
ssg76
g459
sg69
(lp471
S':'
asbag62
(g83
g64
NtRp472
(dp473
g67
(dp474
sg76
g459
sg69
(lp475
g62
(g63
g64
NtRp476
(dp477
g67
(dp478
g75
I4
ssg76
g472
sg69
(lp479
S'127.0.0.1-6078939d-922f-428b-b405-987576949430'
p480
ag62
(g71
g64
NtRp481
(dp482
g67
(dp483
g75
I3
ssg76
Nsg69
(lp484
g62
(g78
g64
NtRp485
(dp486
g67
(dp487
sg76
g481
sg69
(lp488
g62
(g83
g64
NtRp489
(dp490
g67
(dp491
g87
g88
ssg76
g485
sg69
(lp492
g299
asbag62
(g83
g64
NtRp493
(dp494
g67
(dp495
g94
g95
ssg76
g485
sg69
(lp496
S':'
asbag62
(g83
g64
NtRp497
(dp498
g67
(dp499
sg76
g485
sg69
(lp500
g62
(g63
g64
NtRp501
(dp502
g67
(dp503
g75
I3
ssg76
g497
sg69
(lp504
S''
asbasbasbag62
(g78
g64
NtRp505
(dp506
g67
(dp507
sg76
g481
sg69
(lp508
g62
(g83
g64
NtRp509
(dp510
g67
(dp511
g87
g88
ssg76
g505
sg69
(lp512
g320
asbag62
(g83
g64
NtRp513
(dp514
g67
(dp515
g94
g95
ssg76
g505
sg69
(lp516
S':'
asbag62
(g83
g64
NtRp517
(dp518
g67
(dp519
sg76
g505
sg69
(lp520
g62
(g63
g64
NtRp521
(dp522
g67
(dp523
g75
I3
ssg76
g517
sg69
(lp524
S''
asbasbasbag62
(g78
g64
NtRp525
(dp526
g67
(dp527
sg76
g481
sg69
(lp528
g62
(g83
g64
NtRp529
(dp530
g67
(dp531
g87
g88
ssg76
g525
sg69
(lp532
g341
asbag62
(g83
g64
NtRp533
(dp534
g67
(dp535
g94
g95
ssg76
g525
sg69
(lp536
S':'
asbag62
(g83
g64
NtRp537
(dp538
g67
(dp539
sg76
g525
sg69
(lp540
g62
(g63
g64
NtRp541
(dp542
g67
(dp543
g75
I3
ssg76
g537
sg69
(lp544
S''
asbasbasbag62
(g78
g64
NtRp545
(dp546
g67
(dp547
sg76
g481
sg69
(lp548
g62
(g83
g64
NtRp549
(dp550
g67
(dp551
g87
g88
ssg76
g545
sg69
(lp552
g362
asbag62
(g83
g64
NtRp553
(dp554
g67
(dp555
g94
g95
ssg76
g545
sg69
(lp556
S':'
asbag62
(g83
g64
NtRp557
(dp558
g67
(dp559
sg76
g545
sg69
(lp560
g62
(g63
g64
NtRp561
(dp562
g67
(dp563
g75
I3
ssg76
g557
sg69
(lp564
S''
asbasbasbag62
(g78
g64
NtRp565
(dp566
g67
(dp567
sg76
g481
sg69
(lp568
g62
(g83
g64
NtRp569
(dp570
g67
(dp571
g87
g88
ssg76
g565
sg69
(lp572
g383
asbag62
(g83
g64
NtRp573
(dp574
g67
(dp575
g94
g95
ssg76
g565
sg69
(lp576
S':'
asbag62
(g83
g64
NtRp577
(dp578
g67
(dp579
sg76
g565
sg69
(lp580
g62
(g63
g64
NtRp581
(dp582
g67
(dp583
g75
I3
ssg76
g577
sg69
(lp584
S''
asbasbasbag62
(g78
g64
NtRp585
(dp586
g67
(dp587
sg76
g481
sg69
(lp588
g62
(g83
g64
NtRp589
(dp590
g67
(dp591
g87
g88
ssg76
g585
sg69
(lp592
g404
asbag62
(g83
g64
NtRp593
(dp594
g67
(dp595
g94
g95
ssg76
g585
sg69
(lp596
S':'
asbag62
(g83
g64
NtRp597
(dp598
g67
(dp599
sg76
g585
sg69
(lp600
g62
(g63
g64
NtRp601
(dp602
g67
(dp603
g75
I3
ssg76
g597
sg69
(lp604
S''
asbasbasbag62
(g78
g64
NtRp605
(dp606
g67
(dp607
sg76
g481
sg69
(lp608
g62
(g83
g64
NtRp609
(dp610
g67
(dp611
g87
g88
ssg76
g605
sg69
(lp612
g425
asbag62
(g83
g64
NtRp613
(dp614
g67
(dp615
g94
g95
ssg76
g605
sg69
(lp616
S':'
asbag62
(g83
g64
NtRp617
(dp618
g67
(dp619
sg76
g605
sg69
(lp620
g62
(g63
g64
NtRp621
(dp622
g67
(dp623
g75
I3
ssg76
g617
sg69
(lp624
S''
asbasbasbag62
(g78
g64
NtRp625
(dp626
g67
(dp627
sg76
g481
sg69
(lp628
g62
(g83
g64
NtRp629
(dp630
g67
(dp631
g87
g88
ssg76
g625
sg69
(lp632
g446
asbag62
(g83
g64
NtRp633
(dp634
g67
(dp635
g94
g95
ssg76
g625
sg69
(lp636
S':'
asbag62
(g83
g64
NtRp637
(dp638
g67
(dp639
sg76
g625
sg69
(lp640
g62
(g63
g64
NtRp641
(dp642
g67
(dp643
g75
I3
ssg76
g637
sg69
(lp644
S''
asbasbasbasbasbasbasbasbasbasbasbag62
(g78
g64
NtRp645
(dp646
g67
(dp647
sg76
g72
sg69
(lp648
g62
(g83
g64
NtRp649
(dp650
g67
(dp651
g87
g88
ssg76
g645
sg69
(lp652
S'env'
p653
asbag62
(g83
g64
NtRp654
(dp655
g67
(dp656
g94
g95
ssg76
g645
sg69
(lp657
S':'
asbag62
(g83
g64
NtRp658
(dp659
g67
(dp660
sg76
g645
sg69
(lp661
g62
(g63
g64
NtRp662
(dp663
g67
(dp664
g75
I5
ssg76
g658
sg69
(lp665
g62
(g71
g64
NtRp666
(dp667
g67
(dp668
g75
I4
ssg76
Nsg69
(lp669
g62
(g78
g64
NtRp670
(dp671
g67
(dp672
sg76
g666
sg69
(lp673
g62
(g83
g64
NtRp674
(dp675
g67
(dp676
g87
g88
ssg76
g670
sg69
(lp677
S'app_folders'
p678
asbag62
(g83
g64
NtRp679
(dp680
g67
(dp681
g94
g95
ssg76
g670
sg69
(lp682
S':'
asbag62
(g83
g64
NtRp683
(dp684
g67
(dp685
sg76
g670
sg69
(lp686
g62
(g63
g64
NtRp687
(dp688
g67
(dp689
g75
I4
ssg76
g683
sg69
(lp690
S"set(['C:\\\\Users\\\\admin\\\\Desktop\\\\Sathvik\\\\Tharuni.Org\\\\applications\\\\init\\\\', 'C:\\\\Users\\\\admin\\\\Desktop\\\\Sathvik\\\\Tharuni.Org\\\\applications\\\\admin\\\\'])"
p691
asbasbasbag62
(g78
g64
NtRp692
(dp693
g67
(dp694
sg76
g666
sg69
(lp695
g62
(g83
g64
NtRp696
(dp697
g67
(dp698
g87
g88
ssg76
g692
sg69
(lp699
S'applications_parent'
p700
asbag62
(g83
g64
NtRp701
(dp702
g67
(dp703
g94
g95
ssg76
g692
sg69
(lp704
S':'
asbag62
(g83
g64
NtRp705
(dp706
g67
(dp707
sg76
g692
sg69
(lp708
g62
(g63
g64
NtRp709
(dp710
g67
(dp711
g75
I4
ssg76
g705
sg69
(lp712
S'C:\\Users\\admin\\Desktop\\Sathvik\\Tharuni.Org'
p713
asbasbasbag62
(g78
g64
NtRp714
(dp715
g67
(dp716
sg76
g666
sg69
(lp717
g62
(g83
g64
NtRp718
(dp719
g67
(dp720
g87
g88
ssg76
g714
sg69
(lp721
S'cmd_args'
p722
asbag62
(g83
g64
NtRp723
(dp724
g67
(dp725
g94
g95
ssg76
g714
sg69
(lp726
S':'
asbag62
(g83
g64
NtRp727
(dp728
g67
(dp729
sg76
g714
sg69
(lp730
g62
(g63
g64
NtRp731
(dp732
g67
(dp733
g75
I4
ssg76
g727
sg69
(lp734
g62
(g71
g64
NtRp735
(dp736
g67
(dp737
g75
I3
ssg76
Nsg69
(lp738
sbasbasbasbag62
(g78
g64
NtRp739
(dp740
g67
(dp741
sg76
g666
sg69
(lp742
g62
(g83
g64
NtRp743
(dp744
g67
(dp745
g87
g88
ssg76
g739
sg69
(lp746
S'cmd_options'
p747
asbag62
(g83
g64
NtRp748
(dp749
g67
(dp750
g94
g95
ssg76
g739
sg69
(lp751
S':'
asbag62
(g83
g64
NtRp752
(dp753
g67
(dp754
sg76
g739
sg69
(lp755
g62
(g63
g64
NtRp756
(dp757
g67
(dp758
g75
I4
ssg76
g752
sg69
(lp759
S"<Values at 0x36b4188: {'verbose': False, 'ip': '127.0.0.1', 'with_scheduler': False, 'ips': ['10.8.4.49', '192.168.1.132', '192.168.56.1', '192.168.166.1', '169.254.251.64'], 'shutdown_timeout': 5, 'taskbar': False, 'port': 8000, 'maxthreads': None, 'softcron': False, 'server_name': 'LP-US-002', 'bpython': False, 'nogui': False, 'nocron': False, 'extcron': False, 'run_system_tests': False, 'test': None, 'folder': 'C:\\\\Users\\\\admin\\\\Desktop\\\\Sathvik\\\\Tharuni.Org', 'config': '', 'import_models': False, 'winservice': '', 'shell': None, 'run': '', 'log_filename': 'httpserver.log', 'debuglevel': 30, 'args': [''], 'socket_timeout': 5, 'ssl_ca_certificate': None, 'scheduler': None, 'profiler_filename': None, 'ssl_private_key': '', 'scheduler_groups': None, 'password': '<ask>', 'request_queue_size': 5, 'ssl_certificate': '', 'cronjob': False, 'numthreads': None, 'quiet': False, 'interfaces': None, 'minthreads': None, 'timeout': 10, 'plain': False, 'nobanner': False, 'pid_filename': 'httpserver.pid'}>"
p760
asbasbasbag62
(g78
g64
NtRp761
(dp762
g67
(dp763
sg76
g666
sg69
(lp764
g62
(g83
g64
NtRp765
(dp766
g67
(dp767
g87
g88
ssg76
g761
sg69
(lp768
S'content_length'
p769
asbag62
(g83
g64
NtRp770
(dp771
g67
(dp772
g94
g95
ssg76
g761
sg69
(lp773
S':'
asbag62
(g83
g64
NtRp774
(dp775
g67
(dp776
sg76
g761
sg69
(lp777
g62
(g63
g64
NtRp778
(dp779
g67
(dp780
g75
I4
ssg76
g774
sg69
(lp781
S'881'
p782
asbasbasbag62
(g78
g64
NtRp783
(dp784
g67
(dp785
sg76
g666
sg69
(lp786
g62
(g83
g64
NtRp787
(dp788
g67
(dp789
g87
g88
ssg76
g783
sg69
(lp790
S'content_type'
p791
asbag62
(g83
g64
NtRp792
(dp793
g67
(dp794
g94
g95
ssg76
g783
sg69
(lp795
S':'
asbag62
(g83
g64
NtRp796
(dp797
g67
(dp798
sg76
g783
sg69
(lp799
g62
(g63
g64
NtRp800
(dp801
g67
(dp802
g75
I4
ssg76
g796
sg69
(lp803
S'multipart/form-data; boundary=----WebKitFormBoundaryyhYxGsuAg0QvPABb'
p804
asbasbasbag62
(g78
g64
NtRp805
(dp806
g67
(dp807
sg76
g666
sg69
(lp808
g62
(g83
g64
NtRp809
(dp810
g67
(dp811
g87
g88
ssg76
g805
sg69
(lp812
S'db_sessions'
p813
asbag62
(g83
g64
NtRp814
(dp815
g67
(dp816
g94
g95
ssg76
g805
sg69
(lp817
S':'
asbag62
(g83
g64
NtRp818
(dp819
g67
(dp820
sg76
g805
sg69
(lp821
g62
(g63
g64
NtRp822
(dp823
g67
(dp824
g75
I4
ssg76
g818
sg69
(lp825
S'set([])'
p826
asbasbasbag62
(g78
g64
NtRp827
(dp828
g67
(dp829
sg76
g666
sg69
(lp830
g62
(g83
g64
NtRp831
(dp832
g67
(dp833
g87
g88
ssg76
g827
sg69
(lp834
S'debugging'
p835
asbag62
(g83
g64
NtRp836
(dp837
g67
(dp838
g94
g95
ssg76
g827
sg69
(lp839
S':'
asbag62
(g83
g64
NtRp840
(dp841
g67
(dp842
sg76
g827
sg69
(lp843
g62
(g63
g64
NtRp844
(dp845
g67
(dp846
g75
I4
ssg76
g840
sg69
(lp847
g105
asbasbasbag62
(g78
g64
NtRp848
(dp849
g67
(dp850
sg76
g666
sg69
(lp851
g62
(g83
g64
NtRp852
(dp853
g67
(dp854
g87
g88
ssg76
g848
sg69
(lp855
S'gluon_parent'
p856
asbag62
(g83
g64
NtRp857
(dp858
g67
(dp859
g94
g95
ssg76
g848
sg69
(lp860
S':'
asbag62
(g83
g64
NtRp861
(dp862
g67
(dp863
sg76
g848
sg69
(lp864
g62
(g63
g64
NtRp865
(dp866
g67
(dp867
g75
I4
ssg76
g861
sg69
(lp868
S'C:\\Users\\admin\\Desktop\\Sathvik\\Tharuni.Org'
p869
asbasbasbag62
(g78
g64
NtRp870
(dp871
g67
(dp872
sg76
g666
sg69
(lp873
g62
(g83
g64
NtRp874
(dp875
g67
(dp876
g87
g88
ssg76
g870
sg69
(lp877
S'http_accept'
p878
asbag62
(g83
g64
NtRp879
(dp880
g67
(dp881
g94
g95
ssg76
g870
sg69
(lp882
S':'
asbag62
(g83
g64
NtRp883
(dp884
g67
(dp885
sg76
g870
sg69
(lp886
g62
(g63
g64
NtRp887
(dp888
g67
(dp889
g75
I4
ssg76
g883
sg69
(lp890
S'text/html,application/xhtml+xml,application/xml;q=0.9,*/*;q=0.8'
p891
asbasbasbag62
(g78
g64
NtRp892
(dp893
g67
(dp894
sg76
g666
sg69
(lp895
g62
(g83
g64
NtRp896
(dp897
g67
(dp898
g87
g88
ssg76
g892
sg69
(lp899
S'http_accept_charset'
p900
asbag62
(g83
g64
NtRp901
(dp902
g67
(dp903
g94
g95
ssg76
g892
sg69
(lp904
S':'
asbag62
(g83
g64
NtRp905
(dp906
g67
(dp907
sg76
g892
sg69
(lp908
g62
(g63
g64
NtRp909
(dp910
g67
(dp911
g75
I4
ssg76
g905
sg69
(lp912
S'ISO-8859-1,utf-8;q=0.7,*;q=0.3'
p913
asbasbasbag62
(g78
g64
NtRp914
(dp915
g67
(dp916
sg76
g666
sg69
(lp917
g62
(g83
g64
NtRp918
(dp919
g67
(dp920
g87
g88
ssg76
g914
sg69
(lp921
S'http_accept_encoding'
p922
asbag62
(g83
g64
NtRp923
(dp924
g67
(dp925
g94
g95
ssg76
g914
sg69
(lp926
S':'
asbag62
(g83
g64
NtRp927
(dp928
g67
(dp929
sg76
g914
sg69
(lp930
g62
(g63
g64
NtRp931
(dp932
g67
(dp933
g75
I4
ssg76
g927
sg69
(lp934
S'gzip,deflate,sdch'
p935
asbasbasbag62
(g78
g64
NtRp936
(dp937
g67
(dp938
sg76
g666
sg69
(lp939
g62
(g83
g64
NtRp940
(dp941
g67
(dp942
g87
g88
ssg76
g936
sg69
(lp943
S'http_accept_language'
p944
asbag62
(g83
g64
NtRp945
(dp946
g67
(dp947
g94
g95
ssg76
g936
sg69
(lp948
S':'
asbag62
(g83
g64
NtRp949
(dp950
g67
(dp951
sg76
g936
sg69
(lp952
g62
(g63
g64
NtRp953
(dp954
g67
(dp955
g75
I4
ssg76
g949
sg69
(lp956
S'en-US,en;q=0.8'
p957
asbasbasbag62
(g78
g64
NtRp958
(dp959
g67
(dp960
sg76
g666
sg69
(lp961
g62
(g83
g64
NtRp962
(dp963
g67
(dp964
g87
g88
ssg76
g958
sg69
(lp965
S'http_cache_control'
p966
asbag62
(g83
g64
NtRp967
(dp968
g67
(dp969
g94
g95
ssg76
g958
sg69
(lp970
S':'
asbag62
(g83
g64
NtRp971
(dp972
g67
(dp973
sg76
g958
sg69
(lp974
g62
(g63
g64
NtRp975
(dp976
g67
(dp977
g75
I4
ssg76
g971
sg69
(lp978
S'max-age=0'
p979
asbasbasbag62
(g78
g64
NtRp980
(dp981
g67
(dp982
sg76
g666
sg69
(lp983
g62
(g83
g64
NtRp984
(dp985
g67
(dp986
g87
g88
ssg76
g980
sg69
(lp987
S'http_connection'
p988
asbag62
(g83
g64
NtRp989
(dp990
g67
(dp991
g94
g95
ssg76
g980
sg69
(lp992
S':'
asbag62
(g83
g64
NtRp993
(dp994
g67
(dp995
sg76
g980
sg69
(lp996
g62
(g63
g64
NtRp997
(dp998
g67
(dp999
g75
I4
ssg76
g993
sg69
(lp1000
S'keep-alive'
p1001
asbasbasbag62
(g78
g64
NtRp1002
(dp1003
g67
(dp1004
sg76
g666
sg69
(lp1005
g62
(g83
g64
NtRp1006
(dp1007
g67
(dp1008
g87
g88
ssg76
g1002
sg69
(lp1009
S'http_content_length'
p1010
asbag62
(g83
g64
NtRp1011
(dp1012
g67
(dp1013
g94
g95
ssg76
g1002
sg69
(lp1014
S':'
asbag62
(g83
g64
NtRp1015
(dp1016
g67
(dp1017
sg76
g1002
sg69
(lp1018
g62
(g63
g64
NtRp1019
(dp1020
g67
(dp1021
g75
I4
ssg76
g1015
sg69
(lp1022
g782
asbasbasbag62
(g78
g64
NtRp1023
(dp1024
g67
(dp1025
sg76
g666
sg69
(lp1026
g62
(g83
g64
NtRp1027
(dp1028
g67
(dp1029
g87
g88
ssg76
g1023
sg69
(lp1030
S'http_content_type'
p1031
asbag62
(g83
g64
NtRp1032
(dp1033
g67
(dp1034
g94
g95
ssg76
g1023
sg69
(lp1035
S':'
asbag62
(g83
g64
NtRp1036
(dp1037
g67
(dp1038
sg76
g1023
sg69
(lp1039
g62
(g63
g64
NtRp1040
(dp1041
g67
(dp1042
g75
I4
ssg76
g1036
sg69
(lp1043
g804
asbasbasbag62
(g78
g64
NtRp1044
(dp1045
g67
(dp1046
sg76
g666
sg69
(lp1047
g62
(g83
g64
NtRp1048
(dp1049
g67
(dp1050
g87
g88
ssg76
g1044
sg69
(lp1051
S'http_cookie'
p1052
asbag62
(g83
g64
NtRp1053
(dp1054
g67
(dp1055
g94
g95
ssg76
g1044
sg69
(lp1056
S':'
asbag62
(g83
g64
NtRp1057
(dp1058
g67
(dp1059
sg76
g1044
sg69
(lp1060
g62
(g63
g64
NtRp1061
(dp1062
g67
(dp1063
g75
I4
ssg76
g1057
sg69
(lp1064
S'session_id_init=127.0.0.1-6078939d-922f-428b-b405-987576949430; __utma=96992031.1435691907.1350205259.1350205259.1350208853.2; __utmb=96992031.14.10.1350208853; __utmc=96992031; __utmz=96992031.1350205259.1.1.utmcsr=(direct)|utmccn=(direct)|utmcmd=(none); session_id_admin=127.0.0.1-b09474c4-74c6-4bff-864d-e3d6c3b6e87e'
p1065
asbasbasbag62
(g78
g64
NtRp1066
(dp1067
g67
(dp1068
sg76
g666
sg69
(lp1069
g62
(g83
g64
NtRp1070
(dp1071
g67
(dp1072
g87
g88
ssg76
g1066
sg69
(lp1073
S'http_host'
p1074
asbag62
(g83
g64
NtRp1075
(dp1076
g67
(dp1077
g94
g95
ssg76
g1066
sg69
(lp1078
S':'
asbag62
(g83
g64
NtRp1079
(dp1080
g67
(dp1081
sg76
g1066
sg69
(lp1082
g62
(g63
g64
NtRp1083
(dp1084
g67
(dp1085
g75
I4
ssg76
g1079
sg69
(lp1086
S'127.0.0.1:8000'
p1087
asbasbasbag62
(g78
g64
NtRp1088
(dp1089
g67
(dp1090
sg76
g666
sg69
(lp1091
g62
(g83
g64
NtRp1092
(dp1093
g67
(dp1094
g87
g88
ssg76
g1088
sg69
(lp1095
S'http_origin'
p1096
asbag62
(g83
g64
NtRp1097
(dp1098
g67
(dp1099
g94
g95
ssg76
g1088
sg69
(lp1100
S':'
asbag62
(g83
g64
NtRp1101
(dp1102
g67
(dp1103
sg76
g1088
sg69
(lp1104
g62
(g63
g64
NtRp1105
(dp1106
g67
(dp1107
g75
I4
ssg76
g1101
sg69
(lp1108
S'http://127.0.0.1:8000'
p1109
asbasbasbag62
(g78
g64
NtRp1110
(dp1111
g67
(dp1112
sg76
g666
sg69
(lp1113
g62
(g83
g64
NtRp1114
(dp1115
g67
(dp1116
g87
g88
ssg76
g1110
sg69
(lp1117
S'http_referer'
p1118
asbag62
(g83
g64
NtRp1119
(dp1120
g67
(dp1121
g94
g95
ssg76
g1110
sg69
(lp1122
S':'
asbag62
(g83
g64
NtRp1123
(dp1124
g67
(dp1125
sg76
g1110
sg69
(lp1126
g62
(g63
g64
NtRp1127
(dp1128
g67
(dp1129
g75
I4
ssg76
g1123
sg69
(lp1130
S'http://127.0.0.1:8000/admin/wizard/step6'
p1131
asbasbasbag62
(g78
g64
NtRp1132
(dp1133
g67
(dp1134
sg76
g666
sg69
(lp1135
g62
(g83
g64
NtRp1136
(dp1137
g67
(dp1138
g87
g88
ssg76
g1132
sg69
(lp1139
S'http_user_agent'
p1140
asbag62
(g83
g64
NtRp1141
(dp1142
g67
(dp1143
g94
g95
ssg76
g1132
sg69
(lp1144
S':'
asbag62
(g83
g64
NtRp1145
(dp1146
g67
(dp1147
sg76
g1132
sg69
(lp1148
g62
(g63
g64
NtRp1149
(dp1150
g67
(dp1151
g75
I4
ssg76
g1145
sg69
(lp1152
S'Mozilla/5.0 (Windows NT 6.1; WOW64) AppleWebKit/537.4 (KHTML, like Gecko) Chrome/22.0.1229.91 Safari/537.4'
p1153
asbasbasbag62
(g78
g64
NtRp1154
(dp1155
g67
(dp1156
sg76
g666
sg69
(lp1157
g62
(g83
g64
NtRp1158
(dp1159
g67
(dp1160
g87
g88
ssg76
g1154
sg69
(lp1161
S'is_jython'
p1162
asbag62
(g83
g64
NtRp1163
(dp1164
g67
(dp1165
g94
g95
ssg76
g1154
sg69
(lp1166
S':'
asbag62
(g83
g64
NtRp1167
(dp1168
g67
(dp1169
sg76
g1154
sg69
(lp1170
g62
(g63
g64
NtRp1171
(dp1172
g67
(dp1173
g75
I4
ssg76
g1167
sg69
(lp1174
g105
asbasbasbag62
(g78
g64
NtRp1175
(dp1176
g67
(dp1177
sg76
g666
sg69
(lp1178
g62
(g83
g64
NtRp1179
(dp1180
g67
(dp1181
g87
g88
ssg76
g1175
sg69
(lp1182
S'is_pypy'
p1183
asbag62
(g83
g64
NtRp1184
(dp1185
g67
(dp1186
g94
g95
ssg76
g1175
sg69
(lp1187
S':'
asbag62
(g83
g64
NtRp1188
(dp1189
g67
(dp1190
sg76
g1175
sg69
(lp1191
g62
(g63
g64
NtRp1192
(dp1193
g67
(dp1194
g75
I4
ssg76
g1188
sg69
(lp1195
g105
asbasbasbag62
(g78
g64
NtRp1196
(dp1197
g67
(dp1198
sg76
g666
sg69
(lp1199
g62
(g83
g64
NtRp1200
(dp1201
g67
(dp1202
g87
g88
ssg76
g1196
sg69
(lp1203
S'path_info'
p1204
asbag62
(g83
g64
NtRp1205
(dp1206
g67
(dp1207
g94
g95
ssg76
g1196
sg69
(lp1208
S':'
asbag62
(g83
g64
NtRp1209
(dp1210
g67
(dp1211
sg76
g1196
sg69
(lp1212
g62
(g63
g64
NtRp1213
(dp1214
g67
(dp1215
g75
I4
ssg76
g1209
sg69
(lp1216
S'/admin/wizard/step6'
p1217
asbasbasbag62
(g78
g64
NtRp1218
(dp1219
g67
(dp1220
sg76
g666
sg69
(lp1221
g62
(g83
g64
NtRp1222
(dp1223
g67
(dp1224
g87
g88
ssg76
g1218
sg69
(lp1225
S'query_string'
p1226
asbag62
(g83
g64
NtRp1227
(dp1228
g67
(dp1229
g94
g95
ssg76
g1218
sg69
(lp1230
S':'
asbag62
(g83
g64
NtRp1231
(dp1232
g67
(dp1233
sg76
g1218
sg69
(lp1234
g62
(g63
g64
NtRp1235
(dp1236
g67
(dp1237
g75
I4
ssg76
g1231
sg69
(lp1238
S''
asbasbasbag62
(g78
g64
NtRp1239
(dp1240
g67
(dp1241
sg76
g666
sg69
(lp1242
g62
(g83
g64
NtRp1243
(dp1244
g67
(dp1245
g87
g88
ssg76
g1239
sg69
(lp1246
S'remote_addr'
p1247
asbag62
(g83
g64
NtRp1248
(dp1249
g67
(dp1250
g94
g95
ssg76
g1239
sg69
(lp1251
S':'
asbag62
(g83
g64
NtRp1252
(dp1253
g67
(dp1254
sg76
g1239
sg69
(lp1255
g62
(g63
g64
NtRp1256
(dp1257
g67
(dp1258
g75
I4
ssg76
g1252
sg69
(lp1259
g217
asbasbasbag62
(g78
g64
NtRp1260
(dp1261
g67
(dp1262
sg76
g666
sg69
(lp1263
g62
(g83
g64
NtRp1264
(dp1265
g67
(dp1266
g87
g88
ssg76
g1260
sg69
(lp1267
S'remote_port'
p1268
asbag62
(g83
g64
NtRp1269
(dp1270
g67
(dp1271
g94
g95
ssg76
g1260
sg69
(lp1272
S':'
asbag62
(g83
g64
NtRp1273
(dp1274
g67
(dp1275
sg76
g1260
sg69
(lp1276
g62
(g63
g64
NtRp1277
(dp1278
g67
(dp1279
g75
I4
ssg76
g1273
sg69
(lp1280
S'51779'
p1281
asbasbasbag62
(g78
g64
NtRp1282
(dp1283
g67
(dp1284
sg76
g666
sg69
(lp1285
g62
(g83
g64
NtRp1286
(dp1287
g67
(dp1288
g87
g88
ssg76
g1282
sg69
(lp1289
S'request_method'
p1290
asbag62
(g83
g64
NtRp1291
(dp1292
g67
(dp1293
g94
g95
ssg76
g1282
sg69
(lp1294
S':'
asbag62
(g83
g64
NtRp1295
(dp1296
g67
(dp1297
sg76
g1282
sg69
(lp1298
g62
(g63
g64
NtRp1299
(dp1300
g67
(dp1301
g75
I4
ssg76
g1295
sg69
(lp1302
S'POST'
p1303
asbasbasbag62
(g78
g64
NtRp1304
(dp1305
g67
(dp1306
sg76
g666
sg69
(lp1307
g62
(g83
g64
NtRp1308
(dp1309
g67
(dp1310
g87
g88
ssg76
g1304
sg69
(lp1311
S'request_uri'
p1312
asbag62
(g83
g64
NtRp1313
(dp1314
g67
(dp1315
g94
g95
ssg76
g1304
sg69
(lp1316
S':'
asbag62
(g83
g64
NtRp1317
(dp1318
g67
(dp1319
sg76
g1304
sg69
(lp1320
g62
(g63
g64
NtRp1321
(dp1322
g67
(dp1323
g75
I4
ssg76
g1317
sg69
(lp1324
g1217
asbasbasbag62
(g78
g64
NtRp1325
(dp1326
g67
(dp1327
sg76
g666
sg69
(lp1328
g62
(g83
g64
NtRp1329
(dp1330
g67
(dp1331
g87
g88
ssg76
g1325
sg69
(lp1332
S'script_name'
p1333
asbag62
(g83
g64
NtRp1334
(dp1335
g67
(dp1336
g94
g95
ssg76
g1325
sg69
(lp1337
S':'
asbag62
(g83
g64
NtRp1338
(dp1339
g67
(dp1340
sg76
g1325
sg69
(lp1341
g62
(g63
g64
NtRp1342
(dp1343
g67
(dp1344
g75
I4
ssg76
g1338
sg69
(lp1345
S''
asbasbasbag62
(g78
g64
NtRp1346
(dp1347
g67
(dp1348
sg76
g666
sg69
(lp1349
g62
(g83
g64
NtRp1350
(dp1351
g67
(dp1352
g87
g88
ssg76
g1346
sg69
(lp1353
S'server_name'
p1354
asbag62
(g83
g64
NtRp1355
(dp1356
g67
(dp1357
g94
g95
ssg76
g1346
sg69
(lp1358
S':'
asbag62
(g83
g64
NtRp1359
(dp1360
g67
(dp1361
sg76
g1346
sg69
(lp1362
g62
(g63
g64
NtRp1363
(dp1364
g67
(dp1365
g75
I4
ssg76
g1359
sg69
(lp1366
S'LP-US-002'
p1367
asbasbasbag62
(g78
g64
NtRp1368
(dp1369
g67
(dp1370
sg76
g666
sg69
(lp1371
g62
(g83
g64
NtRp1372
(dp1373
g67
(dp1374
g87
g88
ssg76
g1368
sg69
(lp1375
S'server_port'
p1376
asbag62
(g83
g64
NtRp1377
(dp1378
g67
(dp1379
g94
g95
ssg76
g1368
sg69
(lp1380
S':'
asbag62
(g83
g64
NtRp1381
(dp1382
g67
(dp1383
sg76
g1368
sg69
(lp1384
g62
(g63
g64
NtRp1385
(dp1386
g67
(dp1387
g75
I4
ssg76
g1381
sg69
(lp1388
S'8000'
p1389
asbasbasbag62
(g78
g64
NtRp1390
(dp1391
g67
(dp1392
sg76
g666
sg69
(lp1393
g62
(g83
g64
NtRp1394
(dp1395
g67
(dp1396
g87
g88
ssg76
g1390
sg69
(lp1397
S'server_protocol'
p1398
asbag62
(g83
g64
NtRp1399
(dp1400
g67
(dp1401
g94
g95
ssg76
g1390
sg69
(lp1402
S':'
asbag62
(g83
g64
NtRp1403
(dp1404
g67
(dp1405
sg76
g1390
sg69
(lp1406
g62
(g63
g64
NtRp1407
(dp1408
g67
(dp1409
g75
I4
ssg76
g1403
sg69
(lp1410
S'HTTP/1.1'
p1411
asbasbasbag62
(g78
g64
NtRp1412
(dp1413
g67
(dp1414
sg76
g666
sg69
(lp1415
g62
(g83
g64
NtRp1416
(dp1417
g67
(dp1418
g87
g88
ssg76
g1412
sg69
(lp1419
S'server_software'
p1420
asbag62
(g83
g64
NtRp1421
(dp1422
g67
(dp1423
g94
g95
ssg76
g1412
sg69
(lp1424
S':'
asbag62
(g83
g64
NtRp1425
(dp1426
g67
(dp1427
sg76
g1412
sg69
(lp1428
g62
(g63
g64
NtRp1429
(dp1430
g67
(dp1431
g75
I4
ssg76
g1425
sg69
(lp1432
S'Rocket 1.2.4'
p1433
asbasbasbag62
(g78
g64
NtRp1434
(dp1435
g67
(dp1436
sg76
g666
sg69
(lp1437
g62
(g83
g64
NtRp1438
(dp1439
g67
(dp1440
g87
g88
ssg76
g1434
sg69
(lp1441
S'web2py_crontype'
p1442
asbag62
(g83
g64
NtRp1443
(dp1444
g67
(dp1445
g94
g95
ssg76
g1434
sg69
(lp1446
S':'
asbag62
(g83
g64
NtRp1447
(dp1448
g67
(dp1449
sg76
g1434
sg69
(lp1450
g62
(g63
g64
NtRp1451
(dp1452
g67
(dp1453
g75
I4
ssg76
g1447
sg69
(lp1454
S'hard'
p1455
asbasbasbag62
(g78
g64
NtRp1456
(dp1457
g67
(dp1458
sg76
g666
sg69
(lp1459
g62
(g83
g64
NtRp1460
(dp1461
g67
(dp1462
g87
g88
ssg76
g1456
sg69
(lp1463
S'web2py_original_uri'
p1464
asbag62
(g83
g64
NtRp1465
(dp1466
g67
(dp1467
g94
g95
ssg76
g1456
sg69
(lp1468
S':'
asbag62
(g83
g64
NtRp1469
(dp1470
g67
(dp1471
sg76
g1456
sg69
(lp1472
g62
(g63
g64
NtRp1473
(dp1474
g67
(dp1475
g75
I4
ssg76
g1469
sg69
(lp1476
g1217
asbasbasbag62
(g78
g64
NtRp1477
(dp1478
g67
(dp1479
sg76
g666
sg69
(lp1480
g62
(g83
g64
NtRp1481
(dp1482
g67
(dp1483
g87
g88
ssg76
g1477
sg69
(lp1484
S'web2py_path'
p1485
asbag62
(g83
g64
NtRp1486
(dp1487
g67
(dp1488
g94
g95
ssg76
g1477
sg69
(lp1489
S':'
asbag62
(g83
g64
NtRp1490
(dp1491
g67
(dp1492
sg76
g1477
sg69
(lp1493
g62
(g63
g64
NtRp1494
(dp1495
g67
(dp1496
g75
I4
ssg76
g1490
sg69
(lp1497
g713
asbasbasbag62
(g78
g64
NtRp1498
(dp1499
g67
(dp1500
sg76
g666
sg69
(lp1501
g62
(g83
g64
NtRp1502
(dp1503
g67
(dp1504
g87
g88
ssg76
g1498
sg69
(lp1505
S'web2py_version'
p1506
asbag62
(g83
g64
NtRp1507
(dp1508
g67
(dp1509
g94
g95
ssg76
g1498
sg69
(lp1510
S':'
asbag62
(g83
g64
NtRp1511
(dp1512
g67
(dp1513
sg76
g1498
sg69
(lp1514
g62
(g63
g64
NtRp1515
(dp1516
g67
(dp1517
g75
I4
ssg76
g1511
sg69
(lp1518
g62
(g71
g64
NtRp1519
(dp1520
g67
(dp1521
g75
I3
ssg76
Nsg69
(lp1522
g62
(g78
g64
NtRp1523
(dp1524
g67
(dp1525
sg76
g1519
sg69
(lp1526
g62
(g83
g64
NtRp1527
(dp1528
g67
(dp1529
sg76
g1523
sg69
(lp1530
g62
(g63
g64
NtRp1531
(dp1532
g67
(dp1533
g75
I3
ssg76
g1527
sg69
(lp1534
S'2'
asbasbasbag62
(g78
g64
NtRp1535
(dp1536
g67
(dp1537
sg76
g1519
sg69
(lp1538
g62
(g83
g64
NtRp1539
(dp1540
g67
(dp1541
sg76
g1535
sg69
(lp1542
g62
(g63
g64
NtRp1543
(dp1544
g67
(dp1545
g75
I3
ssg76
g1539
sg69
(lp1546
S'0'
asbasbasbag62
(g78
g64
NtRp1547
(dp1548
g67
(dp1549
sg76
g1519
sg69
(lp1550
g62
(g83
g64
NtRp1551
(dp1552
g67
(dp1553
sg76
g1547
sg69
(lp1554
g62
(g63
g64
NtRp1555
(dp1556
g67
(dp1557
g75
I3
ssg76
g1551
sg69
(lp1558
S'9'
asbasbasbag62
(g78
g64
NtRp1559
(dp1560
g67
(dp1561
sg76
g1519
sg69
(lp1562
g62
(g83
g64
NtRp1563
(dp1564
g67
(dp1565
sg76
g1559
sg69
(lp1566
g62
(g63
g64
NtRp1567
(dp1568
g67
(dp1569
g75
I3
ssg76
g1563
sg69
(lp1570
S'datetime.datetime(2012, 9, 13, 23, 51, 30)'
p1571
asbasbasbag62
(g78
g64
NtRp1572
(dp1573
g67
(dp1574
sg76
g1519
sg69
(lp1575
g62
(g83
g64
NtRp1576
(dp1577
g67
(dp1578
sg76
g1572
sg69
(lp1579
g62
(g63
g64
NtRp1580
(dp1581
g67
(dp1582
g75
I3
ssg76
g1576
sg69
(lp1583
S'stable'
p1584
asbasbasbasbasbasbasbag62
(g78
g64
NtRp1585
(dp1586
g67
(dp1587
sg76
g666
sg69
(lp1588
g62
(g83
g64
NtRp1589
(dp1590
g67
(dp1591
g87
g88
ssg76
g1585
sg69
(lp1592
S'wsgi_errors'
p1593
asbag62
(g83
g64
NtRp1594
(dp1595
g67
(dp1596
g94
g95
ssg76
g1585
sg69
(lp1597
S':'
asbag62
(g83
g64
NtRp1598
(dp1599
g67
(dp1600
sg76
g1585
sg69
(lp1601
g62
(g63
g64
NtRp1602
(dp1603
g67
(dp1604
g75
I4
ssg76
g1598
sg69
(lp1605
S"<open file '<stderr>', mode 'w' at 0x0000000001DDE1E0>"
p1606
asbasbasbag62
(g78
g64
NtRp1607
(dp1608
g67
(dp1609
sg76
g666
sg69
(lp1610
g62
(g83
g64
NtRp1611
(dp1612
g67
(dp1613
g87
g88
ssg76
g1607
sg69
(lp1614
S'wsgi_file_wrapper'
p1615
asbag62
(g83
g64
NtRp1616
(dp1617
g67
(dp1618
g94
g95
ssg76
g1607
sg69
(lp1619
S':'
asbag62
(g83
g64
NtRp1620
(dp1621
g67
(dp1622
sg76
g1607
sg69
(lp1623
g62
(g63
g64
NtRp1624
(dp1625
g67
(dp1626
g75
I4
ssg76
g1620
sg69
(lp1627
S'<class wsgiref.util.FileWrapper at 0x00000000041E25E8>'
p1628
asbasbasbag62
(g78
g64
NtRp1629
(dp1630
g67
(dp1631
sg76
g666
sg69
(lp1632
g62
(g83
g64
NtRp1633
(dp1634
g67
(dp1635
g87
g88
ssg76
g1629
sg69
(lp1636
S'wsgi_input'
p1637
asbag62
(g83
g64
NtRp1638
(dp1639
g67
(dp1640
g94
g95
ssg76
g1629
sg69
(lp1641
S':'
asbag62
(g83
g64
NtRp1642
(dp1643
g67
(dp1644
sg76
g1629
sg69
(lp1645
g62
(g63
g64
NtRp1646
(dp1647
g67
(dp1648
g75
I4
ssg76
g1642
sg69
(lp1649
S'<socket._fileobject object at 0x0000000008A62930>'
p1650
asbasbasbag62
(g78
g64
NtRp1651
(dp1652
g67
(dp1653
sg76
g666
sg69
(lp1654
g62
(g83
g64
NtRp1655
(dp1656
g67
(dp1657
g87
g88
ssg76
g1651
sg69
(lp1658
S'wsgi_multiprocess'
p1659
asbag62
(g83
g64
NtRp1660
(dp1661
g67
(dp1662
g94
g95
ssg76
g1651
sg69
(lp1663
S':'
asbag62
(g83
g64
NtRp1664
(dp1665
g67
(dp1666
sg76
g1651
sg69
(lp1667
g62
(g63
g64
NtRp1668
(dp1669
g67
(dp1670
g75
I4
ssg76
g1664
sg69
(lp1671
g105
asbasbasbag62
(g78
g64
NtRp1672
(dp1673
g67
(dp1674
sg76
g666
sg69
(lp1675
g62
(g83
g64
NtRp1676
(dp1677
g67
(dp1678
g87
g88
ssg76
g1672
sg69
(lp1679
S'wsgi_multithread'
p1680
asbag62
(g83
g64
NtRp1681
(dp1682
g67
(dp1683
g94
g95
ssg76
g1672
sg69
(lp1684
S':'
asbag62
(g83
g64
NtRp1685
(dp1686
g67
(dp1687
sg76
g1672
sg69
(lp1688
g62
(g63
g64
NtRp1689
(dp1690
g67
(dp1691
g75
I4
ssg76
g1685
sg69
(lp1692
S'True'
p1693
asbasbasbag62
(g78
g64
NtRp1694
(dp1695
g67
(dp1696
sg76
g666
sg69
(lp1697
g62
(g83
g64
NtRp1698
(dp1699
g67
(dp1700
g87
g88
ssg76
g1694
sg69
(lp1701
S'wsgi_run_once'
p1702
asbag62
(g83
g64
NtRp1703
(dp1704
g67
(dp1705
g94
g95
ssg76
g1694
sg69
(lp1706
S':'
asbag62
(g83
g64
NtRp1707
(dp1708
g67
(dp1709
sg76
g1694
sg69
(lp1710
g62
(g63
g64
NtRp1711
(dp1712
g67
(dp1713
g75
I4
ssg76
g1707
sg69
(lp1714
g105
asbasbasbag62
(g78
g64
NtRp1715
(dp1716
g67
(dp1717
sg76
g666
sg69
(lp1718
g62
(g83
g64
NtRp1719
(dp1720
g67
(dp1721
g87
g88
ssg76
g1715
sg69
(lp1722
S'wsgi_url_scheme'
p1723
asbag62
(g83
g64
NtRp1724
(dp1725
g67
(dp1726
g94
g95
ssg76
g1715
sg69
(lp1727
S':'
asbag62
(g83
g64
NtRp1728
(dp1729
g67
(dp1730
sg76
g1715
sg69
(lp1731
g62
(g63
g64
NtRp1732
(dp1733
g67
(dp1734
g75
I4
ssg76
g1728
sg69
(lp1735
S'http'
p1736
asbasbasbag62
(g78
g64
NtRp1737
(dp1738
g67
(dp1739
sg76
g666
sg69
(lp1740
g62
(g83
g64
NtRp1741
(dp1742
g67
(dp1743
g87
g88
ssg76
g1737
sg69
(lp1744
S'wsgi_version'
p1745
asbag62
(g83
g64
NtRp1746
(dp1747
g67
(dp1748
g94
g95
ssg76
g1737
sg69
(lp1749
S':'
asbag62
(g83
g64
NtRp1750
(dp1751
g67
(dp1752
sg76
g1737
sg69
(lp1753
g62
(g63
g64
NtRp1754
(dp1755
g67
(dp1756
g75
I4
ssg76
g1750
sg69
(lp1757
g62
(g71
g64
NtRp1758
(dp1759
g67
(dp1760
g75
I3
ssg76
Nsg69
(lp1761
g62
(g78
g64
NtRp1762
(dp1763
g67
(dp1764
sg76
g1758
sg69
(lp1765
g62
(g83
g64
NtRp1766
(dp1767
g67
(dp1768
sg76
g1762
sg69
(lp1769
g62
(g63
g64
NtRp1770
(dp1771
g67
(dp1772
g75
I3
ssg76
g1766
sg69
(lp1773
S'1'
asbasbasbag62
(g78
g64
NtRp1774
(dp1775
g67
(dp1776
sg76
g1758
sg69
(lp1777
g62
(g83
g64
NtRp1778
(dp1779
g67
(dp1780
sg76
g1774
sg69
(lp1781
g62
(g63
g64
NtRp1782
(dp1783
g67
(dp1784
g75
I3
ssg76
g1778
sg69
(lp1785
S'0'
asbasbasbasbasbasbasbasbasbasbasbag62
(g78
g64
NtRp1786
(dp1787
g67
(dp1788
sg76
g72
sg69
(lp1789
g62
(g83
g64
NtRp1790
(dp1791
g67
(dp1792
g87
g88
ssg76
g1786
sg69
(lp1793
S'extension'
p1794
asbag62
(g83
g64
NtRp1795
(dp1796
g67
(dp1797
g94
g95
ssg76
g1786
sg69
(lp1798
S':'
asbag62
(g83
g64
NtRp1799
(dp1800
g67
(dp1801
sg76
g1786
sg69
(lp1802
g62
(g63
g64
NtRp1803
(dp1804
g67
(dp1805
g75
I5
ssg76
g1799
sg69
(lp1806
S'html'
p1807
asbasbasbag62
(g78
g64
NtRp1808
(dp1809
g67
(dp1810
sg76
g72
sg69
(lp1811
g62
(g83
g64
NtRp1812
(dp1813
g67
(dp1814
g87
g88
ssg76
g1808
sg69
(lp1815
S'folder'
p1816
asbag62
(g83
g64
NtRp1817
(dp1818
g67
(dp1819
g94
g95
ssg76
g1808
sg69
(lp1820
S':'
asbag62
(g83
g64
NtRp1821
(dp1822
g67
(dp1823
sg76
g1808
sg69
(lp1824
g62
(g63
g64
NtRp1825
(dp1826
g67
(dp1827
g75
I5
ssg76
g1821
sg69
(lp1828
S'C:\\Users\\admin\\Desktop\\Sathvik\\Tharuni.Org\\applications\\admin\\'
p1829
asbasbasbag62
(g78
g64
NtRp1830
(dp1831
g67
(dp1832
sg76
g72
sg69
(lp1833
g62
(g83
g64
NtRp1834
(dp1835
g67
(dp1836
g87
g88
ssg76
g1830
sg69
(lp1837
S'function'
p1838
asbag62
(g83
g64
NtRp1839
(dp1840
g67
(dp1841
g94
g95
ssg76
g1830
sg69
(lp1842
S':'
asbag62
(g83
g64
NtRp1843
(dp1844
g67
(dp1845
sg76
g1830
sg69
(lp1846
g62
(g63
g64
NtRp1847
(dp1848
g67
(dp1849
g75
I5
ssg76
g1843
sg69
(lp1850
S'step6'
p1851
asbasbasbag62
(g78
g64
NtRp1852
(dp1853
g67
(dp1854
sg76
g72
sg69
(lp1855
g62
(g83
g64
NtRp1856
(dp1857
g67
(dp1858
g87
g88
ssg76
g1852
sg69
(lp1859
S'get_vars'
p1860
asbag62
(g83
g64
NtRp1861
(dp1862
g67
(dp1863
g94
g95
ssg76
g1852
sg69
(lp1864
S':'
asbag62
(g83
g64
NtRp1865
(dp1866
g67
(dp1867
sg76
g1852
sg69
(lp1868
g62
(g63
g64
NtRp1869
(dp1870
g67
(dp1871
g75
I5
ssg76
g1865
sg69
(lp1872
g62
(g71
g64
NtRp1873
(dp1874
g67
(dp1875
g75
I4
ssg76
Nsg69
(lp1876
sbasbasbasbag62
(g78
g64
NtRp1877
(dp1878
g67
(dp1879
sg76
g72
sg69
(lp1880
g62
(g83
g64
NtRp1881
(dp1882
g67
(dp1883
g87
g88
ssg76
g1877
sg69
(lp1884
S'global_settings'
p1885
asbag62
(g83
g64
NtRp1886
(dp1887
g67
(dp1888
g94
g95
ssg76
g1877
sg69
(lp1889
S':'
asbag62
(g83
g64
NtRp1890
(dp1891
g67
(dp1892
sg76
g1877
sg69
(lp1893
g62
(g63
g64
NtRp1894
(dp1895
g67
(dp1896
g75
I5
ssg76
g1890
sg69
(lp1897
g62
(g71
g64
NtRp1898
(dp1899
g67
(dp1900
g75
I4
ssg76
Nsg69
(lp1901
g62
(g78
g64
NtRp1902
(dp1903
g67
(dp1904
sg76
g1898
sg69
(lp1905
g62
(g83
g64
NtRp1906
(dp1907
g67
(dp1908
g87
g88
ssg76
g1902
sg69
(lp1909
g678
asbag62
(g83
g64
NtRp1910
(dp1911
g67
(dp1912
g94
g95
ssg76
g1902
sg69
(lp1913
S':'
asbag62
(g83
g64
NtRp1914
(dp1915
g67
(dp1916
sg76
g1902
sg69
(lp1917
g62
(g63
g64
NtRp1918
(dp1919
g67
(dp1920
g75
I4
ssg76
g1914
sg69
(lp1921
S"set(['C:\\\\Users\\\\admin\\\\Desktop\\\\Sathvik\\\\Tharuni.Org\\\\applications\\\\init\\\\', 'C:\\\\Users\\\\admin\\\\Desktop\\\\Sathvik\\\\Tharuni.Org\\\\applications\\\\admin\\\\'])"
p1922
asbasbasbag62
(g78
g64
NtRp1923
(dp1924
g67
(dp1925
sg76
g1898
sg69
(lp1926
g62
(g83
g64
NtRp1927
(dp1928
g67
(dp1929
g87
g88
ssg76
g1923
sg69
(lp1930
g700
asbag62
(g83
g64
NtRp1931
(dp1932
g67
(dp1933
g94
g95
ssg76
g1923
sg69
(lp1934
S':'
asbag62
(g83
g64
NtRp1935
(dp1936
g67
(dp1937
sg76
g1923
sg69
(lp1938
g62
(g63
g64
NtRp1939
(dp1940
g67
(dp1941
g75
I4
ssg76
g1935
sg69
(lp1942
g713
asbasbasbag62
(g78
g64
NtRp1943
(dp1944
g67
(dp1945
sg76
g1898
sg69
(lp1946
g62
(g83
g64
NtRp1947
(dp1948
g67
(dp1949
g87
g88
ssg76
g1943
sg69
(lp1950
g722
asbag62
(g83
g64
NtRp1951
(dp1952
g67
(dp1953
g94
g95
ssg76
g1943
sg69
(lp1954
S':'
asbag62
(g83
g64
NtRp1955
(dp1956
g67
(dp1957
sg76
g1943
sg69
(lp1958
g62
(g63
g64
NtRp1959
(dp1960
g67
(dp1961
g75
I4
ssg76
g1955
sg69
(lp1962
g62
(g71
g64
NtRp1963
(dp1964
g67
(dp1965
g75
I3
ssg76
Nsg69
(lp1966
sbasbasbasbag62
(g78
g64
NtRp1967
(dp1968
g67
(dp1969
sg76
g1898
sg69
(lp1970
g62
(g83
g64
NtRp1971
(dp1972
g67
(dp1973
g87
g88
ssg76
g1967
sg69
(lp1974
g747
asbag62
(g83
g64
NtRp1975
(dp1976
g67
(dp1977
g94
g95
ssg76
g1967
sg69
(lp1978
S':'
asbag62
(g83
g64
NtRp1979
(dp1980
g67
(dp1981
sg76
g1967
sg69
(lp1982
g62
(g63
g64
NtRp1983
(dp1984
g67
(dp1985
g75
I4
ssg76
g1979
sg69
(lp1986
S"<Values at 0x36b4188: {'verbose': False, 'ip': '127.0.0.1', 'with_scheduler': False, 'ips': ['10.8.4.49', '192.168.1.132', '192.168.56.1', '192.168.166.1', '169.254.251.64'], 'shutdown_timeout': 5, 'taskbar': False, 'port': 8000, 'maxthreads': None, 'softcron': False, 'server_name': 'LP-US-002', 'bpython': False, 'nogui': False, 'nocron': False, 'extcron': False, 'run_system_tests': False, 'test': None, 'folder': 'C:\\\\Users\\\\admin\\\\Desktop\\\\Sathvik\\\\Tharuni.Org', 'config': '', 'import_models': False, 'winservice': '', 'shell': None, 'run': '', 'log_filename': 'httpserver.log', 'debuglevel': 30, 'args': [''], 'socket_timeout': 5, 'ssl_ca_certificate': None, 'scheduler': None, 'profiler_filename': None, 'ssl_private_key': '', 'scheduler_groups': None, 'password': '<ask>', 'request_queue_size': 5, 'ssl_certificate': '', 'cronjob': False, 'numthreads': None, 'quiet': False, 'interfaces': None, 'minthreads': None, 'timeout': 10, 'plain': False, 'nobanner': False, 'pid_filename': 'httpserver.pid'}>"
p1987
asbasbasbag62
(g78
g64
NtRp1988
(dp1989
g67
(dp1990
sg76
g1898
sg69
(lp1991
g62
(g83
g64
NtRp1992
(dp1993
g67
(dp1994
g87
g88
ssg76
g1988
sg69
(lp1995
g813
asbag62
(g83
g64
NtRp1996
(dp1997
g67
(dp1998
g94
g95
ssg76
g1988
sg69
(lp1999
S':'
asbag62
(g83
g64
NtRp2000
(dp2001
g67
(dp2002
sg76
g1988
sg69
(lp2003
g62
(g63
g64
NtRp2004
(dp2005
g67
(dp2006
g75
I4
ssg76
g2000
sg69
(lp2007
S'set([])'
p2008
asbasbasbag62
(g78
g64
NtRp2009
(dp2010
g67
(dp2011
sg76
g1898
sg69
(lp2012
g62
(g83
g64
NtRp2013
(dp2014
g67
(dp2015
g87
g88
ssg76
g2009
sg69
(lp2016
g835
asbag62
(g83
g64
NtRp2017
(dp2018
g67
(dp2019
g94
g95
ssg76
g2009
sg69
(lp2020
S':'
asbag62
(g83
g64
NtRp2021
(dp2022
g67
(dp2023
sg76
g2009
sg69
(lp2024
g62
(g63
g64
NtRp2025
(dp2026
g67
(dp2027
g75
I4
ssg76
g2021
sg69
(lp2028
g105
asbasbasbag62
(g78
g64
NtRp2029
(dp2030
g67
(dp2031
sg76
g1898
sg69
(lp2032
g62
(g83
g64
NtRp2033
(dp2034
g67
(dp2035
g87
g88
ssg76
g2029
sg69
(lp2036
g856
asbag62
(g83
g64
NtRp2037
(dp2038
g67
(dp2039
g94
g95
ssg76
g2029
sg69
(lp2040
S':'
asbag62
(g83
g64
NtRp2041
(dp2042
g67
(dp2043
sg76
g2029
sg69
(lp2044
g62
(g63
g64
NtRp2045
(dp2046
g67
(dp2047
g75
I4
ssg76
g2041
sg69
(lp2048
g869
asbasbasbag62
(g78
g64
NtRp2049
(dp2050
g67
(dp2051
sg76
g1898
sg69
(lp2052
g62
(g83
g64
NtRp2053
(dp2054
g67
(dp2055
g87
g88
ssg76
g2049
sg69
(lp2056
g1162
asbag62
(g83
g64
NtRp2057
(dp2058
g67
(dp2059
g94
g95
ssg76
g2049
sg69
(lp2060
S':'
asbag62
(g83
g64
NtRp2061
(dp2062
g67
(dp2063
sg76
g2049
sg69
(lp2064
g62
(g63
g64
NtRp2065
(dp2066
g67
(dp2067
g75
I4
ssg76
g2061
sg69
(lp2068
g105
asbasbasbag62
(g78
g64
NtRp2069
(dp2070
g67
(dp2071
sg76
g1898
sg69
(lp2072
g62
(g83
g64
NtRp2073
(dp2074
g67
(dp2075
g87
g88
ssg76
g2069
sg69
(lp2076
g1183
asbag62
(g83
g64
NtRp2077
(dp2078
g67
(dp2079
g94
g95
ssg76
g2069
sg69
(lp2080
S':'
asbag62
(g83
g64
NtRp2081
(dp2082
g67
(dp2083
sg76
g2069
sg69
(lp2084
g62
(g63
g64
NtRp2085
(dp2086
g67
(dp2087
g75
I4
ssg76
g2081
sg69
(lp2088
g105
asbasbasbag62
(g78
g64
NtRp2089
(dp2090
g67
(dp2091
sg76
g1898
sg69
(lp2092
g62
(g83
g64
NtRp2093
(dp2094
g67
(dp2095
g87
g88
ssg76
g2089
sg69
(lp2096
g1442
asbag62
(g83
g64
NtRp2097
(dp2098
g67
(dp2099
g94
g95
ssg76
g2089
sg69
(lp2100
S':'
asbag62
(g83
g64
NtRp2101
(dp2102
g67
(dp2103
sg76
g2089
sg69
(lp2104
g62
(g63
g64
NtRp2105
(dp2106
g67
(dp2107
g75
I4
ssg76
g2101
sg69
(lp2108
g1455
asbasbasbag62
(g78
g64
NtRp2109
(dp2110
g67
(dp2111
sg76
g1898
sg69
(lp2112
g62
(g83
g64
NtRp2113
(dp2114
g67
(dp2115
g87
g88
ssg76
g2109
sg69
(lp2116
g1506
asbag62
(g83
g64
NtRp2117
(dp2118
g67
(dp2119
g94
g95
ssg76
g2109
sg69
(lp2120
S':'
asbag62
(g83
g64
NtRp2121
(dp2122
g67
(dp2123
sg76
g2109
sg69
(lp2124
g62
(g63
g64
NtRp2125
(dp2126
g67
(dp2127
g75
I4
ssg76
g2121
sg69
(lp2128
g62
(g71
g64
NtRp2129
(dp2130
g67
(dp2131
g75
I3
ssg76
Nsg69
(lp2132
g62
(g78
g64
NtRp2133
(dp2134
g67
(dp2135
sg76
g2129
sg69
(lp2136
g62
(g83
g64
NtRp2137
(dp2138
g67
(dp2139
sg76
g2133
sg69
(lp2140
g62
(g63
g64
NtRp2141
(dp2142
g67
(dp2143
g75
I3
ssg76
g2137
sg69
(lp2144
S'2'
asbasbasbag62
(g78
g64
NtRp2145
(dp2146
g67
(dp2147
sg76
g2129
sg69
(lp2148
g62
(g83
g64
NtRp2149
(dp2150
g67
(dp2151
sg76
g2145
sg69
(lp2152
g62
(g63
g64
NtRp2153
(dp2154
g67
(dp2155
g75
I3
ssg76
g2149
sg69
(lp2156
S'0'
asbasbasbag62
(g78
g64
NtRp2157
(dp2158
g67
(dp2159
sg76
g2129
sg69
(lp2160
g62
(g83
g64
NtRp2161
(dp2162
g67
(dp2163
sg76
g2157
sg69
(lp2164
g62
(g63
g64
NtRp2165
(dp2166
g67
(dp2167
g75
I3
ssg76
g2161
sg69
(lp2168
S'9'
asbasbasbag62
(g78
g64
NtRp2169
(dp2170
g67
(dp2171
sg76
g2129
sg69
(lp2172
g62
(g83
g64
NtRp2173
(dp2174
g67
(dp2175
sg76
g2169
sg69
(lp2176
g62
(g63
g64
NtRp2177
(dp2178
g67
(dp2179
g75
I3
ssg76
g2173
sg69
(lp2180
S'datetime.datetime(2012, 9, 13, 23, 51, 30)'
p2181
asbasbasbag62
(g78
g64
NtRp2182
(dp2183
g67
(dp2184
sg76
g2129
sg69
(lp2185
g62
(g83
g64
NtRp2186
(dp2187
g67
(dp2188
sg76
g2182
sg69
(lp2189
g62
(g63
g64
NtRp2190
(dp2191
g67
(dp2192
g75
I3
ssg76
g2186
sg69
(lp2193
g1584
asbasbasbasbasbasbasbasbasbasbasbag62
(g78
g64
NtRp2194
(dp2195
g67
(dp2196
sg76
g72
sg69
(lp2197
g62
(g83
g64
NtRp2198
(dp2199
g67
(dp2200
g87
g88
ssg76
g2194
sg69
(lp2201
S'is_https'
p2202
asbag62
(g83
g64
NtRp2203
(dp2204
g67
(dp2205
g94
g95
ssg76
g2194
sg69
(lp2206
S':'
asbag62
(g83
g64
NtRp2207
(dp2208
g67
(dp2209
sg76
g2194
sg69
(lp2210
g62
(g63
g64
NtRp2211
(dp2212
g67
(dp2213
g75
I5
ssg76
g2207
sg69
(lp2214
g105
asbasbasbag62
(g78
g64
NtRp2215
(dp2216
g67
(dp2217
sg76
g72
sg69
(lp2218
g62
(g83
g64
NtRp2219
(dp2220
g67
(dp2221
g87
g88
ssg76
g2215
sg69
(lp2222
S'is_local'
p2223
asbag62
(g83
g64
NtRp2224
(dp2225
g67
(dp2226
g94
g95
ssg76
g2215
sg69
(lp2227
S':'
asbag62
(g83
g64
NtRp2228
(dp2229
g67
(dp2230
sg76
g2215
sg69
(lp2231
g62
(g63
g64
NtRp2232
(dp2233
g67
(dp2234
g75
I5
ssg76
g2228
sg69
(lp2235
g1693
asbasbasbag62
(g78
g64
NtRp2236
(dp2237
g67
(dp2238
sg76
g72
sg69
(lp2239
g62
(g83
g64
NtRp2240
(dp2241
g67
(dp2242
g87
g88
ssg76
g2236
sg69
(lp2243
S'is_restful'
p2244
asbag62
(g83
g64
NtRp2245
(dp2246
g67
(dp2247
g94
g95
ssg76
g2236
sg69
(lp2248
S':'
asbag62
(g83
g64
NtRp2249
(dp2250
g67
(dp2251
sg76
g2236
sg69
(lp2252
g62
(g63
g64
NtRp2253
(dp2254
g67
(dp2255
g75
I5
ssg76
g2249
sg69
(lp2256
g105
asbasbasbag62
(g78
g64
NtRp2257
(dp2258
g67
(dp2259
sg76
g72
sg69
(lp2260
g62
(g83
g64
NtRp2261
(dp2262
g67
(dp2263
g87
g88
ssg76
g2257
sg69
(lp2264
S'now'
p2265
asbag62
(g83
g64
NtRp2266
(dp2267
g67
(dp2268
g94
g95
ssg76
g2257
sg69
(lp2269
S':'
asbag62
(g83
g64
NtRp2270
(dp2271
g67
(dp2272
sg76
g2257
sg69
(lp2273
g62
(g63
g64
NtRp2274
(dp2275
g67
(dp2276
g75
I5
ssg76
g2270
sg69
(lp2277
S'datetime.datetime(2012, 10, 14, 15, 56, 34, 108000)'
p2278
asbasbasbag62
(g78
g64
NtRp2279
(dp2280
g67
(dp2281
sg76
g72
sg69
(lp2282
g62
(g83
g64
NtRp2283
(dp2284
g67
(dp2285
g87
g88
ssg76
g2279
sg69
(lp2286
S'post_vars'
p2287
asbag62
(g83
g64
NtRp2288
(dp2289
g67
(dp2290
g94
g95
ssg76
g2279
sg69
(lp2291
S':'
asbag62
(g83
g64
NtRp2292
(dp2293
g67
(dp2294
sg76
g2279
sg69
(lp2295
g62
(g63
g64
NtRp2296
(dp2297
g67
(dp2298
g75
I5
ssg76
g2292
sg69
(lp2299
g62
(g71
g64
NtRp2300
(dp2301
g67
(dp2302
g75
I4
ssg76
Nsg69
(lp2303
g62
(g78
g64
NtRp2304
(dp2305
g67
(dp2306
sg76
g2300
sg69
(lp2307
g62
(g83
g64
NtRp2308
(dp2309
g67
(dp2310
g87
g88
ssg76
g2304
sg69
(lp2311
S'apply_layout'
p2312
asbag62
(g83
g64
NtRp2313
(dp2314
g67
(dp2315
g94
g95
ssg76
g2304
sg69
(lp2316
S':'
asbag62
(g83
g64
NtRp2317
(dp2318
g67
(dp2319
sg76
g2304
sg69
(lp2320
g62
(g63
g64
NtRp2321
(dp2322
g67
(dp2323
g75
I4
ssg76
g2317
sg69
(lp2324
S'on'
p2325
asbasbasbag62
(g78
g64
NtRp2326
(dp2327
g67
(dp2328
sg76
g2300
sg69
(lp2329
g62
(g83
g64
NtRp2330
(dp2331
g67
(dp2332
g87
g88
ssg76
g2326
sg69
(lp2333
S'erase_database'
p2334
asbag62
(g83
g64
NtRp2335
(dp2336
g67
(dp2337
g94
g95
ssg76
g2326
sg69
(lp2338
S':'
asbag62
(g83
g64
NtRp2339
(dp2340
g67
(dp2341
sg76
g2326
sg69
(lp2342
g62
(g63
g64
NtRp2343
(dp2344
g67
(dp2345
g75
I4
ssg76
g2339
sg69
(lp2346
S'on'
p2347
asbasbasbag62
(g78
g64
NtRp2348
(dp2349
g67
(dp2350
sg76
g2300
sg69
(lp2351
g62
(g83
g64
NtRp2352
(dp2353
g67
(dp2354
g87
g88
ssg76
g2348
sg69
(lp2355
S'generate_controller'
p2356
asbag62
(g83
g64
NtRp2357
(dp2358
g67
(dp2359
g94
g95
ssg76
g2348
sg69
(lp2360
S':'
asbag62
(g83
g64
NtRp2361
(dp2362
g67
(dp2363
sg76
g2348
sg69
(lp2364
g62
(g63
g64
NtRp2365
(dp2366
g67
(dp2367
g75
I4
ssg76
g2361
sg69
(lp2368
S'on'
p2369
asbasbasbag62
(g78
g64
NtRp2370
(dp2371
g67
(dp2372
sg76
g2300
sg69
(lp2373
g62
(g83
g64
NtRp2374
(dp2375
g67
(dp2376
g87
g88
ssg76
g2370
sg69
(lp2377
S'generate_menu'
p2378
asbag62
(g83
g64
NtRp2379
(dp2380
g67
(dp2381
g94
g95
ssg76
g2370
sg69
(lp2382
S':'
asbag62
(g83
g64
NtRp2383
(dp2384
g67
(dp2385
sg76
g2370
sg69
(lp2386
g62
(g63
g64
NtRp2387
(dp2388
g67
(dp2389
g75
I4
ssg76
g2383
sg69
(lp2390
S'on'
p2391
asbasbasbag62
(g78
g64
NtRp2392
(dp2393
g67
(dp2394
sg76
g2300
sg69
(lp2395
g62
(g83
g64
NtRp2396
(dp2397
g67
(dp2398
g87
g88
ssg76
g2392
sg69
(lp2399
S'generate_model'
p2400
asbag62
(g83
g64
NtRp2401
(dp2402
g67
(dp2403
g94
g95
ssg76
g2392
sg69
(lp2404
S':'
asbag62
(g83
g64
NtRp2405
(dp2406
g67
(dp2407
sg76
g2392
sg69
(lp2408
g62
(g63
g64
NtRp2409
(dp2410
g67
(dp2411
g75
I4
ssg76
g2405
sg69
(lp2412
S'on'
p2413
asbasbasbag62
(g78
g64
NtRp2414
(dp2415
g67
(dp2416
sg76
g2300
sg69
(lp2417
g62
(g83
g64
NtRp2418
(dp2419
g67
(dp2420
g87
g88
ssg76
g2414
sg69
(lp2421
S'generate_views'
p2422
asbag62
(g83
g64
NtRp2423
(dp2424
g67
(dp2425
g94
g95
ssg76
g2414
sg69
(lp2426
S':'
asbag62
(g83
g64
NtRp2427
(dp2428
g67
(dp2429
sg76
g2414
sg69
(lp2430
g62
(g63
g64
NtRp2431
(dp2432
g67
(dp2433
g75
I4
ssg76
g2427
sg69
(lp2434
S'on'
p2435
asbasbasbag62
(g78
g64
NtRp2436
(dp2437
g67
(dp2438
sg76
g2300
sg69
(lp2439
g62
(g83
g64
NtRp2440
(dp2441
g67
(dp2442
g87
g88
ssg76
g2436
sg69
(lp2443
S'populate_database'
p2444
asbag62
(g83
g64
NtRp2445
(dp2446
g67
(dp2447
g94
g95
ssg76
g2436
sg69
(lp2448
S':'
asbag62
(g83
g64
NtRp2449
(dp2450
g67
(dp2451
sg76
g2436
sg69
(lp2452
g62
(g63
g64
NtRp2453
(dp2454
g67
(dp2455
g75
I4
ssg76
g2449
sg69
(lp2456
S'on'
p2457
asbasbasbasbasbasbasbag62
(g78
g64
NtRp2458
(dp2459
g67
(dp2460
sg76
g72
sg69
(lp2461
g62
(g83
g64
NtRp2462
(dp2463
g67
(dp2464
g87
g88
ssg76
g2458
sg69
(lp2465
S'raw_args'
p2466
asbag62
(g83
g64
NtRp2467
(dp2468
g67
(dp2469
g94
g95
ssg76
g2458
sg69
(lp2470
S':'
asbag62
(g83
g64
NtRp2471
(dp2472
g67
(dp2473
sg76
g2458
sg69
(lp2474
g62
(g63
g64
NtRp2475
(dp2476
g67
(dp2477
g75
I5
ssg76
g2471
sg69
(lp2478
S'None'
p2479
asbasbasbag62
(g78
g64
NtRp2480
(dp2481
g67
(dp2482
sg76
g72
sg69
(lp2483
g62
(g83
g64
NtRp2484
(dp2485
g67
(dp2486
g87
g88
ssg76
g2480
sg69
(lp2487
S'raw_extension'
p2488
asbag62
(g83
g64
NtRp2489
(dp2490
g67
(dp2491
g94
g95
ssg76
g2480
sg69
(lp2492
S':'
asbag62
(g83
g64
NtRp2493
(dp2494
g67
(dp2495
sg76
g2480
sg69
(lp2496
g62
(g63
g64
NtRp2497
(dp2498
g67
(dp2499
g75
I5
ssg76
g2493
sg69
(lp2500
S'None'
p2501
asbasbasbag62
(g78
g64
NtRp2502
(dp2503
g67
(dp2504
sg76
g72
sg69
(lp2505
g62
(g83
g64
NtRp2506
(dp2507
g67
(dp2508
g87
g88
ssg76
g2502
sg69
(lp2509
S'url'
p2510
asbag62
(g83
g64
NtRp2511
(dp2512
g67
(dp2513
g94
g95
ssg76
g2502
sg69
(lp2514
S':'
asbag62
(g83
g64
NtRp2515
(dp2516
g67
(dp2517
sg76
g2502
sg69
(lp2518
g62
(g63
g64
NtRp2519
(dp2520
g67
(dp2521
g75
I5
ssg76
g2515
sg69
(lp2522
g1217
asbasbasbag62
(g78
g64
NtRp2523
(dp2524
g67
(dp2525
sg76
g72
sg69
(lp2526
g62
(g83
g64
NtRp2527
(dp2528
g67
(dp2529
g87
g88
ssg76
g2523
sg69
(lp2530
S'utcnow'
p2531
asbag62
(g83
g64
NtRp2532
(dp2533
g67
(dp2534
g94
g95
ssg76
g2523
sg69
(lp2535
S':'
asbag62
(g83
g64
NtRp2536
(dp2537
g67
(dp2538
sg76
g2523
sg69
(lp2539
g62
(g63
g64
NtRp2540
(dp2541
g67
(dp2542
g75
I5
ssg76
g2536
sg69
(lp2543
S'datetime.datetime(2012, 10, 14, 10, 26, 34, 108000)'
p2544
asbasbasbag62
(g78
g64
NtRp2545
(dp2546
g67
(dp2547
sg76
g72
sg69
(lp2548
g62
(g83
g64
NtRp2549
(dp2550
g67
(dp2551
g87
g88
ssg76
g2545
sg69
(lp2552
S'uuid'
p2553
asbag62
(g83
g64
NtRp2554
(dp2555
g67
(dp2556
g94
g95
ssg76
g2545
sg69
(lp2557
S':'
asbag62
(g83
g64
NtRp2558
(dp2559
g67
(dp2560
sg76
g2545
sg69
(lp2561
g62
(g63
g64
NtRp2562
(dp2563
g67
(dp2564
g75
I5
ssg76
g2558
sg69
(lp2565
S'admin/127.0.0.1.2012-10-14.15-56-34.bdc734f5-908a-444f-8323-1d8c5810e975'
p2566
asbasbasbag62
(g78
g64
NtRp2567
(dp2568
g67
(dp2569
sg76
g72
sg69
(lp2570
g62
(g83
g64
NtRp2571
(dp2572
g67
(dp2573
g87
g88
ssg76
g2567
sg69
(lp2574
S'vars'
p2575
asbag62
(g83
g64
NtRp2576
(dp2577
g67
(dp2578
g94
g95
ssg76
g2567
sg69
(lp2579
S':'
asbag62
(g83
g64
NtRp2580
(dp2581
g67
(dp2582
sg76
g2567
sg69
(lp2583
g62
(g63
g64
NtRp2584
(dp2585
g67
(dp2586
g75
I5
ssg76
g2580
sg69
(lp2587
g62
(g71
g64
NtRp2588
(dp2589
g67
(dp2590
g75
I4
ssg76
Nsg69
(lp2591
g62
(g78
g64
NtRp2592
(dp2593
g67
(dp2594
sg76
g2588
sg69
(lp2595
g62
(g83
g64
NtRp2596
(dp2597
g67
(dp2598
g87
g88
ssg76
g2592
sg69
(lp2599
g2312
asbag62
(g83
g64
NtRp2600
(dp2601
g67
(dp2602
g94
g95
ssg76
g2592
sg69
(lp2603
S':'
asbag62
(g83
g64
NtRp2604
(dp2605
g67
(dp2606
sg76
g2592
sg69
(lp2607
g62
(g63
g64
NtRp2608
(dp2609
g67
(dp2610
g75
I4
ssg76
g2604
sg69
(lp2611
g2325
asbasbasbag62
(g78
g64
NtRp2612
(dp2613
g67
(dp2614
sg76
g2588
sg69
(lp2615
g62
(g83
g64
NtRp2616
(dp2617
g67
(dp2618
g87
g88
ssg76
g2612
sg69
(lp2619
g2334
asbag62
(g83
g64
NtRp2620
(dp2621
g67
(dp2622
g94
g95
ssg76
g2612
sg69
(lp2623
S':'
asbag62
(g83
g64
NtRp2624
(dp2625
g67
(dp2626
sg76
g2612
sg69
(lp2627
g62
(g63
g64
NtRp2628
(dp2629
g67
(dp2630
g75
I4
ssg76
g2624
sg69
(lp2631
g2347
asbasbasbag62
(g78
g64
NtRp2632
(dp2633
g67
(dp2634
sg76
g2588
sg69
(lp2635
g62
(g83
g64
NtRp2636
(dp2637
g67
(dp2638
g87
g88
ssg76
g2632
sg69
(lp2639
g2356
asbag62
(g83
g64
NtRp2640
(dp2641
g67
(dp2642
g94
g95
ssg76
g2632
sg69
(lp2643
S':'
asbag62
(g83
g64
NtRp2644
(dp2645
g67
(dp2646
sg76
g2632
sg69
(lp2647
g62
(g63
g64
NtRp2648
(dp2649
g67
(dp2650
g75
I4
ssg76
g2644
sg69
(lp2651
g2369
asbasbasbag62
(g78
g64
NtRp2652
(dp2653
g67
(dp2654
sg76
g2588
sg69
(lp2655
g62
(g83
g64
NtRp2656
(dp2657
g67
(dp2658
g87
g88
ssg76
g2652
sg69
(lp2659
g2378
asbag62
(g83
g64
NtRp2660
(dp2661
g67
(dp2662
g94
g95
ssg76
g2652
sg69
(lp2663
S':'
asbag62
(g83
g64
NtRp2664
(dp2665
g67
(dp2666
sg76
g2652
sg69
(lp2667
g62
(g63
g64
NtRp2668
(dp2669
g67
(dp2670
g75
I4
ssg76
g2664
sg69
(lp2671
g2391
asbasbasbag62
(g78
g64
NtRp2672
(dp2673
g67
(dp2674
sg76
g2588
sg69
(lp2675
g62
(g83
g64
NtRp2676
(dp2677
g67
(dp2678
g87
g88
ssg76
g2672
sg69
(lp2679
g2400
asbag62
(g83
g64
NtRp2680
(dp2681
g67
(dp2682
g94
g95
ssg76
g2672
sg69
(lp2683
S':'
asbag62
(g83
g64
NtRp2684
(dp2685
g67
(dp2686
sg76
g2672
sg69
(lp2687
g62
(g63
g64
NtRp2688
(dp2689
g67
(dp2690
g75
I4
ssg76
g2684
sg69
(lp2691
g2413
asbasbasbag62
(g78
g64
NtRp2692
(dp2693
g67
(dp2694
sg76
g2588
sg69
(lp2695
g62
(g83
g64
NtRp2696
(dp2697
g67
(dp2698
g87
g88
ssg76
g2692
sg69
(lp2699
g2422
asbag62
(g83
g64
NtRp2700
(dp2701
g67
(dp2702
g94
g95
ssg76
g2692
sg69
(lp2703
S':'
asbag62
(g83
g64
NtRp2704
(dp2705
g67
(dp2706
sg76
g2692
sg69
(lp2707
g62
(g63
g64
NtRp2708
(dp2709
g67
(dp2710
g75
I4
ssg76
g2704
sg69
(lp2711
g2435
asbasbasbag62
(g78
g64
NtRp2712
(dp2713
g67
(dp2714
sg76
g2588
sg69
(lp2715
g62
(g83
g64
NtRp2716
(dp2717
g67
(dp2718
g87
g88
ssg76
g2712
sg69
(lp2719
g2444
asbag62
(g83
g64
NtRp2720
(dp2721
g67
(dp2722
g94
g95
ssg76
g2712
sg69
(lp2723
S':'
asbag62
(g83
g64
NtRp2724
(dp2725
g67
(dp2726
sg76
g2712
sg69
(lp2727
g62
(g63
g64
NtRp2728
(dp2729
g67
(dp2730
g75
I4
ssg76
g2724
sg69
(lp2731
g2457
asbasbasbasbasbasbasbag62
(g78
g64
NtRp2732
(dp2733
g67
(dp2734
sg76
g72
sg69
(lp2735
g62
(g83
g64
NtRp2736
(dp2737
g67
(dp2738
g87
g88
ssg76
g2732
sg69
(lp2739
S'wsgi'
p2740
asbag62
(g83
g64
NtRp2741
(dp2742
g67
(dp2743
g94
g95
ssg76
g2732
sg69
(lp2744
S':'
asbag62
(g83
g64
NtRp2745
(dp2746
g67
(dp2747
sg76
g2732
sg69
(lp2748
g62
(g63
g64
NtRp2749
(dp2750
g67
(dp2751
g75
I5
ssg76
g2745
sg69
(lp2752
g62
(g71
g64
NtRp2753
(dp2754
g67
(dp2755
g75
I4
ssg76
Nsg69
(lp2756
g62
(g78
g64
NtRp2757
(dp2758
g67
(dp2759
sg76
g2753
sg69
(lp2760
g62
(g83
g64
NtRp2761
(dp2762
g67
(dp2763
g87
g88
ssg76
g2757
sg69
(lp2764
S'environ'
p2765
asbag62
(g83
g64
NtRp2766
(dp2767
g67
(dp2768
g94
g95
ssg76
g2757
sg69
(lp2769
S':'
asbag62
(g83
g64
NtRp2770
(dp2771
g67
(dp2772
sg76
g2757
sg69
(lp2773
g62
(g63
g64
NtRp2774
(dp2775
g67
(dp2776
g75
I4
ssg76
g2770
sg69
(lp2777
g62
(g71
g64
NtRp2778
(dp2779
g67
(dp2780
g75
I3
ssg76
Nsg69
(lp2781
g62
(g78
g64
NtRp2782
(dp2783
g67
(dp2784
sg76
g2778
sg69
(lp2785
g62
(g83
g64
NtRp2786
(dp2787
g67
(dp2788
g87
g88
ssg76
g2782
sg69
(lp2789
S'CONTENT_LENGTH'
p2790
asbag62
(g83
g64
NtRp2791
(dp2792
g67
(dp2793
g94
g95
ssg76
g2782
sg69
(lp2794
S':'
asbag62
(g83
g64
NtRp2795
(dp2796
g67
(dp2797
sg76
g2782
sg69
(lp2798
g62
(g63
g64
NtRp2799
(dp2800
g67
(dp2801
g75
I3
ssg76
g2795
sg69
(lp2802
g782
asbasbasbag62
(g78
g64
NtRp2803
(dp2804
g67
(dp2805
sg76
g2778
sg69
(lp2806
g62
(g83
g64
NtRp2807
(dp2808
g67
(dp2809
g87
g88
ssg76
g2803
sg69
(lp2810
S'CONTENT_TYPE'
p2811
asbag62
(g83
g64
NtRp2812
(dp2813
g67
(dp2814
g94
g95
ssg76
g2803
sg69
(lp2815
S':'
asbag62
(g83
g64
NtRp2816
(dp2817
g67
(dp2818
sg76
g2803
sg69
(lp2819
g62
(g63
g64
NtRp2820
(dp2821
g67
(dp2822
g75
I3
ssg76
g2816
sg69
(lp2823
g804
asbasbasbag62
(g78
g64
NtRp2824
(dp2825
g67
(dp2826
sg76
g2778
sg69
(lp2827
g62
(g83
g64
NtRp2828
(dp2829
g67
(dp2830
g87
g88
ssg76
g2824
sg69
(lp2831
S'HTTP_ACCEPT'
p2832
asbag62
(g83
g64
NtRp2833
(dp2834
g67
(dp2835
g94
g95
ssg76
g2824
sg69
(lp2836
S':'
asbag62
(g83
g64
NtRp2837
(dp2838
g67
(dp2839
sg76
g2824
sg69
(lp2840
g62
(g63
g64
NtRp2841
(dp2842
g67
(dp2843
g75
I3
ssg76
g2837
sg69
(lp2844
g891
asbasbasbag62
(g78
g64
NtRp2845
(dp2846
g67
(dp2847
sg76
g2778
sg69
(lp2848
g62
(g83
g64
NtRp2849
(dp2850
g67
(dp2851
g87
g88
ssg76
g2845
sg69
(lp2852
S'HTTP_ACCEPT_CHARSET'
p2853
asbag62
(g83
g64
NtRp2854
(dp2855
g67
(dp2856
g94
g95
ssg76
g2845
sg69
(lp2857
S':'
asbag62
(g83
g64
NtRp2858
(dp2859
g67
(dp2860
sg76
g2845
sg69
(lp2861
g62
(g63
g64
NtRp2862
(dp2863
g67
(dp2864
g75
I3
ssg76
g2858
sg69
(lp2865
g913
asbasbasbag62
(g78
g64
NtRp2866
(dp2867
g67
(dp2868
sg76
g2778
sg69
(lp2869
g62
(g83
g64
NtRp2870
(dp2871
g67
(dp2872
g87
g88
ssg76
g2866
sg69
(lp2873
S'HTTP_ACCEPT_ENCODING'
p2874
asbag62
(g83
g64
NtRp2875
(dp2876
g67
(dp2877
g94
g95
ssg76
g2866
sg69
(lp2878
S':'
asbag62
(g83
g64
NtRp2879
(dp2880
g67
(dp2881
sg76
g2866
sg69
(lp2882
g62
(g63
g64
NtRp2883
(dp2884
g67
(dp2885
g75
I3
ssg76
g2879
sg69
(lp2886
g935
asbasbasbag62
(g78
g64
NtRp2887
(dp2888
g67
(dp2889
sg76
g2778
sg69
(lp2890
g62
(g83
g64
NtRp2891
(dp2892
g67
(dp2893
g87
g88
ssg76
g2887
sg69
(lp2894
S'HTTP_ACCEPT_LANGUAGE'
p2895
asbag62
(g83
g64
NtRp2896
(dp2897
g67
(dp2898
g94
g95
ssg76
g2887
sg69
(lp2899
S':'
asbag62
(g83
g64
NtRp2900
(dp2901
g67
(dp2902
sg76
g2887
sg69
(lp2903
g62
(g63
g64
NtRp2904
(dp2905
g67
(dp2906
g75
I3
ssg76
g2900
sg69
(lp2907
g957
asbasbasbag62
(g78
g64
NtRp2908
(dp2909
g67
(dp2910
sg76
g2778
sg69
(lp2911
g62
(g83
g64
NtRp2912
(dp2913
g67
(dp2914
g87
g88
ssg76
g2908
sg69
(lp2915
S'HTTP_CACHE_CONTROL'
p2916
asbag62
(g83
g64
NtRp2917
(dp2918
g67
(dp2919
g94
g95
ssg76
g2908
sg69
(lp2920
S':'
asbag62
(g83
g64
NtRp2921
(dp2922
g67
(dp2923
sg76
g2908
sg69
(lp2924
g62
(g63
g64
NtRp2925
(dp2926
g67
(dp2927
g75
I3
ssg76
g2921
sg69
(lp2928
g979
asbasbasbag62
(g78
g64
NtRp2929
(dp2930
g67
(dp2931
sg76
g2778
sg69
(lp2932
g62
(g83
g64
NtRp2933
(dp2934
g67
(dp2935
g87
g88
ssg76
g2929
sg69
(lp2936
S'HTTP_CONNECTION'
p2937
asbag62
(g83
g64
NtRp2938
(dp2939
g67
(dp2940
g94
g95
ssg76
g2929
sg69
(lp2941
S':'
asbag62
(g83
g64
NtRp2942
(dp2943
g67
(dp2944
sg76
g2929
sg69
(lp2945
g62
(g63
g64
NtRp2946
(dp2947
g67
(dp2948
g75
I3
ssg76
g2942
sg69
(lp2949
g1001
asbasbasbag62
(g78
g64
NtRp2950
(dp2951
g67
(dp2952
sg76
g2778
sg69
(lp2953
g62
(g83
g64
NtRp2954
(dp2955
g67
(dp2956
g87
g88
ssg76
g2950
sg69
(lp2957
S'HTTP_CONTENT_LENGTH'
p2958
asbag62
(g83
g64
NtRp2959
(dp2960
g67
(dp2961
g94
g95
ssg76
g2950
sg69
(lp2962
S':'
asbag62
(g83
g64
NtRp2963
(dp2964
g67
(dp2965
sg76
g2950
sg69
(lp2966
g62
(g63
g64
NtRp2967
(dp2968
g67
(dp2969
g75
I3
ssg76
g2963
sg69
(lp2970
g782
asbasbasbag62
(g78
g64
NtRp2971
(dp2972
g67
(dp2973
sg76
g2778
sg69
(lp2974
g62
(g83
g64
NtRp2975
(dp2976
g67
(dp2977
g87
g88
ssg76
g2971
sg69
(lp2978
S'HTTP_CONTENT_TYPE'
p2979
asbag62
(g83
g64
NtRp2980
(dp2981
g67
(dp2982
g94
g95
ssg76
g2971
sg69
(lp2983
S':'
asbag62
(g83
g64
NtRp2984
(dp2985
g67
(dp2986
sg76
g2971
sg69
(lp2987
g62
(g63
g64
NtRp2988
(dp2989
g67
(dp2990
g75
I3
ssg76
g2984
sg69
(lp2991
g804
asbasbasbag62
(g78
g64
NtRp2992
(dp2993
g67
(dp2994
sg76
g2778
sg69
(lp2995
g62
(g83
g64
NtRp2996
(dp2997
g67
(dp2998
g87
g88
ssg76
g2992
sg69
(lp2999
S'HTTP_COOKIE'
p3000
asbag62
(g83
g64
NtRp3001
(dp3002
g67
(dp3003
g94
g95
ssg76
g2992
sg69
(lp3004
S':'
asbag62
(g83
g64
NtRp3005
(dp3006
g67
(dp3007
sg76
g2992
sg69
(lp3008
g62
(g63
g64
NtRp3009
(dp3010
g67
(dp3011
g75
I3
ssg76
g3005
sg69
(lp3012
g1065
asbasbasbag62
(g78
g64
NtRp3013
(dp3014
g67
(dp3015
sg76
g2778
sg69
(lp3016
g62
(g83
g64
NtRp3017
(dp3018
g67
(dp3019
g87
g88
ssg76
g3013
sg69
(lp3020
S'HTTP_HOST'
p3021
asbag62
(g83
g64
NtRp3022
(dp3023
g67
(dp3024
g94
g95
ssg76
g3013
sg69
(lp3025
S':'
asbag62
(g83
g64
NtRp3026
(dp3027
g67
(dp3028
sg76
g3013
sg69
(lp3029
g62
(g63
g64
NtRp3030
(dp3031
g67
(dp3032
g75
I3
ssg76
g3026
sg69
(lp3033
g1087
asbasbasbag62
(g78
g64
NtRp3034
(dp3035
g67
(dp3036
sg76
g2778
sg69
(lp3037
g62
(g83
g64
NtRp3038
(dp3039
g67
(dp3040
g87
g88
ssg76
g3034
sg69
(lp3041
S'HTTP_ORIGIN'
p3042
asbag62
(g83
g64
NtRp3043
(dp3044
g67
(dp3045
g94
g95
ssg76
g3034
sg69
(lp3046
S':'
asbag62
(g83
g64
NtRp3047
(dp3048
g67
(dp3049
sg76
g3034
sg69
(lp3050
g62
(g63
g64
NtRp3051
(dp3052
g67
(dp3053
g75
I3
ssg76
g3047
sg69
(lp3054
g1109
asbasbasbag62
(g78
g64
NtRp3055
(dp3056
g67
(dp3057
sg76
g2778
sg69
(lp3058
g62
(g83
g64
NtRp3059
(dp3060
g67
(dp3061
g87
g88
ssg76
g3055
sg69
(lp3062
S'HTTP_REFERER'
p3063
asbag62
(g83
g64
NtRp3064
(dp3065
g67
(dp3066
g94
g95
ssg76
g3055
sg69
(lp3067
S':'
asbag62
(g83
g64
NtRp3068
(dp3069
g67
(dp3070
sg76
g3055
sg69
(lp3071
g62
(g63
g64
NtRp3072
(dp3073
g67
(dp3074
g75
I3
ssg76
g3068
sg69
(lp3075
g1131
asbasbasbag62
(g78
g64
NtRp3076
(dp3077
g67
(dp3078
sg76
g2778
sg69
(lp3079
g62
(g83
g64
NtRp3080
(dp3081
g67
(dp3082
g87
g88
ssg76
g3076
sg69
(lp3083
S'HTTP_USER_AGENT'
p3084
asbag62
(g83
g64
NtRp3085
(dp3086
g67
(dp3087
g94
g95
ssg76
g3076
sg69
(lp3088
S':'
asbag62
(g83
g64
NtRp3089
(dp3090
g67
(dp3091
sg76
g3076
sg69
(lp3092
g62
(g63
g64
NtRp3093
(dp3094
g67
(dp3095
g75
I3
ssg76
g3089
sg69
(lp3096
g1153
asbasbasbag62
(g78
g64
NtRp3097
(dp3098
g67
(dp3099
sg76
g2778
sg69
(lp3100
g62
(g83
g64
NtRp3101
(dp3102
g67
(dp3103
g87
g88
ssg76
g3097
sg69
(lp3104
S'PATH_INFO'
p3105
asbag62
(g83
g64
NtRp3106
(dp3107
g67
(dp3108
g94
g95
ssg76
g3097
sg69
(lp3109
S':'
asbag62
(g83
g64
NtRp3110
(dp3111
g67
(dp3112
sg76
g3097
sg69
(lp3113
g62
(g63
g64
NtRp3114
(dp3115
g67
(dp3116
g75
I3
ssg76
g3110
sg69
(lp3117
g1217
asbasbasbag62
(g78
g64
NtRp3118
(dp3119
g67
(dp3120
sg76
g2778
sg69
(lp3121
g62
(g83
g64
NtRp3122
(dp3123
g67
(dp3124
g87
g88
ssg76
g3118
sg69
(lp3125
S'QUERY_STRING'
p3126
asbag62
(g83
g64
NtRp3127
(dp3128
g67
(dp3129
g94
g95
ssg76
g3118
sg69
(lp3130
S':'
asbag62
(g83
g64
NtRp3131
(dp3132
g67
(dp3133
sg76
g3118
sg69
(lp3134
g62
(g63
g64
NtRp3135
(dp3136
g67
(dp3137
g75
I3
ssg76
g3131
sg69
(lp3138
S''
asbasbasbag62
(g78
g64
NtRp3139
(dp3140
g67
(dp3141
sg76
g2778
sg69
(lp3142
g62
(g83
g64
NtRp3143
(dp3144
g67
(dp3145
g87
g88
ssg76
g3139
sg69
(lp3146
S'REMOTE_ADDR'
p3147
asbag62
(g83
g64
NtRp3148
(dp3149
g67
(dp3150
g94
g95
ssg76
g3139
sg69
(lp3151
S':'
asbag62
(g83
g64
NtRp3152
(dp3153
g67
(dp3154
sg76
g3139
sg69
(lp3155
g62
(g63
g64
NtRp3156
(dp3157
g67
(dp3158
g75
I3
ssg76
g3152
sg69
(lp3159
g217
asbasbasbag62
(g78
g64
NtRp3160
(dp3161
g67
(dp3162
sg76
g2778
sg69
(lp3163
g62
(g83
g64
NtRp3164
(dp3165
g67
(dp3166
g87
g88
ssg76
g3160
sg69
(lp3167
S'REMOTE_PORT'
p3168
asbag62
(g83
g64
NtRp3169
(dp3170
g67
(dp3171
g94
g95
ssg76
g3160
sg69
(lp3172
S':'
asbag62
(g83
g64
NtRp3173
(dp3174
g67
(dp3175
sg76
g3160
sg69
(lp3176
g62
(g63
g64
NtRp3177
(dp3178
g67
(dp3179
g75
I3
ssg76
g3173
sg69
(lp3180
g1281
asbasbasbag62
(g78
g64
NtRp3181
(dp3182
g67
(dp3183
sg76
g2778
sg69
(lp3184
g62
(g83
g64
NtRp3185
(dp3186
g67
(dp3187
g87
g88
ssg76
g3181
sg69
(lp3188
S'REQUEST_METHOD'
p3189
asbag62
(g83
g64
NtRp3190
(dp3191
g67
(dp3192
g94
g95
ssg76
g3181
sg69
(lp3193
S':'
asbag62
(g83
g64
NtRp3194
(dp3195
g67
(dp3196
sg76
g3181
sg69
(lp3197
g62
(g63
g64
NtRp3198
(dp3199
g67
(dp3200
g75
I3
ssg76
g3194
sg69
(lp3201
g1303
asbasbasbag62
(g78
g64
NtRp3202
(dp3203
g67
(dp3204
sg76
g2778
sg69
(lp3205
g62
(g83
g64
NtRp3206
(dp3207
g67
(dp3208
g87
g88
ssg76
g3202
sg69
(lp3209
S'REQUEST_URI'
p3210
asbag62
(g83
g64
NtRp3211
(dp3212
g67
(dp3213
g94
g95
ssg76
g3202
sg69
(lp3214
S':'
asbag62
(g83
g64
NtRp3215
(dp3216
g67
(dp3217
sg76
g3202
sg69
(lp3218
g62
(g63
g64
NtRp3219
(dp3220
g67
(dp3221
g75
I3
ssg76
g3215
sg69
(lp3222
g1217
asbasbasbag62
(g78
g64
NtRp3223
(dp3224
g67
(dp3225
sg76
g2778
sg69
(lp3226
g62
(g83
g64
NtRp3227
(dp3228
g67
(dp3229
g87
g88
ssg76
g3223
sg69
(lp3230
S'SCRIPT_NAME'
p3231
asbag62
(g83
g64
NtRp3232
(dp3233
g67
(dp3234
g94
g95
ssg76
g3223
sg69
(lp3235
S':'
asbag62
(g83
g64
NtRp3236
(dp3237
g67
(dp3238
sg76
g3223
sg69
(lp3239
g62
(g63
g64
NtRp3240
(dp3241
g67
(dp3242
g75
I3
ssg76
g3236
sg69
(lp3243
S''
asbasbasbag62
(g78
g64
NtRp3244
(dp3245
g67
(dp3246
sg76
g2778
sg69
(lp3247
g62
(g83
g64
NtRp3248
(dp3249
g67
(dp3250
g87
g88
ssg76
g3244
sg69
(lp3251
S'SERVER_NAME'
p3252
asbag62
(g83
g64
NtRp3253
(dp3254
g67
(dp3255
g94
g95
ssg76
g3244
sg69
(lp3256
S':'
asbag62
(g83
g64
NtRp3257
(dp3258
g67
(dp3259
sg76
g3244
sg69
(lp3260
g62
(g63
g64
NtRp3261
(dp3262
g67
(dp3263
g75
I3
ssg76
g3257
sg69
(lp3264
g1367
asbasbasbag62
(g78
g64
NtRp3265
(dp3266
g67
(dp3267
sg76
g2778
sg69
(lp3268
g62
(g83
g64
NtRp3269
(dp3270
g67
(dp3271
g87
g88
ssg76
g3265
sg69
(lp3272
S'SERVER_PORT'
p3273
asbag62
(g83
g64
NtRp3274
(dp3275
g67
(dp3276
g94
g95
ssg76
g3265
sg69
(lp3277
S':'
asbag62
(g83
g64
NtRp3278
(dp3279
g67
(dp3280
sg76
g3265
sg69
(lp3281
g62
(g63
g64
NtRp3282
(dp3283
g67
(dp3284
g75
I3
ssg76
g3278
sg69
(lp3285
g1389
asbasbasbag62
(g78
g64
NtRp3286
(dp3287
g67
(dp3288
sg76
g2778
sg69
(lp3289
g62
(g83
g64
NtRp3290
(dp3291
g67
(dp3292
g87
g88
ssg76
g3286
sg69
(lp3293
S'SERVER_PROTOCOL'
p3294
asbag62
(g83
g64
NtRp3295
(dp3296
g67
(dp3297
g94
g95
ssg76
g3286
sg69
(lp3298
S':'
asbag62
(g83
g64
NtRp3299
(dp3300
g67
(dp3301
sg76
g3286
sg69
(lp3302
g62
(g63
g64
NtRp3303
(dp3304
g67
(dp3305
g75
I3
ssg76
g3299
sg69
(lp3306
g1411
asbasbasbag62
(g78
g64
NtRp3307
(dp3308
g67
(dp3309
sg76
g2778
sg69
(lp3310
g62
(g83
g64
NtRp3311
(dp3312
g67
(dp3313
g87
g88
ssg76
g3307
sg69
(lp3314
S'SERVER_SOFTWARE'
p3315
asbag62
(g83
g64
NtRp3316
(dp3317
g67
(dp3318
g94
g95
ssg76
g3307
sg69
(lp3319
S':'
asbag62
(g83
g64
NtRp3320
(dp3321
g67
(dp3322
sg76
g3307
sg69
(lp3323
g62
(g63
g64
NtRp3324
(dp3325
g67
(dp3326
g75
I3
ssg76
g3320
sg69
(lp3327
g1433
asbasbasbag62
(g78
g64
NtRp3328
(dp3329
g67
(dp3330
sg76
g2778
sg69
(lp3331
g62
(g83
g64
NtRp3332
(dp3333
g67
(dp3334
g87
g88
ssg76
g3328
sg69
(lp3335
S'WEB2PY_ORIGINAL_URI'
p3336
asbag62
(g83
g64
NtRp3337
(dp3338
g67
(dp3339
g94
g95
ssg76
g3328
sg69
(lp3340
S':'
asbag62
(g83
g64
NtRp3341
(dp3342
g67
(dp3343
sg76
g3328
sg69
(lp3344
g62
(g63
g64
NtRp3345
(dp3346
g67
(dp3347
g75
I3
ssg76
g3341
sg69
(lp3348
g1217
asbasbasbag62
(g78
g64
NtRp3349
(dp3350
g67
(dp3351
sg76
g2778
sg69
(lp3352
g62
(g83
g64
NtRp3353
(dp3354
g67
(dp3355
g87
g88
ssg76
g3349
sg69
(lp3356
S'wsgi.errors'
p3357
asbag62
(g83
g64
NtRp3358
(dp3359
g67
(dp3360
g94
g95
ssg76
g3349
sg69
(lp3361
S':'
asbag62
(g83
g64
NtRp3362
(dp3363
g67
(dp3364
sg76
g3349
sg69
(lp3365
g62
(g63
g64
NtRp3366
(dp3367
g67
(dp3368
g75
I3
ssg76
g3362
sg69
(lp3369
S"<open file '<stderr>', mode 'w' at 0x0000000001DDE1E0>"
p3370
asbasbasbag62
(g78
g64
NtRp3371
(dp3372
g67
(dp3373
sg76
g2778
sg69
(lp3374
g62
(g83
g64
NtRp3375
(dp3376
g67
(dp3377
g87
g88
ssg76
g3371
sg69
(lp3378
S'wsgi.file_wrapper'
p3379
asbag62
(g83
g64
NtRp3380
(dp3381
g67
(dp3382
g94
g95
ssg76
g3371
sg69
(lp3383
S':'
asbag62
(g83
g64
NtRp3384
(dp3385
g67
(dp3386
sg76
g3371
sg69
(lp3387
g62
(g63
g64
NtRp3388
(dp3389
g67
(dp3390
g75
I3
ssg76
g3384
sg69
(lp3391
S'<class wsgiref.util.FileWrapper at 0x00000000041E25E8>'
p3392
asbasbasbag62
(g78
g64
NtRp3393
(dp3394
g67
(dp3395
sg76
g2778
sg69
(lp3396
g62
(g83
g64
NtRp3397
(dp3398
g67
(dp3399
g87
g88
ssg76
g3393
sg69
(lp3400
S'wsgi.input'
p3401
asbag62
(g83
g64
NtRp3402
(dp3403
g67
(dp3404
g94
g95
ssg76
g3393
sg69
(lp3405
S':'
asbag62
(g83
g64
NtRp3406
(dp3407
g67
(dp3408
sg76
g3393
sg69
(lp3409
g62
(g63
g64
NtRp3410
(dp3411
g67
(dp3412
g75
I3
ssg76
g3406
sg69
(lp3413
S"<open file '<fdopen>', mode 'w+b' at 0x00000000086BFC90>"
p3414
asbasbasbag62
(g78
g64
NtRp3415
(dp3416
g67
(dp3417
sg76
g2778
sg69
(lp3418
g62
(g83
g64
NtRp3419
(dp3420
g67
(dp3421
g87
g88
ssg76
g3415
sg69
(lp3422
S'wsgi.multiprocess'
p3423
asbag62
(g83
g64
NtRp3424
(dp3425
g67
(dp3426
g94
g95
ssg76
g3415
sg69
(lp3427
S':'
asbag62
(g83
g64
NtRp3428
(dp3429
g67
(dp3430
sg76
g3415
sg69
(lp3431
g62
(g63
g64
NtRp3432
(dp3433
g67
(dp3434
g75
I3
ssg76
g3428
sg69
(lp3435
g105
asbasbasbag62
(g78
g64
NtRp3436
(dp3437
g67
(dp3438
sg76
g2778
sg69
(lp3439
g62
(g83
g64
NtRp3440
(dp3441
g67
(dp3442
g87
g88
ssg76
g3436
sg69
(lp3443
S'wsgi.multithread'
p3444
asbag62
(g83
g64
NtRp3445
(dp3446
g67
(dp3447
g94
g95
ssg76
g3436
sg69
(lp3448
S':'
asbag62
(g83
g64
NtRp3449
(dp3450
g67
(dp3451
sg76
g3436
sg69
(lp3452
g62
(g63
g64
NtRp3453
(dp3454
g67
(dp3455
g75
I3
ssg76
g3449
sg69
(lp3456
g1693
asbasbasbag62
(g78
g64
NtRp3457
(dp3458
g67
(dp3459
sg76
g2778
sg69
(lp3460
g62
(g83
g64
NtRp3461
(dp3462
g67
(dp3463
g87
g88
ssg76
g3457
sg69
(lp3464
S'wsgi.run_once'
p3465
asbag62
(g83
g64
NtRp3466
(dp3467
g67
(dp3468
g94
g95
ssg76
g3457
sg69
(lp3469
S':'
asbag62
(g83
g64
NtRp3470
(dp3471
g67
(dp3472
sg76
g3457
sg69
(lp3473
g62
(g63
g64
NtRp3474
(dp3475
g67
(dp3476
g75
I3
ssg76
g3470
sg69
(lp3477
g105
asbasbasbag62
(g78
g64
NtRp3478
(dp3479
g67
(dp3480
sg76
g2778
sg69
(lp3481
g62
(g83
g64
NtRp3482
(dp3483
g67
(dp3484
g87
g88
ssg76
g3478
sg69
(lp3485
S'wsgi.url_scheme'
p3486
asbag62
(g83
g64
NtRp3487
(dp3488
g67
(dp3489
g94
g95
ssg76
g3478
sg69
(lp3490
S':'
asbag62
(g83
g64
NtRp3491
(dp3492
g67
(dp3493
sg76
g3478
sg69
(lp3494
g62
(g63
g64
NtRp3495
(dp3496
g67
(dp3497
g75
I3
ssg76
g3491
sg69
(lp3498
g1736
asbasbasbag62
(g78
g64
NtRp3499
(dp3500
g67
(dp3501
sg76
g2778
sg69
(lp3502
g62
(g83
g64
NtRp3503
(dp3504
g67
(dp3505
g87
g88
ssg76
g3499
sg69
(lp3506
S'wsgi.version'
p3507
asbag62
(g83
g64
NtRp3508
(dp3509
g67
(dp3510
g94
g95
ssg76
g3499
sg69
(lp3511
S':'
asbag62
(g83
g64
NtRp3512
(dp3513
g67
(dp3514
sg76
g3499
sg69
(lp3515
g62
(g63
g64
NtRp3516
(dp3517
g67
(dp3518
g75
I3
ssg76
g3512
sg69
(lp3519
S'1'
asbasbasbasbasbasbasbasbasbasbasbasbasbsS'frames'
p3520
(lp3521
(dp3522
S'file'
p3523
S'C:\\Users\\admin\\Desktop\\Sathvik\\Tharuni.Org\\gluon\\restricted.py'
p3524
sS'dump'
p3525
(dp3526
S'environment'
p3527
S"{'A': <class 'gluon.html.A'>, 'ALLOW_TOGGLE': 'true', 'A_button': <function A_button>, 'B': <class 'gluon.html.B'>, 'BEAUTIFY': <class 'gluon.html.BEAUTIFY'>, 'BODY': <class 'gluon.html.BODY'>, 'BR': <class 'gluon.html.BR'>, 'BUTTON': <class 'gluon.html.BUTTON'>, 'CAT': <class 'gluon.html.CAT'>, 'CENTER': <class 'gluon.html.CENTER'>, ...}"
p3528
sS'ccode'
p3529
S'<code object <module> at 0000000003D2F5B0, file ...pplications\\admin\\controllers/wizard.py", line 3>'
p3530
ssS'lnum'
p3531
I209
sS'lines'
p3532
(dp3533
I204
S'    try:'
p3534
sI205
S'        if type(code) == types.CodeType:'
p3535
sI206
S'            ccode = code'
p3536
sI207
S'        else:'
p3537
sI208
S'            ccode = compile2(code,layer)'
p3538
sI209
S'        exec ccode in environment'
p3539
sI210
S'    except HTTP:'
p3540
sI211
S'        raise'
p3541
sI212
S'    except RestrictedError:'
p3542
sI213
S'        # do not encapsulate (obfuscate) the original RestrictedError'
p3543
ssS'call'
p3544
S"(code='# -*- coding: utf-8 -*-\\n\\nimport os, uuid, re, pi...(file)\\n\\n\\n\\nresponse._vars=response._caller(step6)\\n', environment={'A': <class 'gluon.html.A'>, 'ALLOW_TOGGLE': 'true', 'A_button': <function A_button>, 'B': <class 'gluon.html.B'>, 'BEAUTIFY': <class 'gluon.html.BEAUTIFY'>, 'BODY': <class 'gluon.html.BODY'>, 'BR': <class 'gluon.html.BR'>, 'BUTTON': <class 'gluon.html.BUTTON'>, 'CAT': <class 'gluon.html.CAT'>, 'CENTER': <class 'gluon.html.CENTER'>, ...}, layer=r'C:\\Users\\admin\\Desktop\\Sathvik\\Tharuni.Org\\applications\\admin\\controllers/wizard.py')"
p3545
sS'func'
p3546
S'restricted'
p3547
sa(dp3548
g3523
S'C:\\Users\\admin\\Desktop\\Sathvik\\Tharuni.Org\\applications\\admin\\controllers\\wizard.py'
p3549
sg3525
(dp3550
sg3531
I560
sg3532
(dp3551
I549
S"                file.write(make_view(page,session.app.get('page_'+page,'')))"
p3552
sI550
S'            finally:'
p3553
sI551
S'                file.close()'
p3554
sI552
S''
sI553
S'    if options.erase_database:'
p3555
sI554
S"        path = os.path.join(request.folder,'..',app,'databases','*')"
p3556
sI555
S'        for file in glob.glob(path):'
p3557
sI556
S'            os.unlink(file)'
p3558
sI557
S''
sI558
S''
ssg3544
S'()'
p3559
sg3546
S'<module>'
p3560
sa(dp3561
g3523
S'C:\\Users\\admin\\Desktop\\Sathvik\\Tharuni.Org\\gluon\\globals.py'
p3562
sg3525
(dp3563
S'self'
p3564
S'undefined'
p3565
sS'f'
S'<function step6>'
p3566
ssg3531
I186
sg3532
(dp3567
I181
S'        self.menu = []             # used by the default view layout'
p3568
sI182
S'        self.files = []            # used by web2py_ajax.html'
p3569
sI183
S'        self.generic_patterns = [] # patterns to allow generic views'
p3570
sI184
S"        self.delimiters = ('{{','}}')"
p3571
sI185
S'        self._vars = None'
p3572
sI186
S'        self._caller = lambda f: f()'
p3573
sI187
S'        self._view_environment = None'
p3574
sI188
S'        self._custom_commit = None'
p3575
sI189
S'        self._custom_rollback = None'
p3576
sI190
S''
ssg3544
S'(f=<function step6>)'
p3577
sg3546
S'<lambda>'
p3578
sa(dp3579
g3523
S'C:\\Users\\admin\\Desktop\\Sathvik\\Tharuni.Org\\applications\\admin\\controllers\\wizard.py'
p3580
sg3525
(dp3581
S'global create'
p3582
S'<function create>'
p3583
sS'form.vars'
p3584
S"<Storage {'generate_menu': True, 'apply_layout':...e': True, 'id': None, 'populate_database': True}>"
p3585
sS'form'
p3586
S'<gluon.sqlhtml.SQLFORM object>'
p3587
ssg3531
I228
sg3532
(dp3588
I224
S'    if form.accepts(request.vars):'
p3589
sI225
S'        if DEMO_MODE:'
p3590
sI226
S"            session.flash = T('Application cannot be generated in demo mode')"
p3591
sI227
S"            redirect(URL('index'))"
p3592
sI228
S'        create(form.vars)'
p3593
sI229
S"        session.flash = 'Application %s created' % app"
p3594
sI230
S"        redirect(URL('generated'))"
p3595
sI231
S'    return dict(step=\'6: Generate app "%s"\' % app,form=form)'
p3596
sI232
S''
sI223
S"        Field('populate_database','boolean',default=True))"
p3597
ssg3544
S'()'
p3598
sg3546
S'step6'
p3599
sa(dp3600
g3523
S'C:\\Users\\admin\\Desktop\\Sathvik\\Tharuni.Org\\applications\\admin\\controllers\\wizard.py'
p3601
sg3525
(dp3602
S'model'
p3603
S"r'C:\\Users\\admin\\Desktop\\Sathvik\\Tharuni.Org\\applications\\admin\\..\\tharuni\\models\\db.py'"
p3604
sS'global fix_db'
p3605
S'<function fix_db>'
p3606
ssg3531
I501
sg3532
(dp3607
I496
S'        finally:'
p3608
sI497
S'            file.close()'
p3609
sI498
S''
sI499
S'    ### customize the auth_user table'
p3610
sI500
S"    model = os.path.join(request.folder,'..',app,'models','db.py')"
p3611
sI501
S'    fix_db(model)'
p3612
sI502
S''
sI503
S'    ### create newapp/models/db_wizard.py'
p3613
sI504
S'    if options.generate_model:'
p3614
sI505
S"        model = os.path.join(request.folder,'..',app,'models','db_wizard.py')"
p3615
ssg3544
S"(options=<Storage {'generate_menu': True, 'apply_layout':...e': True, 'id': None, 'populate_database': True}>)"
p3616
sg3546
S'create'
p3617
sa(dp3618
g3523
S'C:\\Users\\admin\\Desktop\\Sathvik\\Tharuni.Org\\applications\\admin\\controllers\\wizard.py'
p3619
sg3525
(dp3620
S'content'
p3621
g3565
sS'global read_file'
p3622
S'<function read_file>'
p3623
sS'filename'
p3624
S"r'C:\\Users\\admin\\Desktop\\Sathvik\\Tharuni.Org\\applications\\admin\\..\\tharuni\\models\\db.py'"
p3625
ssg3531
I368
sg3532
(dp3626
I363
S'        s+="db.define_table(\'%s_archive\',db.%s,Field(\'current_record\',\'reference %s\',readable=False,writable=False))\\n" % (table,table,table)'
p3627
sI364
S'    return s'
p3628
sI365
S''
sI366
S'def fix_db(filename):'
p3629
sI367
S"    params = dict(session.app['params'])"
p3630
sI368
S"    content = read_file(filename,'rb')"
p3631
sI369
S"    if 'auth_user' in session.app['tables']:"
p3632
sI370
S"        auth_user = make_table('auth_user',session.app['table_auth_user'])"
p3633
sI371
S"        content = content.replace('sqlite://storage.sqlite',"
p3634
sI372
S"                                params['database_uri'])"
p3635
ssg3544
S"(filename=r'C:\\Users\\admin\\Desktop\\Sathvik\\Tharuni.Org\\applications\\admin\\..\\tharuni\\models\\db.py')"
p3636
sg3546
S'fix_db'
p3637
sa(dp3638
g3523
S'C:\\Users\\admin\\Desktop\\Sathvik\\Tharuni.Org\\gluon\\fileutils.py'
p3639
sg3525
(dp3640
S'builtinopen'
p3641
S'<built-in function open>'
p3642
sS'filename'
p3643
S"r'C:\\Users\\admin\\Desktop\\Sathvik\\Tharuni.Org\\applications\\admin\\..\\tharuni\\models\\db.py'"
p3644
sS'mode'
p3645
S"'rb'"
p3646
sS'f'
g3565
ssg3531
I55
sg3532
(dp3647
I50
S"    d = datetime.datetime.strptime(m.group('datetime'),'%Y-%m-%d %H:%M:%S')"
p3648
sI51
S'    return (a,b,c,d,s)'
p3649
sI52
S''
sI53
S"def read_file(filename, mode='r'):"
p3650
sI54
S'    "returns content from filename, making sure to close the file explicitly on exit."'
p3651
sI55
S'    f = open(filename, mode)'
p3652
sI56
S'    try:'
p3653
sI57
S'        return f.read()'
p3654
sI58
S'    finally:'
p3655
sI59
S'        f.close()'
p3656
ssg3544
S"(filename=r'C:\\Users\\admin\\Desktop\\Sathvik\\Tharuni.Org\\applications\\admin\\..\\tharuni\\models\\db.py', mode='rb')"
p3657
sg3546
S'read_file'
p3658
sasS'pyver'
p3659
S'Python 2.7.3: C:\\Python27\\python.exe'
p3660
sS'session'
p3661
g62
(g63
g64
NtRp3662
(dp3663
g67
(dp3664
sg69
(lp3665
g62
(g71
g64
NtRp3666
(dp3667
g67
(dp3668
g75
I5
ssg76
Nsg69
(lp3669
g62
(g78
g64
NtRp3670
(dp3671
g67
(dp3672
sg76
g3666
sg69
(lp3673
g62
(g83
g64
NtRp3674
(dp3675
g67
(dp3676
g87
g88
ssg76
g3670
sg69
(lp3677
S'app'
p3678
asbag62
(g83
g64
NtRp3679
(dp3680
g67
(dp3681
g94
g95
ssg76
g3670
sg69
(lp3682
S':'
asbag62
(g83
g64
NtRp3683
(dp3684
g67
(dp3685
sg76
g3670
sg69
(lp3686
g62
(g63
g64
NtRp3687
(dp3688
g67
(dp3689
g75
I5
ssg76
g3683
sg69
(lp3690
g62
(g71
g64
NtRp3691
(dp3692
g67
(dp3693
g75
I4
ssg76
Nsg69
(lp3694
g62
(g78
g64
NtRp3695
(dp3696
g67
(dp3697
sg76
g3691
sg69
(lp3698
g62
(g83
g64
NtRp3699
(dp3700
g67
(dp3701
g87
g88
ssg76
g3695
sg69
(lp3702
S'name'
p3703
asbag62
(g83
g64
NtRp3704
(dp3705
g67
(dp3706
g94
g95
ssg76
g3695
sg69
(lp3707
S':'
asbag62
(g83
g64
NtRp3708
(dp3709
g67
(dp3710
sg76
g3695
sg69
(lp3711
g62
(g63
g64
NtRp3712
(dp3713
g67
(dp3714
g75
I4
ssg76
g3708
sg69
(lp3715
S'tharuni'
p3716
asbasbasbag62
(g78
g64
NtRp3717
(dp3718
g67
(dp3719
sg76
g3691
sg69
(lp3720
g62
(g83
g64
NtRp3721
(dp3722
g67
(dp3723
g87
g88
ssg76
g3717
sg69
(lp3724
S'page_error'
p3725
asbag62
(g83
g64
NtRp3726
(dp3727
g67
(dp3728
g94
g95
ssg76
g3717
sg69
(lp3729
S':'
asbag62
(g83
g64
NtRp3730
(dp3731
g67
(dp3732
sg76
g3717
sg69
(lp3733
g62
(g63
g64
NtRp3734
(dp3735
g67
(dp3736
g75
I4
ssg76
g3730
sg69
(lp3737
S'# Error: the document does not exist'
p3738
asbasbasbag62
(g78
g64
NtRp3739
(dp3740
g67
(dp3741
sg76
g3691
sg69
(lp3742
g62
(g83
g64
NtRp3743
(dp3744
g67
(dp3745
g87
g88
ssg76
g3739
sg69
(lp3746
S'page_index'
p3747
asbag62
(g83
g64
NtRp3748
(dp3749
g67
(dp3750
g94
g95
ssg76
g3739
sg69
(lp3751
S':'
asbag62
(g83
g64
NtRp3752
(dp3753
g67
(dp3754
sg76
g3739
sg69
(lp3755
g62
(g63
g64
NtRp3756
(dp3757
g67
(dp3758
g75
I4
ssg76
g3752
sg69
(lp3759
S'# Welcome to my new app'
p3760
asbasbasbag62
(g78
g64
NtRp3761
(dp3762
g67
(dp3763
sg76
g3691
sg69
(lp3764
g62
(g83
g64
NtRp3765
(dp3766
g67
(dp3767
g87
g88
ssg76
g3761
sg69
(lp3768
S'pages'
p3769
asbag62
(g83
g64
NtRp3770
(dp3771
g67
(dp3772
g94
g95
ssg76
g3761
sg69
(lp3773
S':'
asbag62
(g83
g64
NtRp3774
(dp3775
g67
(dp3776
sg76
g3761
sg69
(lp3777
g62
(g63
g64
NtRp3778
(dp3779
g67
(dp3780
g75
I4
ssg76
g3774
sg69
(lp3781
g62
(g71
g64
NtRp3782
(dp3783
g67
(dp3784
g75
I3
ssg76
Nsg69
(lp3785
sbasbasbasbag62
(g78
g64
NtRp3786
(dp3787
g67
(dp3788
sg76
g3691
sg69
(lp3789
g62
(g83
g64
NtRp3790
(dp3791
g67
(dp3792
g87
g88
ssg76
g3786
sg69
(lp3793
S'params'
p3794
asbag62
(g83
g64
NtRp3795
(dp3796
g67
(dp3797
g94
g95
ssg76
g3786
sg69
(lp3798
S':'
asbag62
(g83
g64
NtRp3799
(dp3800
g67
(dp3801
sg76
g3786
sg69
(lp3802
g62
(g63
g64
NtRp3803
(dp3804
g67
(dp3805
g75
I4
ssg76
g3799
sg69
(lp3806
g62
(g71
g64
NtRp3807
(dp3808
g67
(dp3809
g75
I3
ssg76
Nsg69
(lp3810
g62
(g78
g64
NtRp3811
(dp3812
g67
(dp3813
sg76
g3807
sg69
(lp3814
g62
(g83
g64
NtRp3815
(dp3816
g67
(dp3817
sg76
g3811
sg69
(lp3818
g62
(g63
g64
NtRp3819
(dp3820
g67
(dp3821
g75
I3
ssg76
g3815
sg69
(lp3822
g62
(g71
g64
NtRp3823
(dp3824
g67
(dp3825
g75
I2
ssg76
Nsg69
(lp3826
g62
(g78
g64
NtRp3827
(dp3828
g67
(dp3829
sg76
g3823
sg69
(lp3830
g62
(g83
g64
NtRp3831
(dp3832
g67
(dp3833
sg76
g3827
sg69
(lp3834
g62
(g63
g64
NtRp3835
(dp3836
g67
(dp3837
g75
I2
ssg76
g3831
sg69
(lp3838
S'title'
p3839
asbasbasbag62
(g78
g64
NtRp3840
(dp3841
g67
(dp3842
sg76
g3823
sg69
(lp3843
g62
(g83
g64
NtRp3844
(dp3845
g67
(dp3846
sg76
g3840
sg69
(lp3847
g62
(g63
g64
NtRp3848
(dp3849
g67
(dp3850
g75
I2
ssg76
g3844
sg69
(lp3851
S'Tharuni'
p3852
asbasbasbasbasbasbasbag62
(g78
g64
NtRp3853
(dp3854
g67
(dp3855
sg76
g3807
sg69
(lp3856
g62
(g83
g64
NtRp3857
(dp3858
g67
(dp3859
sg76
g3853
sg69
(lp3860
g62
(g63
g64
NtRp3861
(dp3862
g67
(dp3863
g75
I3
ssg76
g3857
sg69
(lp3864
g62
(g71
g64
NtRp3865
(dp3866
g67
(dp3867
g75
I2
ssg76
Nsg69
(lp3868
g62
(g78
g64
NtRp3869
(dp3870
g67
(dp3871
sg76
g3865
sg69
(lp3872
g62
(g83
g64
NtRp3873
(dp3874
g67
(dp3875
sg76
g3869
sg69
(lp3876
g62
(g63
g64
NtRp3877
(dp3878
g67
(dp3879
g75
I2
ssg76
g3873
sg69
(lp3880
S'subtitle'
p3881
asbasbasbag62
(g78
g64
NtRp3882
(dp3883
g67
(dp3884
sg76
g3865
sg69
(lp3885
g62
(g83
g64
NtRp3886
(dp3887
g67
(dp3888
sg76
g3882
sg69
(lp3889
g62
(g63
g64
NtRp3890
(dp3891
g67
(dp3892
g75
I2
ssg76
g3886
sg69
(lp3893
S'Working towards Empowerment of Adolescent Girls Women and the Aged'
p3894
asbasbasbasbasbasbasbag62
(g78
g64
NtRp3895
(dp3896
g67
(dp3897
sg76
g3807
sg69
(lp3898
g62
(g83
g64
NtRp3899
(dp3900
g67
(dp3901
sg76
g3895
sg69
(lp3902
g62
(g63
g64
NtRp3903
(dp3904
g67
(dp3905
g75
I3
ssg76
g3899
sg69
(lp3906
g62
(g71
g64
NtRp3907
(dp3908
g67
(dp3909
g75
I2
ssg76
Nsg69
(lp3910
g62
(g78
g64
NtRp3911
(dp3912
g67
(dp3913
sg76
g3907
sg69
(lp3914
g62
(g83
g64
NtRp3915
(dp3916
g67
(dp3917
sg76
g3911
sg69
(lp3918
g62
(g63
g64
NtRp3919
(dp3920
g67
(dp3921
g75
I2
ssg76
g3915
sg69
(lp3922
S'author'
p3923
asbasbasbag62
(g78
g64
NtRp3924
(dp3925
g67
(dp3926
sg76
g3907
sg69
(lp3927
g62
(g83
g64
NtRp3928
(dp3929
g67
(dp3930
sg76
g3924
sg69
(lp3931
g62
(g63
g64
NtRp3932
(dp3933
g67
(dp3934
g75
I2
ssg76
g3928
sg69
(lp3935
S"Doers' Guild"
p3936
asbasbasbasbasbasbasbag62
(g78
g64
NtRp3937
(dp3938
g67
(dp3939
sg76
g3807
sg69
(lp3940
g62
(g83
g64
NtRp3941
(dp3942
g67
(dp3943
sg76
g3937
sg69
(lp3944
g62
(g63
g64
NtRp3945
(dp3946
g67
(dp3947
g75
I3
ssg76
g3941
sg69
(lp3948
g62
(g71
g64
NtRp3949
(dp3950
g67
(dp3951
g75
I2
ssg76
Nsg69
(lp3952
g62
(g78
g64
NtRp3953
(dp3954
g67
(dp3955
sg76
g3949
sg69
(lp3956
g62
(g83
g64
NtRp3957
(dp3958
g67
(dp3959
sg76
g3953
sg69
(lp3960
g62
(g63
g64
NtRp3961
(dp3962
g67
(dp3963
g75
I2
ssg76
g3957
sg69
(lp3964
S'author_email'
p3965
asbasbasbag62
(g78
g64
NtRp3966
(dp3967
g67
(dp3968
sg76
g3949
sg69
(lp3969
g62
(g83
g64
NtRp3970
(dp3971
g67
(dp3972
sg76
g3966
sg69
(lp3973
g62
(g63
g64
NtRp3974
(dp3975
g67
(dp3976
g75
I2
ssg76
g3970
sg69
(lp3977
S'mail@doersguild.com'
p3978
asbasbasbasbasbasbasbag62
(g78
g64
NtRp3979
(dp3980
g67
(dp3981
sg76
g3807
sg69
(lp3982
g62
(g83
g64
NtRp3983
(dp3984
g67
(dp3985
sg76
g3979
sg69
(lp3986
g62
(g63
g64
NtRp3987
(dp3988
g67
(dp3989
g75
I3
ssg76
g3983
sg69
(lp3990
g62
(g71
g64
NtRp3991
(dp3992
g67
(dp3993
g75
I2
ssg76
Nsg69
(lp3994
g62
(g78
g64
NtRp3995
(dp3996
g67
(dp3997
sg76
g3991
sg69
(lp3998
g62
(g83
g64
NtRp3999
(dp4000
g67
(dp4001
sg76
g3995
sg69
(lp4002
g62
(g63
g64
NtRp4003
(dp4004
g67
(dp4005
g75
I2
ssg76
g3999
sg69
(lp4006
S'keywords'
p4007
asbasbasbag62
(g78
g64
NtRp4008
(dp4009
g67
(dp4010
sg76
g3991
sg69
(lp4011
g62
(g83
g64
NtRp4012
(dp4013
g67
(dp4014
sg76
g4008
sg69
(lp4015
g62
(g63
g64
NtRp4016
(dp4017
g67
(dp4018
g75
I2
ssg76
g4012
sg69
(lp4019
S''
asbasbasbasbasbasbasbag62
(g78
g64
NtRp4020
(dp4021
g67
(dp4022
sg76
g3807
sg69
(lp4023
g62
(g83
g64
NtRp4024
(dp4025
g67
(dp4026
sg76
g4020
sg69
(lp4027
g62
(g63
g64
NtRp4028
(dp4029
g67
(dp4030
g75
I3
ssg76
g4024
sg69
(lp4031
g62
(g71
g64
NtRp4032
(dp4033
g67
(dp4034
g75
I2
ssg76
Nsg69
(lp4035
g62
(g78
g64
NtRp4036
(dp4037
g67
(dp4038
sg76
g4032
sg69
(lp4039
g62
(g83
g64
NtRp4040
(dp4041
g67
(dp4042
sg76
g4036
sg69
(lp4043
g62
(g63
g64
NtRp4044
(dp4045
g67
(dp4046
g75
I2
ssg76
g4040
sg69
(lp4047
S'description'
p4048
asbasbasbag62
(g78
g64
NtRp4049
(dp4050
g67
(dp4051
sg76
g4032
sg69
(lp4052
g62
(g83
g64
NtRp4053
(dp4054
g67
(dp4055
sg76
g4049
sg69
(lp4056
g62
(g63
g64
NtRp4057
(dp4058
g67
(dp4059
g75
I2
ssg76
g4053
sg69
(lp4060
S'A Non-Profit Working towards Empowerment of Adolescent Girls Women and the Aged'
p4061
asbasbasbasbasbasbasbag62
(g78
g64
NtRp4062
(dp4063
g67
(dp4064
sg76
g3807
sg69
(lp4065
g62
(g83
g64
NtRp4066
(dp4067
g67
(dp4068
sg76
g4062
sg69
(lp4069
g62
(g63
g64
NtRp4070
(dp4071
g67
(dp4072
g75
I3
ssg76
g4066
sg69
(lp4073
g62
(g71
g64
NtRp4074
(dp4075
g67
(dp4076
g75
I2
ssg76
Nsg69
(lp4077
g62
(g78
g64
NtRp4078
(dp4079
g67
(dp4080
sg76
g4074
sg69
(lp4081
g62
(g83
g64
NtRp4082
(dp4083
g67
(dp4084
sg76
g4078
sg69
(lp4085
g62
(g63
g64
NtRp4086
(dp4087
g67
(dp4088
g75
I2
ssg76
g4082
sg69
(lp4089
S'layout_theme'
p4090
asbasbasbag62
(g78
g64
NtRp4091
(dp4092
g67
(dp4093
sg76
g4074
sg69
(lp4094
g62
(g83
g64
NtRp4095
(dp4096
g67
(dp4097
sg76
g4091
sg69
(lp4098
g62
(g63
g64
NtRp4099
(dp4100
g67
(dp4101
g75
I2
ssg76
g4095
sg69
(lp4102
S'BlueStatic'
p4103
asbasbasbasbasbasbasbag62
(g78
g64
NtRp4104
(dp4105
g67
(dp4106
sg76
g3807
sg69
(lp4107
g62
(g83
g64
NtRp4108
(dp4109
g67
(dp4110
sg76
g4104
sg69
(lp4111
g62
(g63
g64
NtRp4112
(dp4113
g67
(dp4114
g75
I3
ssg76
g4108
sg69
(lp4115
g62
(g71
g64
NtRp4116
(dp4117
g67
(dp4118
g75
I2
ssg76
Nsg69
(lp4119
g62
(g78
g64
NtRp4120
(dp4121
g67
(dp4122
sg76
g4116
sg69
(lp4123
g62
(g83
g64
NtRp4124
(dp4125
g67
(dp4126
sg76
g4120
sg69
(lp4127
g62
(g63
g64
NtRp4128
(dp4129
g67
(dp4130
g75
I2
ssg76
g4124
sg69
(lp4131
S'database_uri'
p4132
asbasbasbag62
(g78
g64
NtRp4133
(dp4134
g67
(dp4135
sg76
g4116
sg69
(lp4136
g62
(g83
g64
NtRp4137
(dp4138
g67
(dp4139
sg76
g4133
sg69
(lp4140
g62
(g63
g64
NtRp4141
(dp4142
g67
(dp4143
g75
I2
ssg76
g4137
sg69
(lp4144
S'sqlite://storage.sqlite'
p4145
asbasbasbasbasbasbasbag62
(g78
g64
NtRp4146
(dp4147
g67
(dp4148
sg76
g3807
sg69
(lp4149
g62
(g83
g64
NtRp4150
(dp4151
g67
(dp4152
sg76
g4146
sg69
(lp4153
g62
(g63
g64
NtRp4154
(dp4155
g67
(dp4156
g75
I3
ssg76
g4150
sg69
(lp4157
g62
(g71
g64
NtRp4158
(dp4159
g67
(dp4160
g75
I2
ssg76
Nsg69
(lp4161
g62
(g78
g64
NtRp4162
(dp4163
g67
(dp4164
sg76
g4158
sg69
(lp4165
g62
(g83
g64
NtRp4166
(dp4167
g67
(dp4168
sg76
g4162
sg69
(lp4169
g62
(g63
g64
NtRp4170
(dp4171
g67
(dp4172
g75
I2
ssg76
g4166
sg69
(lp4173
S'security_key'
p4174
asbasbasbag62
(g78
g64
NtRp4175
(dp4176
g67
(dp4177
sg76
g4158
sg69
(lp4178
g62
(g83
g64
NtRp4179
(dp4180
g67
(dp4181
sg76
g4175
sg69
(lp4182
g62
(g63
g64
NtRp4183
(dp4184
g67
(dp4185
g75
I2
ssg76
g4179
sg69
(lp4186
S'f6dbea65-c4fd-4fb4-a8ad-aea0d551aee6'
p4187
asbasbasbasbasbasbasbag62
(g78
g64
NtRp4188
(dp4189
g67
(dp4190
sg76
g3807
sg69
(lp4191
g62
(g83
g64
NtRp4192
(dp4193
g67
(dp4194
sg76
g4188
sg69
(lp4195
g62
(g63
g64
NtRp4196
(dp4197
g67
(dp4198
g75
I3
ssg76
g4192
sg69
(lp4199
g62
(g71
g64
NtRp4200
(dp4201
g67
(dp4202
g75
I2
ssg76
Nsg69
(lp4203
g62
(g78
g64
NtRp4204
(dp4205
g67
(dp4206
sg76
g4200
sg69
(lp4207
g62
(g83
g64
NtRp4208
(dp4209
g67
(dp4210
sg76
g4204
sg69
(lp4211
g62
(g63
g64
NtRp4212
(dp4213
g67
(dp4214
g75
I2
ssg76
g4208
sg69
(lp4215
S'email_server'
p4216
asbasbasbag62
(g78
g64
NtRp4217
(dp4218
g67
(dp4219
sg76
g4200
sg69
(lp4220
g62
(g83
g64
NtRp4221
(dp4222
g67
(dp4223
sg76
g4217
sg69
(lp4224
g62
(g63
g64
NtRp4225
(dp4226
g67
(dp4227
g75
I2
ssg76
g4221
sg69
(lp4228
S'localhost'
p4229
asbasbasbasbasbasbasbag62
(g78
g64
NtRp4230
(dp4231
g67
(dp4232
sg76
g3807
sg69
(lp4233
g62
(g83
g64
NtRp4234
(dp4235
g67
(dp4236
sg76
g4230
sg69
(lp4237
g62
(g63
g64
NtRp4238
(dp4239
g67
(dp4240
g75
I3
ssg76
g4234
sg69
(lp4241
g62
(g71
g64
NtRp4242
(dp4243
g67
(dp4244
g75
I2
ssg76
Nsg69
(lp4245
g62
(g78
g64
NtRp4246
(dp4247
g67
(dp4248
sg76
g4242
sg69
(lp4249
g62
(g83
g64
NtRp4250
(dp4251
g67
(dp4252
sg76
g4246
sg69
(lp4253
g62
(g63
g64
NtRp4254
(dp4255
g67
(dp4256
g75
I2
ssg76
g4250
sg69
(lp4257
S'email_sender'
p4258
asbasbasbag62
(g78
g64
NtRp4259
(dp4260
g67
(dp4261
sg76
g4242
sg69
(lp4262
g62
(g83
g64
NtRp4263
(dp4264
g67
(dp4265
sg76
g4259
sg69
(lp4266
g62
(g63
g64
NtRp4267
(dp4268
g67
(dp4269
g75
I2
ssg76
g4263
sg69
(lp4270
S'you@example.com'
p4271
asbasbasbasbasbasbasbag62
(g78
g64
NtRp4272
(dp4273
g67
(dp4274
sg76
g3807
sg69
(lp4275
g62
(g83
g64
NtRp4276
(dp4277
g67
(dp4278
sg76
g4272
sg69
(lp4279
g62
(g63
g64
NtRp4280
(dp4281
g67
(dp4282
g75
I3
ssg76
g4276
sg69
(lp4283
g62
(g71
g64
NtRp4284
(dp4285
g67
(dp4286
g75
I2
ssg76
Nsg69
(lp4287
g62
(g78
g64
NtRp4288
(dp4289
g67
(dp4290
sg76
g4284
sg69
(lp4291
g62
(g83
g64
NtRp4292
(dp4293
g67
(dp4294
sg76
g4288
sg69
(lp4295
g62
(g63
g64
NtRp4296
(dp4297
g67
(dp4298
g75
I2
ssg76
g4292
sg69
(lp4299
S'email_login'
p4300
asbasbasbag62
(g78
g64
NtRp4301
(dp4302
g67
(dp4303
sg76
g4284
sg69
(lp4304
g62
(g83
g64
NtRp4305
(dp4306
g67
(dp4307
sg76
g4301
sg69
(lp4308
g62
(g63
g64
NtRp4309
(dp4310
g67
(dp4311
g75
I2
ssg76
g4305
sg69
(lp4312
S''
asbasbasbasbasbasbasbag62
(g78
g64
NtRp4313
(dp4314
g67
(dp4315
sg76
g3807
sg69
(lp4316
g62
(g83
g64
NtRp4317
(dp4318
g67
(dp4319
sg76
g4313
sg69
(lp4320
g62
(g63
g64
NtRp4321
(dp4322
g67
(dp4323
g75
I3
ssg76
g4317
sg69
(lp4324
g62
(g71
g64
NtRp4325
(dp4326
g67
(dp4327
g75
I2
ssg76
Nsg69
(lp4328
g62
(g78
g64
NtRp4329
(dp4330
g67
(dp4331
sg76
g4325
sg69
(lp4332
g62
(g83
g64
NtRp4333
(dp4334
g67
(dp4335
sg76
g4329
sg69
(lp4336
g62
(g63
g64
NtRp4337
(dp4338
g67
(dp4339
g75
I2
ssg76
g4333
sg69
(lp4340
S'login_method'
p4341
asbasbasbag62
(g78
g64
NtRp4342
(dp4343
g67
(dp4344
sg76
g4325
sg69
(lp4345
g62
(g83
g64
NtRp4346
(dp4347
g67
(dp4348
sg76
g4342
sg69
(lp4349
g62
(g63
g64
NtRp4350
(dp4351
g67
(dp4352
g75
I2
ssg76
g4346
sg69
(lp4353
S'local'
p4354
asbasbasbasbasbasbasbag62
(g78
g64
NtRp4355
(dp4356
g67
(dp4357
sg76
g3807
sg69
(lp4358
g62
(g83
g64
NtRp4359
(dp4360
g67
(dp4361
sg76
g4355
sg69
(lp4362
g62
(g63
g64
NtRp4363
(dp4364
g67
(dp4365
g75
I3
ssg76
g4359
sg69
(lp4366
g62
(g71
g64
NtRp4367
(dp4368
g67
(dp4369
g75
I2
ssg76
Nsg69
(lp4370
g62
(g78
g64
NtRp4371
(dp4372
g67
(dp4373
sg76
g4367
sg69
(lp4374
g62
(g83
g64
NtRp4375
(dp4376
g67
(dp4377
sg76
g4371
sg69
(lp4378
g62
(g63
g64
NtRp4379
(dp4380
g67
(dp4381
g75
I2
ssg76
g4375
sg69
(lp4382
S'login_config'
p4383
asbasbasbag62
(g78
g64
NtRp4384
(dp4385
g67
(dp4386
sg76
g4367
sg69
(lp4387
g62
(g83
g64
NtRp4388
(dp4389
g67
(dp4390
sg76
g4384
sg69
(lp4391
g62
(g63
g64
NtRp4392
(dp4393
g67
(dp4394
g75
I2
ssg76
g4388
sg69
(lp4395
S''
asbasbasbasbasbasbasbag62
(g78
g64
NtRp4396
(dp4397
g67
(dp4398
sg76
g3807
sg69
(lp4399
g62
(g83
g64
NtRp4400
(dp4401
g67
(dp4402
sg76
g4396
sg69
(lp4403
g62
(g63
g64
NtRp4404
(dp4405
g67
(dp4406
g75
I3
ssg76
g4400
sg69
(lp4407
g62
(g71
g64
NtRp4408
(dp4409
g67
(dp4410
g75
I2
ssg76
Nsg69
(lp4411
g62
(g78
g64
NtRp4412
(dp4413
g67
(dp4414
sg76
g4408
sg69
(lp4415
g62
(g83
g64
NtRp4416
(dp4417
g67
(dp4418
sg76
g4412
sg69
(lp4419
g62
(g63
g64
NtRp4420
(dp4421
g67
(dp4422
g75
I2
ssg76
g4416
sg69
(lp4423
S'plugins'
p4424
asbasbasbag62
(g78
g64
NtRp4425
(dp4426
g67
(dp4427
sg76
g4408
sg69
(lp4428
g62
(g83
g64
NtRp4429
(dp4430
g67
(dp4431
sg76
g4425
sg69
(lp4432
g62
(g63
g64
NtRp4433
(dp4434
g67
(dp4435
g75
I2
ssg76
g4429
sg69
(lp4436
g62
(g71
g64
NtRp4437
(dp4438
g67
(dp4439
g75
I1
ssg76
Nsg69
(lp4440
sbasbasbasbasbasbasbasbasbasbasbasbag62
(g78
g64
NtRp4441
(dp4442
g67
(dp4443
sg76
g3691
sg69
(lp4444
g62
(g83
g64
NtRp4445
(dp4446
g67
(dp4447
g87
g88
ssg76
g4441
sg69
(lp4448
S'table_auth_user'
p4449
asbag62
(g83
g64
NtRp4450
(dp4451
g67
(dp4452
g94
g95
ssg76
g4441
sg69
(lp4453
S':'
asbag62
(g83
g64
NtRp4454
(dp4455
g67
(dp4456
sg76
g4441
sg69
(lp4457
g62
(g63
g64
NtRp4458
(dp4459
g67
(dp4460
g75
I4
ssg76
g4454
sg69
(lp4461
g62
(g71
g64
NtRp4462
(dp4463
g67
(dp4464
g75
I3
ssg76
Nsg69
(lp4465
g62
(g78
g64
NtRp4466
(dp4467
g67
(dp4468
sg76
g4462
sg69
(lp4469
g62
(g83
g64
NtRp4470
(dp4471
g67
(dp4472
sg76
g4466
sg69
(lp4473
g62
(g63
g64
NtRp4474
(dp4475
g67
(dp4476
g75
I3
ssg76
g4470
sg69
(lp4477
S'username'
p4478
asbasbasbag62
(g78
g64
NtRp4479
(dp4480
g67
(dp4481
sg76
g4462
sg69
(lp4482
g62
(g83
g64
NtRp4483
(dp4484
g67
(dp4485
sg76
g4479
sg69
(lp4486
g62
(g63
g64
NtRp4487
(dp4488
g67
(dp4489
g75
I3
ssg76
g4483
sg69
(lp4490
S'first_name'
p4491
asbasbasbag62
(g78
g64
NtRp4492
(dp4493
g67
(dp4494
sg76
g4462
sg69
(lp4495
g62
(g83
g64
NtRp4496
(dp4497
g67
(dp4498
sg76
g4492
sg69
(lp4499
g62
(g63
g64
NtRp4500
(dp4501
g67
(dp4502
g75
I3
ssg76
g4496
sg69
(lp4503
S'last_name'
p4504
asbasbasbag62
(g78
g64
NtRp4505
(dp4506
g67
(dp4507
sg76
g4462
sg69
(lp4508
g62
(g83
g64
NtRp4509
(dp4510
g67
(dp4511
sg76
g4505
sg69
(lp4512
g62
(g63
g64
NtRp4513
(dp4514
g67
(dp4515
g75
I3
ssg76
g4509
sg69
(lp4516
S'email'
p4517
asbasbasbag62
(g78
g64
NtRp4518
(dp4519
g67
(dp4520
sg76
g4462
sg69
(lp4521
g62
(g83
g64
NtRp4522
(dp4523
g67
(dp4524
sg76
g4518
sg69
(lp4525
g62
(g63
g64
NtRp4526
(dp4527
g67
(dp4528
g75
I3
ssg76
g4522
sg69
(lp4529
S'password'
p4530
asbasbasbasbasbasbasbag62
(g78
g64
NtRp4531
(dp4532
g67
(dp4533
sg76
g3691
sg69
(lp4534
g62
(g83
g64
NtRp4535
(dp4536
g67
(dp4537
g87
g88
ssg76
g4531
sg69
(lp4538
S'tables'
p4539
asbag62
(g83
g64
NtRp4540
(dp4541
g67
(dp4542
g94
g95
ssg76
g4531
sg69
(lp4543
S':'
asbag62
(g83
g64
NtRp4544
(dp4545
g67
(dp4546
sg76
g4531
sg69
(lp4547
g62
(g63
g64
NtRp4548
(dp4549
g67
(dp4550
g75
I4
ssg76
g4544
sg69
(lp4551
g62
(g71
g64
NtRp4552
(dp4553
g67
(dp4554
g75
I3
ssg76
Nsg69
(lp4555
sbasbasbasbasbasbasbasbag62
(g78
g64
NtRp4556
(dp4557
g67
(dp4558
sg76
g3666
sg69
(lp4559
g62
(g83
g64
NtRp4560
(dp4561
g67
(dp4562
g87
g88
ssg76
g4556
sg69
(lp4563
S'authorized'
p4564
asbag62
(g83
g64
NtRp4565
(dp4566
g67
(dp4567
g94
g95
ssg76
g4556
sg69
(lp4568
S':'
asbag62
(g83
g64
NtRp4569
(dp4570
g67
(dp4571
sg76
g4556
sg69
(lp4572
g62
(g63
g64
NtRp4573
(dp4574
g67
(dp4575
g75
I5
ssg76
g4569
sg69
(lp4576
g1693
asbasbasbag62
(g78
g64
NtRp4577
(dp4578
g67
(dp4579
sg76
g3666
sg69
(lp4580
g62
(g83
g64
NtRp4581
(dp4582
g67
(dp4583
g87
g88
ssg76
g4577
sg69
(lp4584
S'check_version'
p4585
asbag62
(g83
g64
NtRp4586
(dp4587
g67
(dp4588
g94
g95
ssg76
g4577
sg69
(lp4589
S':'
asbag62
(g83
g64
NtRp4590
(dp4591
g67
(dp4592
sg76
g4577
sg69
(lp4593
g62
(g63
g64
NtRp4594
(dp4595
g67
(dp4596
g75
I5
ssg76
g4590
sg69
(lp4597
g105
asbasbasbag62
(g78
g64
NtRp4598
(dp4599
g67
(dp4600
sg76
g3666
sg69
(lp4601
g62
(g83
g64
NtRp4602
(dp4603
g67
(dp4604
g87
g88
ssg76
g4598
sg69
(lp4605
S'flash'
p4606
asbag62
(g83
g64
NtRp4607
(dp4608
g67
(dp4609
g94
g95
ssg76
g4598
sg69
(lp4610
S':'
asbag62
(g83
g64
NtRp4611
(dp4612
g67
(dp4613
sg76
g4598
sg69
(lp4614
g62
(g63
g64
NtRp4615
(dp4616
g67
(dp4617
g75
I5
ssg76
g4611
sg69
(lp4618
S'None'
p4619
asbasbasbag62
(g78
g64
NtRp4620
(dp4621
g67
(dp4622
sg76
g3666
sg69
(lp4623
g62
(g83
g64
NtRp4624
(dp4625
g67
(dp4626
g87
g88
ssg76
g4620
sg69
(lp4627
S'last_time'
p4628
asbag62
(g83
g64
NtRp4629
(dp4630
g67
(dp4631
g94
g95
ssg76
g4620
sg69
(lp4632
S':'
asbag62
(g83
g64
NtRp4633
(dp4634
g67
(dp4635
sg76
g4620
sg69
(lp4636
g62
(g63
g64
NtRp4637
(dp4638
g67
(dp4639
g75
I5
ssg76
g4633
sg69
(lp4640
S'1350210394.132'
p4641
asbasbasbag62
(g78
g64
NtRp4642
(dp4643
g67
(dp4644
sg76
g3666
sg69
(lp4645
g62
(g83
g64
NtRp4646
(dp4647
g67
(dp4648
g87
g88
ssg76
g4642
sg69
(lp4649
S'pam_user'
p4650
asbag62
(g83
g64
NtRp4651
(dp4652
g67
(dp4653
g94
g95
ssg76
g4642
sg69
(lp4654
S':'
asbag62
(g83
g64
NtRp4655
(dp4656
g67
(dp4657
sg76
g4642
sg69
(lp4658
g62
(g63
g64
NtRp4659
(dp4660
g67
(dp4661
g75
I5
ssg76
g4655
sg69
(lp4662
S'None'
p4663
asbasbasbag62
(g78
g64
NtRp4664
(dp4665
g67
(dp4666
sg76
g3666
sg69
(lp4667
g62
(g83
g64
NtRp4668
(dp4669
g67
(dp4670
g87
g88
ssg76
g4664
sg69
(lp4671
S'plugins'
p4672
asbag62
(g83
g64
NtRp4673
(dp4674
g67
(dp4675
g94
g95
ssg76
g4664
sg69
(lp4676
S':'
asbag62
(g83
g64
NtRp4677
(dp4678
g67
(dp4679
sg76
g4664
sg69
(lp4680
g62
(g63
g64
NtRp4681
(dp4682
g67
(dp4683
g75
I5
ssg76
g4677
sg69
(lp4684
g62
(g71
g64
NtRp4685
(dp4686
g67
(dp4687
g75
I4
ssg76
Nsg69
(lp4688
g62
(g78
g64
NtRp4689
(dp4690
g67
(dp4691
sg76
g4685
sg69
(lp4692
g62
(g83
g64
NtRp4693
(dp4694
g67
(dp4695
sg76
g4689
sg69
(lp4696
g62
(g63
g64
NtRp4697
(dp4698
g67
(dp4699
g75
I4
ssg76
g4693
sg69
(lp4700
S'web2py.plugin.attachments.w2p'
p4701
asbasbasbag62
(g78
g64
NtRp4702
(dp4703
g67
(dp4704
sg76
g4685
sg69
(lp4705
g62
(g83
g64
NtRp4706
(dp4707
g67
(dp4708
sg76
g4702
sg69
(lp4709
g62
(g63
g64
NtRp4710
(dp4711
g67
(dp4712
g75
I4
ssg76
g4706
sg69
(lp4713
S'web2py.plugin.datatable.w2p'
p4714
asbasbasbag62
(g78
g64
NtRp4715
(dp4716
g67
(dp4717
sg76
g4685
sg69
(lp4718
g62
(g83
g64
NtRp4719
(dp4720
g67
(dp4721
sg76
g4715
sg69
(lp4722
g62
(g63
g64
NtRp4723
(dp4724
g67
(dp4725
g75
I4
ssg76
g4719
sg69
(lp4726
S'web2py.plugin.dropdown.w2p'
p4727
asbasbasbag62
(g78
g64
NtRp4728
(dp4729
g67
(dp4730
sg76
g4685
sg69
(lp4731
g62
(g83
g64
NtRp4732
(dp4733
g67
(dp4734
sg76
g4728
sg69
(lp4735
g62
(g63
g64
NtRp4736
(dp4737
g67
(dp4738
g75
I4
ssg76
g4732
sg69
(lp4739
S'web2py.plugin.wiki.w2p'
p4740
asbasbasbag62
(g78
g64
NtRp4741
(dp4742
g67
(dp4743
sg76
g4685
sg69
(lp4744
g62
(g83
g64
NtRp4745
(dp4746
g67
(dp4747
sg76
g4741
sg69
(lp4748
g62
(g63
g64
NtRp4749
(dp4750
g67
(dp4751
g75
I4
ssg76
g4745
sg69
(lp4752
S'web2py.plugin.comments.w2p'
p4753
asbasbasbag62
(g78
g64
NtRp4754
(dp4755
g67
(dp4756
sg76
g4685
sg69
(lp4757
g62
(g83
g64
NtRp4758
(dp4759
g67
(dp4760
sg76
g4754
sg69
(lp4761
g62
(g63
g64
NtRp4762
(dp4763
g67
(dp4764
g75
I4
ssg76
g4758
sg69
(lp4765
S'web2py.plugin.locking.w2p'
p4766
asbasbasbag62
(g78
g64
NtRp4767
(dp4768
g67
(dp4769
sg76
g4685
sg69
(lp4770
g62
(g83
g64
NtRp4771
(dp4772
g67
(dp4773
sg76
g4767
sg69
(lp4774
g62
(g63
g64
NtRp4775
(dp4776
g67
(dp4777
g75
I4
ssg76
g4771
sg69
(lp4778
S'web2py.plugin.mmodal.w2p'
p4779
asbasbasbag62
(g78
g64
NtRp4780
(dp4781
g67
(dp4782
sg76
g4685
sg69
(lp4783
g62
(g83
g64
NtRp4784
(dp4785
g67
(dp4786
sg76
g4780
sg69
(lp4787
g62
(g63
g64
NtRp4788
(dp4789
g67
(dp4790
g75
I4
ssg76
g4784
sg69
(lp4791
S'web2py.plugin.jqmobile.w2p'
p4792
asbasbasbag62
(g78
g64
NtRp4793
(dp4794
g67
(dp4795
sg76
g4685
sg69
(lp4796
g62
(g83
g64
NtRp4797
(dp4798
g67
(dp4799
sg76
g4793
sg69
(lp4800
g62
(g63
g64
NtRp4801
(dp4802
g67
(dp4803
g75
I4
ssg76
g4797
sg69
(lp4804
S'web2py.plugin.google_checkout.w2p'
p4805
asbasbasbag62
(g78
g64
NtRp4806
(dp4807
g67
(dp4808
sg76
g4685
sg69
(lp4809
g62
(g83
g64
NtRp4810
(dp4811
g67
(dp4812
sg76
g4806
sg69
(lp4813
g62
(g63
g64
NtRp4814
(dp4815
g67
(dp4816
g75
I4
ssg76
g4810
sg69
(lp4817
S'web2py.plugin.tagging.w2p'
p4818
asbasbasbag62
(g78
g64
NtRp4819
(dp4820
g67
(dp4821
sg76
g4685
sg69
(lp4822
g62
(g83
g64
NtRp4823
(dp4824
g67
(dp4825
sg76
g4819
sg69
(lp4826
g62
(g63
g64
NtRp4827
(dp4828
g67
(dp4829
g75
I4
ssg76
g4823
sg69
(lp4830
S'web2py.plugin.mediaplayer.w2p'
p4831
asbasbasbag62
(g78
g64
NtRp4832
(dp4833
g67
(dp4834
sg76
g4685
sg69
(lp4835
g62
(g83
g64
NtRp4836
(dp4837
g67
(dp4838
sg76
g4832
sg69
(lp4839
g62
(g63
g64
NtRp4840
(dp4841
g67
(dp4842
g75
I4
ssg76
g4836
sg69
(lp4843
S'web2py.plugin.latex.w2p'
p4844
asbasbasbag62
(g78
g64
NtRp4845
(dp4846
g67
(dp4847
sg76
g4685
sg69
(lp4848
g62
(g83
g64
NtRp4849
(dp4850
g67
(dp4851
sg76
g4845
sg69
(lp4852
g62
(g63
g64
NtRp4853
(dp4854
g67
(dp4855
g75
I4
ssg76
g4849
sg69
(lp4856
S'web2py.plugin.clickatell.w2p'
p4857
asbasbasbag62
(g78
g64
NtRp4858
(dp4859
g67
(dp4860
sg76
g4685
sg69
(lp4861
g62
(g83
g64
NtRp4862
(dp4863
g67
(dp4864
sg76
g4858
sg69
(lp4865
g62
(g63
g64
NtRp4866
(dp4867
g67
(dp4868
g75
I4
ssg76
g4862
sg69
(lp4869
S'web2py.plugin.matplotlib.w2p'
p4870
asbasbasbag62
(g78
g64
NtRp4871
(dp4872
g67
(dp4873
sg76
g4685
sg69
(lp4874
g62
(g83
g64
NtRp4875
(dp4876
g67
(dp4877
sg76
g4871
sg69
(lp4878
g62
(g63
g64
NtRp4879
(dp4880
g67
(dp4881
g75
I4
ssg76
g4875
sg69
(lp4882
S'web2py.plugin.simple_comments.w2p'
p4883
asbasbasbag62
(g78
g64
NtRp4884
(dp4885
g67
(dp4886
sg76
g4685
sg69
(lp4887
g62
(g83
g64
NtRp4888
(dp4889
g67
(dp4890
sg76
g4884
sg69
(lp4891
g62
(g63
g64
NtRp4892
(dp4893
g67
(dp4894
g75
I4
ssg76
g4888
sg69
(lp4895
S'web2py.plugin.rating.w2p'
p4896
asbasbasbag62
(g78
g64
NtRp4897
(dp4898
g67
(dp4899
sg76
g4685
sg69
(lp4900
g62
(g83
g64
NtRp4901
(dp4902
g67
(dp4903
sg76
g4897
sg69
(lp4904
g62
(g63
g64
NtRp4905
(dp4906
g67
(dp4907
g75
I4
ssg76
g4901
sg69
(lp4908
S'web2py.plugin.utils.w2p'
p4909
asbasbasbag62
(g78
g64
NtRp4910
(dp4911
g67
(dp4912
sg76
g4685
sg69
(lp4913
g62
(g83
g64
NtRp4914
(dp4915
g67
(dp4916
sg76
g4910
sg69
(lp4917
g62
(g63
g64
NtRp4918
(dp4919
g67
(dp4920
g75
I4
ssg76
g4914
sg69
(lp4921
S'web2py.plugin.gmap.w2p'
p4922
asbasbasbag62
(g78
g64
NtRp4923
(dp4924
g67
(dp4925
sg76
g4685
sg69
(lp4926
g62
(g83
g64
NtRp4927
(dp4928
g67
(dp4929
sg76
g4923
sg69
(lp4930
g62
(g63
g64
NtRp4931
(dp4932
g67
(dp4933
g75
I4
ssg76
g4927
sg69
(lp4934
S'web2py.plugin.markitup.w2p'
p4935
asbasbasbag62
(g78
g64
NtRp4936
(dp4937
g67
(dp4938
sg76
g4685
sg69
(lp4939
g62
(g83
g64
NtRp4940
(dp4941
g67
(dp4942
sg76
g4936
sg69
(lp4943
g62
(g63
g64
NtRp4944
(dp4945
g67
(dp4946
g75
I4
ssg76
g4940
sg69
(lp4947
S'web2py.plugin.jqgrid.w2p'
p4948
asbasbasbag62
(g78
g64
NtRp4949
(dp4950
g67
(dp4951
sg76
g4685
sg69
(lp4952
g62
(g83
g64
NtRp4953
(dp4954
g67
(dp4955
sg76
g4949
sg69
(lp4956
g62
(g63
g64
NtRp4957
(dp4958
g67
(dp4959
g75
I4
ssg76
g4953
sg69
(lp4960
S'web2py.plugin.multiselect.w2p'
p4961
asbasbasbag62
(g78
g64
NtRp4962
(dp4963
g67
(dp4964
sg76
g4685
sg69
(lp4965
g62
(g83
g64
NtRp4966
(dp4967
g67
(dp4968
sg76
g4962
sg69
(lp4969
g62
(g63
g64
NtRp4970
(dp4971
g67
(dp4972
g75
I4
ssg76
g4966
sg69
(lp4973
S'web2py.plugin.translate.w2p'
p4974
asbasbasbag62
(g78
g64
NtRp4975
(dp4976
g67
(dp4977
sg76
g4685
sg69
(lp4978
g62
(g83
g64
NtRp4979
(dp4980
g67
(dp4981
sg76
g4975
sg69
(lp4982
g62
(g63
g64
NtRp4983
(dp4984
g67
(dp4985
g75
I4
ssg76
g4979
sg69
(lp4986
S'web2py.plugin.sortable.w2p'
p4987
asbasbasbasbasbasbasbag62
(g78
g64
NtRp4988
(dp4989
g67
(dp4990
sg76
g3666
sg69
(lp4991
g62
(g83
g64
NtRp4992
(dp4993
g67
(dp4994
g87
g88
ssg76
g4988
sg69
(lp4995
S'themes'
p4996
asbag62
(g83
g64
NtRp4997
(dp4998
g67
(dp4999
g94
g95
ssg76
g4988
sg69
(lp5000
S':'
asbag62
(g83
g64
NtRp5001
(dp5002
g67
(dp5003
sg76
g4988
sg69
(lp5004
g62
(g63
g64
NtRp5005
(dp5006
g67
(dp5007
g75
I5
ssg76
g5001
sg69
(lp5008
g62
(g71
g64
NtRp5009
(dp5010
g67
(dp5011
g75
I4
ssg76
Nsg69
(lp5012
g62
(g78
g64
NtRp5013
(dp5014
g67
(dp5015
sg76
g5009
sg69
(lp5016
g62
(g83
g64
NtRp5017
(dp5018
g67
(dp5019
sg76
g5013
sg69
(lp5020
g62
(g63
g64
NtRp5021
(dp5022
g67
(dp5023
g75
I4
ssg76
g5017
sg69
(lp5024
S'Default'
p5025
asbasbasbag62
(g78
g64
NtRp5026
(dp5027
g67
(dp5028
sg76
g5009
sg69
(lp5029
g62
(g83
g64
NtRp5030
(dp5031
g67
(dp5032
sg76
g5026
sg69
(lp5033
g62
(g63
g64
NtRp5034
(dp5035
g67
(dp5036
g75
I4
ssg76
g5030
sg69
(lp5037
S'Customize'
p5038
asbasbasbag62
(g78
g64
NtRp5039
(dp5040
g67
(dp5041
sg76
g5009
sg69
(lp5042
g62
(g83
g64
NtRp5043
(dp5044
g67
(dp5045
sg76
g5039
sg69
(lp5046
g62
(g63
g64
NtRp5047
(dp5048
g67
(dp5049
g75
I4
ssg76
g5043
sg69
(lp5050
S'OrangeandBlack'
p5051
asbasbasbag62
(g78
g64
NtRp5052
(dp5053
g67
(dp5054
sg76
g5009
sg69
(lp5055
g62
(g83
g64
NtRp5056
(dp5057
g67
(dp5058
sg76
g5052
sg69
(lp5059
g62
(g63
g64
NtRp5060
(dp5061
g67
(dp5062
g75
I4
ssg76
g5056
sg69
(lp5063
S'solutiongreen'
p5064
asbasbasbag62
(g78
g64
NtRp5065
(dp5066
g67
(dp5067
sg76
g5009
sg69
(lp5068
g62
(g83
g64
NtRp5069
(dp5070
g67
(dp5071
sg76
g5065
sg69
(lp5072
g62
(g63
g64
NtRp5073
(dp5074
g67
(dp5075
g75
I4
ssg76
g5069
sg69
(lp5076
S'FreshLight'
p5077
asbasbasbag62
(g78
g64
NtRp5078
(dp5079
g67
(dp5080
sg76
g5009
sg69
(lp5081
g62
(g83
g64
NtRp5082
(dp5083
g67
(dp5084
sg76
g5078
sg69
(lp5085
g62
(g63
g64
NtRp5086
(dp5087
g67
(dp5088
g75
I4
ssg76
g5082
sg69
(lp5089
S'StickyBud'
p5090
asbasbasbag62
(g78
g64
NtRp5091
(dp5092
g67
(dp5093
sg76
g5009
sg69
(lp5094
g62
(g83
g64
NtRp5095
(dp5096
g67
(dp5097
sg76
g5091
sg69
(lp5098
g62
(g63
g64
NtRp5099
(dp5100
g67
(dp5101
g75
I4
ssg76
g5095
sg69
(lp5102
S'orangeflower'
p5103
asbasbasbag62
(g78
g64
NtRp5104
(dp5105
g67
(dp5106
sg76
g5009
sg69
(lp5107
g62
(g83
g64
NtRp5108
(dp5109
g67
(dp5110
sg76
g5104
sg69
(lp5111
g62
(g63
g64
NtRp5112
(dp5113
g67
(dp5114
g75
I4
ssg76
g5108
sg69
(lp5115
S'Interlude'
p5116
asbasbasbag62
(g78
g64
NtRp5117
(dp5118
g67
(dp5119
sg76
g5009
sg69
(lp5120
g62
(g83
g64
NtRp5121
(dp5122
g67
(dp5123
sg76
g5117
sg69
(lp5124
g62
(g63
g64
NtRp5125
(dp5126
g67
(dp5127
g75
I4
ssg76
g5121
sg69
(lp5128
S'Industrial'
p5129
asbasbasbag62
(g78
g64
NtRp5130
(dp5131
g67
(dp5132
sg76
g5009
sg69
(lp5133
g62
(g83
g64
NtRp5134
(dp5135
g67
(dp5136
sg76
g5130
sg69
(lp5137
g62
(g63
g64
NtRp5138
(dp5139
g67
(dp5140
g75
I4
ssg76
g5134
sg69
(lp5141
S'GreenandPlain'
p5142
asbasbasbag62
(g78
g64
NtRp5143
(dp5144
g67
(dp5145
sg76
g5009
sg69
(lp5146
g62
(g83
g64
NtRp5147
(dp5148
g67
(dp5149
sg76
g5143
sg69
(lp5150
g62
(g63
g64
NtRp5151
(dp5152
g67
(dp5153
g75
I4
ssg76
g5147
sg69
(lp5154
S'FunRide'
p5155
asbasbasbag62
(g78
g64
NtRp5156
(dp5157
g67
(dp5158
sg76
g5009
sg69
(lp5159
g62
(g83
g64
NtRp5160
(dp5161
g67
(dp5162
sg76
g5156
sg69
(lp5163
g62
(g63
g64
NtRp5164
(dp5165
g67
(dp5166
g75
I4
ssg76
g5160
sg69
(lp5167
S'CorporateOffice'
p5168
asbasbasbag62
(g78
g64
NtRp5169
(dp5170
g67
(dp5171
sg76
g5009
sg69
(lp5172
g62
(g83
g64
NtRp5173
(dp5174
g67
(dp5175
sg76
g5169
sg69
(lp5176
g62
(g63
g64
NtRp5177
(dp5178
g67
(dp5179
g75
I4
ssg76
g5173
sg69
(lp5180
S'BlogSmith'
p5181
asbasbasbag62
(g78
g64
NtRp5182
(dp5183
g67
(dp5184
sg76
g5009
sg69
(lp5185
g62
(g83
g64
NtRp5186
(dp5187
g67
(dp5188
sg76
g5182
sg69
(lp5189
g62
(g63
g64
NtRp5190
(dp5191
g67
(dp5192
g75
I4
ssg76
g5186
sg69
(lp5193
S'Hibiscus'
p5194
asbasbasbag62
(g78
g64
NtRp5195
(dp5196
g67
(dp5197
sg76
g5009
sg69
(lp5198
g62
(g83
g64
NtRp5199
(dp5200
g67
(dp5201
sg76
g5195
sg69
(lp5202
g62
(g63
g64
NtRp5203
(dp5204
g67
(dp5205
g75
I4
ssg76
g5199
sg69
(lp5206
S'VioletRay'
p5207
asbasbasbag62
(g78
g64
NtRp5208
(dp5209
g67
(dp5210
sg76
g5009
sg69
(lp5211
g62
(g83
g64
NtRp5212
(dp5213
g67
(dp5214
sg76
g5208
sg69
(lp5215
g62
(g63
g64
NtRp5216
(dp5217
g67
(dp5218
g75
I4
ssg76
g5212
sg69
(lp5219
S'Chasmogamous'
p5220
asbasbasbag62
(g78
g64
NtRp5221
(dp5222
g67
(dp5223
sg76
g5009
sg69
(lp5224
g62
(g83
g64
NtRp5225
(dp5226
g67
(dp5227
sg76
g5221
sg69
(lp5228
g62
(g63
g64
NtRp5229
(dp5230
g67
(dp5231
g75
I4
ssg76
g5225
sg69
(lp5232
S'Uncomplicated'
p5233
asbasbasbag62
(g78
g64
NtRp5234
(dp5235
g67
(dp5236
sg76
g5009
sg69
(lp5237
g62
(g83
g64
NtRp5238
(dp5239
g67
(dp5240
sg76
g5234
sg69
(lp5241
g62
(g63
g64
NtRp5242
(dp5243
g67
(dp5244
g75
I4
ssg76
g5238
sg69
(lp5245
S'RoundHouse'
p5246
asbasbasbag62
(g78
g64
NtRp5247
(dp5248
g67
(dp5249
sg76
g5009
sg69
(lp5250
g62
(g83
g64
NtRp5251
(dp5252
g67
(dp5253
sg76
g5247
sg69
(lp5254
g62
(g63
g64
NtRp5255
(dp5256
g67
(dp5257
g75
I4
ssg76
g5251
sg69
(lp5258
S'CupofCoffee'
p5259
asbasbasbag62
(g78
g64
NtRp5260
(dp5261
g67
(dp5262
sg76
g5009
sg69
(lp5263
g62
(g83
g64
NtRp5264
(dp5265
g67
(dp5266
sg76
g5260
sg69
(lp5267
g62
(g63
g64
NtRp5268
(dp5269
g67
(dp5270
g75
I4
ssg76
g5264
sg69
(lp5271
S'Transient'
p5272
asbasbasbag62
(g78
g64
NtRp5273
(dp5274
g67
(dp5275
sg76
g5009
sg69
(lp5276
g62
(g83
g64
NtRp5277
(dp5278
g67
(dp5279
sg76
g5273
sg69
(lp5280
g62
(g63
g64
NtRp5281
(dp5282
g67
(dp5283
g75
I4
ssg76
g5277
sg69
(lp5284
S'Flourish'
p5285
asbasbasbag62
(g78
g64
NtRp5286
(dp5287
g67
(dp5288
sg76
g5009
sg69
(lp5289
g62
(g83
g64
NtRp5290
(dp5291
g67
(dp5292
sg76
g5286
sg69
(lp5293
g62
(g63
g64
NtRp5294
(dp5295
g67
(dp5296
g75
I4
ssg76
g5290
sg69
(lp5297
S'Astroturfd'
p5298
asbasbasbag62
(g78
g64
NtRp5299
(dp5300
g67
(dp5301
sg76
g5009
sg69
(lp5302
g62
(g83
g64
NtRp5303
(dp5304
g67
(dp5305
sg76
g5299
sg69
(lp5306
g62
(g63
g64
NtRp5307
(dp5308
g67
(dp5309
g75
I4
ssg76
g5303
sg69
(lp5310
S'EfflorescenceGreen'
p5311
asbasbasbag62
(g78
g64
NtRp5312
(dp5313
g67
(dp5314
sg76
g5009
sg69
(lp5315
g62
(g83
g64
NtRp5316
(dp5317
g67
(dp5318
sg76
g5312
sg69
(lp5319
g62
(g63
g64
NtRp5320
(dp5321
g67
(dp5322
g75
I4
ssg76
g5316
sg69
(lp5323
S'Instant'
p5324
asbasbasbag62
(g78
g64
NtRp5325
(dp5326
g67
(dp5327
sg76
g5009
sg69
(lp5328
g62
(g83
g64
NtRp5329
(dp5330
g67
(dp5331
sg76
g5325
sg69
(lp5332
g62
(g63
g64
NtRp5333
(dp5334
g67
(dp5335
g75
I4
ssg76
g5329
sg69
(lp5336
S'solutionblue'
p5337
asbasbasbag62
(g78
g64
NtRp5338
(dp5339
g67
(dp5340
sg76
g5009
sg69
(lp5341
g62
(g83
g64
NtRp5342
(dp5343
g67
(dp5344
sg76
g5338
sg69
(lp5345
g62
(g63
g64
NtRp5346
(dp5347
g67
(dp5348
g75
I4
ssg76
g5342
sg69
(lp5349
S'Balanced'
p5350
asbasbasbag62
(g78
g64
NtRp5351
(dp5352
g67
(dp5353
sg76
g5009
sg69
(lp5354
g62
(g83
g64
NtRp5355
(dp5356
g67
(dp5357
sg76
g5351
sg69
(lp5358
g62
(g63
g64
NtRp5359
(dp5360
g67
(dp5361
g75
I4
ssg76
g5355
sg69
(lp5362
S'RedCity'
p5363
asbasbasbag62
(g78
g64
NtRp5364
(dp5365
g67
(dp5366
sg76
g5009
sg69
(lp5367
g62
(g83
g64
NtRp5368
(dp5369
g67
(dp5370
sg76
g5364
sg69
(lp5371
g62
(g63
g64
NtRp5372
(dp5373
g67
(dp5374
g75
I4
ssg76
g5368
sg69
(lp5375
S'Stardust'
p5376
asbasbasbag62
(g78
g64
NtRp5377
(dp5378
g67
(dp5379
sg76
g5009
sg69
(lp5380
g62
(g83
g64
NtRp5381
(dp5382
g67
(dp5383
sg76
g5377
sg69
(lp5384
g62
(g63
g64
NtRp5385
(dp5386
g67
(dp5387
g75
I4
ssg76
g5381
sg69
(lp5388
S'EfflorescenceBlue'
p5389
asbasbasbag62
(g78
g64
NtRp5390
(dp5391
g67
(dp5392
sg76
g5009
sg69
(lp5393
g62
(g83
g64
NtRp5394
(dp5395
g67
(dp5396
sg76
g5390
sg69
(lp5397
g62
(g63
g64
NtRp5398
(dp5399
g67
(dp5400
g75
I4
ssg76
g5394
sg69
(lp5401
S'FlashyWeb'
p5402
asbasbasbag62
(g78
g64
NtRp5403
(dp5404
g67
(dp5405
sg76
g5009
sg69
(lp5406
g62
(g83
g64
NtRp5407
(dp5408
g67
(dp5409
sg76
g5403
sg69
(lp5410
g62
(g63
g64
NtRp5411
(dp5412
g67
(dp5413
g75
I4
ssg76
g5407
sg69
(lp5414
S'Spaced'
p5415
asbasbasbag62
(g78
g64
NtRp5416
(dp5417
g67
(dp5418
sg76
g5009
sg69
(lp5419
g62
(g83
g64
NtRp5420
(dp5421
g67
(dp5422
sg76
g5416
sg69
(lp5423
g62
(g63
g64
NtRp5424
(dp5425
g67
(dp5426
g75
I4
ssg76
g5420
sg69
(lp5427
S'EfflorescencePurple'
p5428
asbasbasbag62
(g78
g64
NtRp5429
(dp5430
g67
(dp5431
sg76
g5009
sg69
(lp5432
g62
(g83
g64
NtRp5433
(dp5434
g67
(dp5435
sg76
g5429
sg69
(lp5436
g62
(g63
g64
NtRp5437
(dp5438
g67
(dp5439
g75
I4
ssg76
g5433
sg69
(lp5440
S'TheMissingPiece'
p5441
asbasbasbag62
(g78
g64
NtRp5442
(dp5443
g67
(dp5444
sg76
g5009
sg69
(lp5445
g62
(g83
g64
NtRp5446
(dp5447
g67
(dp5448
sg76
g5442
sg69
(lp5449
g62
(g63
g64
NtRp5450
(dp5451
g67
(dp5452
g75
I4
ssg76
g5446
sg69
(lp5453
S'PremiumSeries'
p5454
asbasbasbag62
(g78
g64
NtRp5455
(dp5456
g67
(dp5457
sg76
g5009
sg69
(lp5458
g62
(g83
g64
NtRp5459
(dp5460
g67
(dp5461
sg76
g5455
sg69
(lp5462
g62
(g63
g64
NtRp5463
(dp5464
g67
(dp5465
g75
I4
ssg76
g5459
sg69
(lp5466
S'Abrasive'
p5467
asbasbasbag62
(g78
g64
NtRp5468
(dp5469
g67
(dp5470
sg76
g5009
sg69
(lp5471
g62
(g83
g64
NtRp5472
(dp5473
g67
(dp5474
sg76
g5468
sg69
(lp5475
g62
(g63
g64
NtRp5476
(dp5477
g67
(dp5478
g75
I4
ssg76
g5472
sg69
(lp5479
S'Simpletex'
p5480
asbasbasbag62
(g78
g64
NtRp5481
(dp5482
g67
(dp5483
sg76
g5009
sg69
(lp5484
g62
(g83
g64
NtRp5485
(dp5486
g67
(dp5487
sg76
g5481
sg69
(lp5488
g62
(g63
g64
NtRp5489
(dp5490
g67
(dp5491
g75
I4
ssg76
g5485
sg69
(lp5492
S'PinkFloat'
p5493
asbasbasbag62
(g78
g64
NtRp5494
(dp5495
g67
(dp5496
sg76
g5009
sg69
(lp5497
g62
(g83
g64
NtRp5498
(dp5499
g67
(dp5500
sg76
g5494
sg69
(lp5501
g62
(g63
g64
NtRp5502
(dp5503
g67
(dp5504
g75
I4
ssg76
g5498
sg69
(lp5505
S'FCTHarvest'
p5506
asbasbasbag62
(g78
g64
NtRp5507
(dp5508
g67
(dp5509
sg76
g5009
sg69
(lp5510
g62
(g83
g64
NtRp5511
(dp5512
g67
(dp5513
sg76
g5507
sg69
(lp5514
g62
(g63
g64
NtRp5515
(dp5516
g67
(dp5517
g75
I4
ssg76
g5511
sg69
(lp5518
S'Bounderies'
p5519
asbasbasbag62
(g78
g64
NtRp5520
(dp5521
g67
(dp5522
sg76
g5009
sg69
(lp5523
g62
(g83
g64
NtRp5524
(dp5525
g67
(dp5526
sg76
g5520
sg69
(lp5527
g62
(g63
g64
NtRp5528
(dp5529
g67
(dp5530
g75
I4
ssg76
g5524
sg69
(lp5531
S'BackgroundBlue'
p5532
asbasbasbag62
(g78
g64
NtRp5533
(dp5534
g67
(dp5535
sg76
g5009
sg69
(lp5536
g62
(g83
g64
NtRp5537
(dp5538
g67
(dp5539
sg76
g5533
sg69
(lp5540
g62
(g63
g64
NtRp5541
(dp5542
g67
(dp5543
g75
I4
ssg76
g5537
sg69
(lp5544
S'Tastelessly'
p5545
asbasbasbag62
(g78
g64
NtRp5546
(dp5547
g67
(dp5548
sg76
g5009
sg69
(lp5549
g62
(g83
g64
NtRp5550
(dp5551
g67
(dp5552
sg76
g5546
sg69
(lp5553
g62
(g63
g64
NtRp5554
(dp5555
g67
(dp5556
g75
I4
ssg76
g5550
sg69
(lp5557
S'Settings'
p5558
asbasbasbag62
(g78
g64
NtRp5559
(dp5560
g67
(dp5561
sg76
g5009
sg69
(lp5562
g62
(g83
g64
NtRp5563
(dp5564
g67
(dp5565
sg76
g5559
sg69
(lp5566
g62
(g63
g64
NtRp5567
(dp5568
g67
(dp5569
g75
I4
ssg76
g5563
sg69
(lp5570
S'Colorus'
p5571
asbasbasbag62
(g78
g64
NtRp5572
(dp5573
g67
(dp5574
sg76
g5009
sg69
(lp5575
g62
(g83
g64
NtRp5576
(dp5577
g67
(dp5578
sg76
g5572
sg69
(lp5579
g62
(g63
g64
NtRp5580
(dp5581
g67
(dp5582
g75
I4
ssg76
g5576
sg69
(lp5583
S'BackgroundGreen'
p5584
asbasbasbag62
(g78
g64
NtRp5585
(dp5586
g67
(dp5587
sg76
g5009
sg69
(lp5588
g62
(g83
g64
NtRp5589
(dp5590
g67
(dp5591
sg76
g5585
sg69
(lp5592
g62
(g63
g64
NtRp5593
(dp5594
g67
(dp5595
g75
I4
ssg76
g5589
sg69
(lp5596
S'TheIsland'
p5597
asbasbasbag62
(g78
g64
NtRp5598
(dp5599
g67
(dp5600
sg76
g5009
sg69
(lp5601
g62
(g83
g64
NtRp5602
(dp5603
g67
(dp5604
sg76
g5598
sg69
(lp5605
g62
(g63
g64
NtRp5606
(dp5607
g67
(dp5608
g75
I4
ssg76
g5602
sg69
(lp5609
S'TinyBlue'
p5610
asbasbasbag62
(g78
g64
NtRp5611
(dp5612
g67
(dp5613
sg76
g5009
sg69
(lp5614
g62
(g83
g64
NtRp5615
(dp5616
g67
(dp5617
sg76
g5611
sg69
(lp5618
g62
(g63
g64
NtRp5619
(dp5620
g67
(dp5621
g75
I4
ssg76
g5615
sg69
(lp5622
S'hexahedron'
p5623
asbasbasbag62
(g78
g64
NtRp5624
(dp5625
g67
(dp5626
sg76
g5009
sg69
(lp5627
g62
(g83
g64
NtRp5628
(dp5629
g67
(dp5630
sg76
g5624
sg69
(lp5631
g62
(g63
g64
NtRp5632
(dp5633
g67
(dp5634
g75
I4
ssg76
g5628
sg69
(lp5635
S'PetCharms'
p5636
asbasbasbag62
(g78
g64
NtRp5637
(dp5638
g67
(dp5639
sg76
g5009
sg69
(lp5640
g62
(g83
g64
NtRp5641
(dp5642
g67
(dp5643
sg76
g5637
sg69
(lp5644
g62
(g63
g64
NtRp5645
(dp5646
g67
(dp5647
g75
I4
ssg76
g5641
sg69
(lp5648
S'Subordinate'
p5649
asbasbasbag62
(g78
g64
NtRp5650
(dp5651
g67
(dp5652
sg76
g5009
sg69
(lp5653
g62
(g83
g64
NtRp5654
(dp5655
g67
(dp5656
sg76
g5650
sg69
(lp5657
g62
(g63
g64
NtRp5658
(dp5659
g67
(dp5660
g75
I4
ssg76
g5654
sg69
(lp5661
S'Voyage'
p5662
asbasbasbag62
(g78
g64
NtRp5663
(dp5664
g67
(dp5665
sg76
g5009
sg69
(lp5666
g62
(g83
g64
NtRp5667
(dp5668
g67
(dp5669
sg76
g5663
sg69
(lp5670
g62
(g63
g64
NtRp5671
(dp5672
g67
(dp5673
g75
I4
ssg76
g5667
sg69
(lp5674
S'Replenish'
p5675
asbasbasbag62
(g78
g64
NtRp5676
(dp5677
g67
(dp5678
sg76
g5009
sg69
(lp5679
g62
(g83
g64
NtRp5680
(dp5681
g67
(dp5682
sg76
g5676
sg69
(lp5683
g62
(g63
g64
NtRp5684
(dp5685
g67
(dp5686
g75
I4
ssg76
g5680
sg69
(lp5687
S'sliced'
p5688
asbasbasbag62
(g78
g64
NtRp5689
(dp5690
g67
(dp5691
sg76
g5009
sg69
(lp5692
g62
(g83
g64
NtRp5693
(dp5694
g67
(dp5695
sg76
g5689
sg69
(lp5696
g62
(g63
g64
NtRp5697
(dp5698
g67
(dp5699
g75
I4
ssg76
g5693
sg69
(lp5700
S'Papira'
p5701
asbasbasbag62
(g78
g64
NtRp5702
(dp5703
g67
(dp5704
sg76
g5009
sg69
(lp5705
g62
(g83
g64
NtRp5706
(dp5707
g67
(dp5708
sg76
g5702
sg69
(lp5709
g62
(g63
g64
NtRp5710
(dp5711
g67
(dp5712
g75
I4
ssg76
g5706
sg69
(lp5713
S'NewsFlash'
p5714
asbasbasbag62
(g78
g64
NtRp5715
(dp5716
g67
(dp5717
sg76
g5009
sg69
(lp5718
g62
(g83
g64
NtRp5719
(dp5720
g67
(dp5721
sg76
g5715
sg69
(lp5722
g62
(g63
g64
NtRp5723
(dp5724
g67
(dp5725
g75
I4
ssg76
g5719
sg69
(lp5726
S'Reference'
p5727
asbasbasbag62
(g78
g64
NtRp5728
(dp5729
g67
(dp5730
sg76
g5009
sg69
(lp5731
g62
(g83
g64
NtRp5732
(dp5733
g67
(dp5734
sg76
g5728
sg69
(lp5735
g62
(g63
g64
NtRp5736
(dp5737
g67
(dp5738
g75
I4
ssg76
g5732
sg69
(lp5739
S'Unqualified'
p5740
asbasbasbag62
(g78
g64
NtRp5741
(dp5742
g67
(dp5743
sg76
g5009
sg69
(lp5744
g62
(g83
g64
NtRp5745
(dp5746
g67
(dp5747
sg76
g5741
sg69
(lp5748
g62
(g63
g64
NtRp5749
(dp5750
g67
(dp5751
g75
I4
ssg76
g5745
sg69
(lp5752
S'Branches'
p5753
asbasbasbag62
(g78
g64
NtRp5754
(dp5755
g67
(dp5756
sg76
g5009
sg69
(lp5757
g62
(g83
g64
NtRp5758
(dp5759
g67
(dp5760
sg76
g5754
sg69
(lp5761
g62
(g63
g64
NtRp5762
(dp5763
g67
(dp5764
g75
I4
ssg76
g5758
sg69
(lp5765
S'Glazed'
p5766
asbasbasbag62
(g78
g64
NtRp5767
(dp5768
g67
(dp5769
sg76
g5009
sg69
(lp5770
g62
(g83
g64
NtRp5771
(dp5772
g67
(dp5773
sg76
g5767
sg69
(lp5774
g62
(g63
g64
NtRp5775
(dp5776
g67
(dp5777
g75
I4
ssg76
g5771
sg69
(lp5778
S'Excess'
p5779
asbasbasbag62
(g78
g64
NtRp5780
(dp5781
g67
(dp5782
sg76
g5009
sg69
(lp5783
g62
(g83
g64
NtRp5784
(dp5785
g67
(dp5786
sg76
g5780
sg69
(lp5787
g62
(g63
g64
NtRp5788
(dp5789
g67
(dp5790
g75
I4
ssg76
g5784
sg69
(lp5791
S'Commission'
p5792
asbasbasbag62
(g78
g64
NtRp5793
(dp5794
g67
(dp5795
sg76
g5009
sg69
(lp5796
g62
(g83
g64
NtRp5797
(dp5798
g67
(dp5799
sg76
g5793
sg69
(lp5800
g62
(g63
g64
NtRp5801
(dp5802
g67
(dp5803
g75
I4
ssg76
g5797
sg69
(lp5804
S'Frozenage'
p5805
asbasbasbag62
(g78
g64
NtRp5806
(dp5807
g67
(dp5808
sg76
g5009
sg69
(lp5809
g62
(g83
g64
NtRp5810
(dp5811
g67
(dp5812
sg76
g5806
sg69
(lp5813
g62
(g63
g64
NtRp5814
(dp5815
g67
(dp5816
g75
I4
ssg76
g5810
sg69
(lp5817
S'Blogging'
p5818
asbasbasbag62
(g78
g64
NtRp5819
(dp5820
g67
(dp5821
sg76
g5009
sg69
(lp5822
g62
(g83
g64
NtRp5823
(dp5824
g67
(dp5825
sg76
g5819
sg69
(lp5826
g62
(g63
g64
NtRp5827
(dp5828
g67
(dp5829
g75
I4
ssg76
g5823
sg69
(lp5830
S'Extracts'
p5831
asbasbasbag62
(g78
g64
NtRp5832
(dp5833
g67
(dp5834
sg76
g5009
sg69
(lp5835
g62
(g83
g64
NtRp5836
(dp5837
g67
(dp5838
sg76
g5832
sg69
(lp5839
g62
(g63
g64
NtRp5840
(dp5841
g67
(dp5842
g75
I4
ssg76
g5836
sg69
(lp5843
S'Rambling'
p5844
asbasbasbag62
(g78
g64
NtRp5845
(dp5846
g67
(dp5847
sg76
g5009
sg69
(lp5848
g62
(g83
g64
NtRp5849
(dp5850
g67
(dp5851
sg76
g5845
sg69
(lp5852
g62
(g63
g64
NtRp5853
(dp5854
g67
(dp5855
g75
I4
ssg76
g5849
sg69
(lp5856
S'OldArchitecture'
p5857
asbasbasbag62
(g78
g64
NtRp5858
(dp5859
g67
(dp5860
sg76
g5009
sg69
(lp5861
g62
(g83
g64
NtRp5862
(dp5863
g67
(dp5864
sg76
g5858
sg69
(lp5865
g62
(g63
g64
NtRp5866
(dp5867
g67
(dp5868
g75
I4
ssg76
g5862
sg69
(lp5869
S'Miscellaneous'
p5870
asbasbasbag62
(g78
g64
NtRp5871
(dp5872
g67
(dp5873
sg76
g5009
sg69
(lp5874
g62
(g83
g64
NtRp5875
(dp5876
g67
(dp5877
sg76
g5871
sg69
(lp5878
g62
(g63
g64
NtRp5879
(dp5880
g67
(dp5881
g75
I4
ssg76
g5875
sg69
(lp5882
S'Blend'
p5883
asbasbasbag62
(g78
g64
NtRp5884
(dp5885
g67
(dp5886
sg76
g5009
sg69
(lp5887
g62
(g83
g64
NtRp5888
(dp5889
g67
(dp5890
sg76
g5884
sg69
(lp5891
g62
(g63
g64
NtRp5892
(dp5893
g67
(dp5894
g75
I4
ssg76
g5888
sg69
(lp5895
S'Squarely'
p5896
asbasbasbag62
(g78
g64
NtRp5897
(dp5898
g67
(dp5899
sg76
g5009
sg69
(lp5900
g62
(g83
g64
NtRp5901
(dp5902
g67
(dp5903
sg76
g5897
sg69
(lp5904
g62
(g63
g64
NtRp5905
(dp5906
g67
(dp5907
g75
I4
ssg76
g5901
sg69
(lp5908
S'SnowCrystals'
p5909
asbasbasbag62
(g78
g64
NtRp5910
(dp5911
g67
(dp5912
sg76
g5009
sg69
(lp5913
g62
(g83
g64
NtRp5914
(dp5915
g67
(dp5916
sg76
g5910
sg69
(lp5917
g62
(g63
g64
NtRp5918
(dp5919
g67
(dp5920
g75
I4
ssg76
g5914
sg69
(lp5921
S'Emporium'
p5922
asbasbasbag62
(g78
g64
NtRp5923
(dp5924
g67
(dp5925
sg76
g5009
sg69
(lp5926
g62
(g83
g64
NtRp5927
(dp5928
g67
(dp5929
sg76
g5923
sg69
(lp5930
g62
(g63
g64
NtRp5931
(dp5932
g67
(dp5933
g75
I4
ssg76
g5927
sg69
(lp5934
S'Clicker'
p5935
asbasbasbag62
(g78
g64
NtRp5936
(dp5937
g67
(dp5938
sg76
g5009
sg69
(lp5939
g62
(g83
g64
NtRp5940
(dp5941
g67
(dp5942
sg76
g5936
sg69
(lp5943
g62
(g63
g64
NtRp5944
(dp5945
g67
(dp5946
g75
I4
ssg76
g5940
sg69
(lp5947
S'ConcreteV2'
p5948
asbasbasbag62
(g78
g64
NtRp5949
(dp5950
g67
(dp5951
sg76
g5009
sg69
(lp5952
g62
(g83
g64
NtRp5953
(dp5954
g67
(dp5955
sg76
g5949
sg69
(lp5956
g62
(g63
g64
NtRp5957
(dp5958
g67
(dp5959
g75
I4
ssg76
g5953
sg69
(lp5960
S'Neutral'
p5961
asbasbasbag62
(g78
g64
NtRp5962
(dp5963
g67
(dp5964
sg76
g5009
sg69
(lp5965
g62
(g83
g64
NtRp5966
(dp5967
g67
(dp5968
sg76
g5962
sg69
(lp5969
g62
(g63
g64
NtRp5970
(dp5971
g67
(dp5972
g75
I4
ssg76
g5966
sg69
(lp5973
S'EfflorescenceOrange'
p5974
asbasbasbag62
(g78
g64
NtRp5975
(dp5976
g67
(dp5977
sg76
g5009
sg69
(lp5978
g62
(g83
g64
NtRp5979
(dp5980
g67
(dp5981
sg76
g5975
sg69
(lp5982
g62
(g63
g64
NtRp5983
(dp5984
g67
(dp5985
g75
I4
ssg76
g5979
sg69
(lp5986
S'Boorish'
p5987
asbasbasbag62
(g78
g64
NtRp5988
(dp5989
g67
(dp5990
sg76
g5009
sg69
(lp5991
g62
(g83
g64
NtRp5992
(dp5993
g67
(dp5994
sg76
g5988
sg69
(lp5995
g62
(g63
g64
NtRp5996
(dp5997
g67
(dp5998
g75
I4
ssg76
g5992
sg69
(lp5999
S'Experience'
p6000
asbasbasbag62
(g78
g64
NtRp6001
(dp6002
g67
(dp6003
sg76
g5009
sg69
(lp6004
g62
(g83
g64
NtRp6005
(dp6006
g67
(dp6007
sg76
g6001
sg69
(lp6008
g62
(g63
g64
NtRp6009
(dp6010
g67
(dp6011
g75
I4
ssg76
g6005
sg69
(lp6012
S'CityLights'
p6013
asbasbasbag62
(g78
g64
NtRp6014
(dp6015
g67
(dp6016
sg76
g5009
sg69
(lp6017
g62
(g83
g64
NtRp6018
(dp6019
g67
(dp6020
sg76
g6014
sg69
(lp6021
g62
(g63
g64
NtRp6022
(dp6023
g67
(dp6024
g75
I4
ssg76
g6018
sg69
(lp6025
S'Incorporated'
p6026
asbasbasbag62
(g78
g64
NtRp6027
(dp6028
g67
(dp6029
sg76
g5009
sg69
(lp6030
g62
(g83
g64
NtRp6031
(dp6032
g67
(dp6033
sg76
g6027
sg69
(lp6034
g62
(g63
g64
NtRp6035
(dp6036
g67
(dp6037
g75
I4
ssg76
g6031
sg69
(lp6038
S'Thingreenline'
p6039
asbasbasbag62
(g78
g64
NtRp6040
(dp6041
g67
(dp6042
sg76
g5009
sg69
(lp6043
g62
(g83
g64
NtRp6044
(dp6045
g67
(dp6046
sg76
g6040
sg69
(lp6047
g62
(g63
g64
NtRp6048
(dp6049
g67
(dp6050
g75
I4
ssg76
g6044
sg69
(lp6051
S'HotAirBalloons'
p6052
asbasbasbag62
(g78
g64
NtRp6053
(dp6054
g67
(dp6055
sg76
g5009
sg69
(lp6056
g62
(g83
g64
NtRp6057
(dp6058
g67
(dp6059
sg76
g6053
sg69
(lp6060
g62
(g63
g64
NtRp6061
(dp6062
g67
(dp6063
g75
I4
ssg76
g6057
sg69
(lp6064
S'Optimism'
p6065
asbasbasbag62
(g78
g64
NtRp6066
(dp6067
g67
(dp6068
sg76
g5009
sg69
(lp6069
g62
(g83
g64
NtRp6070
(dp6071
g67
(dp6072
sg76
g6066
sg69
(lp6073
g62
(g63
g64
NtRp6074
(dp6075
g67
(dp6076
g75
I4
ssg76
g6070
sg69
(lp6077
S'Sampling'
p6078
asbasbasbag62
(g78
g64
NtRp6079
(dp6080
g67
(dp6081
sg76
g5009
sg69
(lp6082
g62
(g83
g64
NtRp6083
(dp6084
g67
(dp6085
sg76
g6079
sg69
(lp6086
g62
(g63
g64
NtRp6087
(dp6088
g67
(dp6089
g75
I4
ssg76
g6083
sg69
(lp6090
S'Oxidation'
p6091
asbasbasbag62
(g78
g64
NtRp6092
(dp6093
g67
(dp6094
sg76
g5009
sg69
(lp6095
g62
(g83
g64
NtRp6096
(dp6097
g67
(dp6098
sg76
g6092
sg69
(lp6099
g62
(g63
g64
NtRp6100
(dp6101
g67
(dp6102
g75
I4
ssg76
g6096
sg69
(lp6103
S'External'
p6104
asbasbasbag62
(g78
g64
NtRp6105
(dp6106
g67
(dp6107
sg76
g5009
sg69
(lp6108
g62
(g83
g64
NtRp6109
(dp6110
g67
(dp6111
sg76
g6105
sg69
(lp6112
g62
(g63
g64
NtRp6113
(dp6114
g67
(dp6115
g75
I4
ssg76
g6109
sg69
(lp6116
S'FCTInnovation'
p6117
asbasbasbag62
(g78
g64
NtRp6118
(dp6119
g67
(dp6120
sg76
g5009
sg69
(lp6121
g62
(g83
g64
NtRp6122
(dp6123
g67
(dp6124
sg76
g6118
sg69
(lp6125
g62
(g63
g64
NtRp6126
(dp6127
g67
(dp6128
g75
I4
ssg76
g6122
sg69
(lp6129
S'BlueStatic'
p6130
asbasbasbag62
(g78
g64
NtRp6131
(dp6132
g67
(dp6133
sg76
g5009
sg69
(lp6134
g62
(g83
g64
NtRp6135
(dp6136
g67
(dp6137
sg76
g6131
sg69
(lp6138
g62
(g63
g64
NtRp6139
(dp6140
g67
(dp6141
g75
I4
ssg76
g6135
sg69
(lp6142
S'Compromise'
p6143
asbasbasbag62
(g78
g64
NtRp6144
(dp6145
g67
(dp6146
sg76
g5009
sg69
(lp6147
g62
(g83
g64
NtRp6148
(dp6149
g67
(dp6150
sg76
g6144
sg69
(lp6151
g62
(g63
g64
NtRp6152
(dp6153
g67
(dp6154
g75
I4
ssg76
g6148
sg69
(lp6155
S'LongBeach'
p6156
asbasbasbag62
(g78
g64
NtRp6157
(dp6158
g67
(dp6159
sg76
g5009
sg69
(lp6160
g62
(g83
g64
NtRp6161
(dp6162
g67
(dp6163
sg76
g6157
sg69
(lp6164
g62
(g63
g64
NtRp6165
(dp6166
g67
(dp6167
g75
I4
ssg76
g6161
sg69
(lp6168
S'Efflorescence'
p6169
asbasbasbag62
(g78
g64
NtRp6170
(dp6171
g67
(dp6172
sg76
g5009
sg69
(lp6173
g62
(g83
g64
NtRp6174
(dp6175
g67
(dp6176
sg76
g6170
sg69
(lp6177
g62
(g63
g64
NtRp6178
(dp6179
g67
(dp6180
g75
I4
ssg76
g6174
sg69
(lp6181
S'KeepitSimple'
p6182
asbasbasbag62
(g78
g64
NtRp6183
(dp6184
g67
(dp6185
sg76
g5009
sg69
(lp6186
g62
(g83
g64
NtRp6187
(dp6188
g67
(dp6189
sg76
g6183
sg69
(lp6190
g62
(g63
g64
NtRp6191
(dp6192
g67
(dp6193
g75
I4
ssg76
g6187
sg69
(lp6194
S'Pressurized'
p6195
asbasbasbag62
(g78
g64
NtRp6196
(dp6197
g67
(dp6198
sg76
g5009
sg69
(lp6199
g62
(g83
g64
NtRp6200
(dp6201
g67
(dp6202
sg76
g6196
sg69
(lp6203
g62
(g63
g64
NtRp6204
(dp6205
g67
(dp6206
g75
I4
ssg76
g6200
sg69
(lp6207
S'FCTPuzzled'
p6208
asbasbasbag62
(g78
g64
NtRp6209
(dp6210
g67
(dp6211
sg76
g5009
sg69
(lp6212
g62
(g83
g64
NtRp6213
(dp6214
g67
(dp6215
sg76
g6209
sg69
(lp6216
g62
(g63
g64
NtRp6217
(dp6218
g67
(dp6219
g75
I4
ssg76
g6213
sg69
(lp6220
S'Embouteillage'
p6221
asbasbasbag62
(g78
g64
NtRp6222
(dp6223
g67
(dp6224
sg76
g5009
sg69
(lp6225
g62
(g83
g64
NtRp6226
(dp6227
g67
(dp6228
sg76
g6222
sg69
(lp6229
g62
(g63
g64
NtRp6230
(dp6231
g67
(dp6232
g75
I4
ssg76
g6226
sg69
(lp6233
S'Whitelight'
p6234
asbasbasbag62
(g78
g64
NtRp6235
(dp6236
g67
(dp6237
sg76
g5009
sg69
(lp6238
g62
(g83
g64
NtRp6239
(dp6240
g67
(dp6241
sg76
g6235
sg69
(lp6242
g62
(g63
g64
NtRp6243
(dp6244
g67
(dp6245
g75
I4
ssg76
g6239
sg69
(lp6246
S'Pluralism'
p6247
asbasbasbag62
(g78
g64
NtRp6248
(dp6249
g67
(dp6250
sg76
g5009
sg69
(lp6251
g62
(g83
g64
NtRp6252
(dp6253
g67
(dp6254
sg76
g6248
sg69
(lp6255
g62
(g63
g64
NtRp6256
(dp6257
g67
(dp6258
g75
I4
ssg76
g6252
sg69
(lp6259
S'solutionorange'
p6260
asbasbasbasbasbasbasbag62
(g78
g64
NtRp6261
(dp6262
g67
(dp6263
sg76
g3666
sg69
(lp6264
g62
(g83
g64
NtRp6265
(dp6266
g67
(dp6267
g87
g88
ssg76
g6261
sg69
(lp6268
S'token'
p6269
asbag62
(g83
g64
NtRp6270
(dp6271
g67
(dp6272
g94
g95
ssg76
g6261
sg69
(lp6273
S':'
asbag62
(g83
g64
NtRp6274
(dp6275
g67
(dp6276
sg76
g6261
sg69
(lp6277
g62
(g63
g64
NtRp6278
(dp6279
g67
(dp6280
g75
I5
ssg76
g6274
sg69
(lp6281
S'8c6da387-220b-4126-9b99-e97263d6c223'
p6282
asbasbasbasbasbsS'etype'
p6283
S"<type 'exceptions.IOError'>"
p6284
sS'date'
p6285
S'Sun Oct 14 15:56:38 2012'
p6286
sS'response'
p6287
g62
(g63
g64
NtRp6288
(dp6289
g67
(dp6290
sg69
(lp6291
g62
(g71
g64
NtRp6292
(dp6293
g67
(dp6294
g75
I5
ssg76
Nsg69
(lp6295
g62
(g78
g64
NtRp6296
(dp6297
g67
(dp6298
sg76
g6292
sg69
(lp6299
g62
(g83
g64
NtRp6300
(dp6301
g67
(dp6302
g87
g88
ssg76
g6296
sg69
(lp6303
g160
asbag62
(g83
g64
NtRp6304
(dp6305
g67
(dp6306
g94
g95
ssg76
g6296
sg69
(lp6307
S':'
asbag62
(g83
g64
NtRp6308
(dp6309
g67
(dp6310
sg76
g6296
sg69
(lp6311
g62
(g63
g64
NtRp6312
(dp6313
g67
(dp6314
g75
I5
ssg76
g6308
sg69
(lp6315
S'<cStringIO.StringO object at 0x0000000003A43340>'
p6316
asbasbasbag62
(g78
g64
NtRp6317
(dp6318
g67
(dp6319
sg76
g6292
sg69
(lp6320
g62
(g83
g64
NtRp6321
(dp6322
g67
(dp6323
g87
g88
ssg76
g6317
sg69
(lp6324
g248
asbag62
(g83
g64
NtRp6325
(dp6326
g67
(dp6327
g94
g95
ssg76
g6317
sg69
(lp6328
S':'
asbag62
(g83
g64
NtRp6329
(dp6330
g67
(dp6331
sg76
g6317
sg69
(lp6332
g62
(g63
g64
NtRp6333
(dp6334
g67
(dp6335
g75
I5
ssg76
g6329
sg69
(lp6336
g62
(g71
g64
NtRp6337
(dp6338
g67
(dp6339
g75
I4
ssg76
Nsg69
(lp6340
g62
(g78
g64
NtRp6341
(dp6342
g67
(dp6343
sg76
g6337
sg69
(lp6344
g62
(g83
g64
NtRp6345
(dp6346
g67
(dp6347
g87
g88
ssg76
g6341
sg69
(lp6348
S'session_id_admin'
p6349
asbag62
(g83
g64
NtRp6350
(dp6351
g67
(dp6352
g94
g95
ssg76
g6341
sg69
(lp6353
S':'
asbag62
(g83
g64
NtRp6354
(dp6355
g67
(dp6356
sg76
g6341
sg69
(lp6357
g62
(g63
g64
NtRp6358
(dp6359
g67
(dp6360
g75
I4
ssg76
g6354
sg69
(lp6361
g286
ag62
(g71
g64
NtRp6362
(dp6363
g67
(dp6364
g75
I3
ssg76
Nsg69
(lp6365
g62
(g78
g64
NtRp6366
(dp6367
g67
(dp6368
sg76
g6362
sg69
(lp6369
g62
(g83
g64
NtRp6370
(dp6371
g67
(dp6372
g87
g88
ssg76
g6366
sg69
(lp6373
g299
asbag62
(g83
g64
NtRp6374
(dp6375
g67
(dp6376
g94
g95
ssg76
g6366
sg69
(lp6377
S':'
asbag62
(g83
g64
NtRp6378
(dp6379
g67
(dp6380
sg76
g6366
sg69
(lp6381
g62
(g63
g64
NtRp6382
(dp6383
g67
(dp6384
g75
I3
ssg76
g6378
sg69
(lp6385
S''
asbasbasbag62
(g78
g64
NtRp6386
(dp6387
g67
(dp6388
sg76
g6362
sg69
(lp6389
g62
(g83
g64
NtRp6390
(dp6391
g67
(dp6392
g87
g88
ssg76
g6386
sg69
(lp6393
g320
asbag62
(g83
g64
NtRp6394
(dp6395
g67
(dp6396
g94
g95
ssg76
g6386
sg69
(lp6397
S':'
asbag62
(g83
g64
NtRp6398
(dp6399
g67
(dp6400
sg76
g6386
sg69
(lp6401
g62
(g63
g64
NtRp6402
(dp6403
g67
(dp6404
g75
I3
ssg76
g6398
sg69
(lp6405
S''
asbasbasbag62
(g78
g64
NtRp6406
(dp6407
g67
(dp6408
sg76
g6362
sg69
(lp6409
g62
(g83
g64
NtRp6410
(dp6411
g67
(dp6412
g87
g88
ssg76
g6406
sg69
(lp6413
g341
asbag62
(g83
g64
NtRp6414
(dp6415
g67
(dp6416
g94
g95
ssg76
g6406
sg69
(lp6417
S':'
asbag62
(g83
g64
NtRp6418
(dp6419
g67
(dp6420
sg76
g6406
sg69
(lp6421
g62
(g63
g64
NtRp6422
(dp6423
g67
(dp6424
g75
I3
ssg76
g6418
sg69
(lp6425
S''
asbasbasbag62
(g78
g64
NtRp6426
(dp6427
g67
(dp6428
sg76
g6362
sg69
(lp6429
g62
(g83
g64
NtRp6430
(dp6431
g67
(dp6432
g87
g88
ssg76
g6426
sg69
(lp6433
g362
asbag62
(g83
g64
NtRp6434
(dp6435
g67
(dp6436
g94
g95
ssg76
g6426
sg69
(lp6437
S':'
asbag62
(g83
g64
NtRp6438
(dp6439
g67
(dp6440
sg76
g6426
sg69
(lp6441
g62
(g63
g64
NtRp6442
(dp6443
g67
(dp6444
g75
I3
ssg76
g6438
sg69
(lp6445
S''
asbasbasbag62
(g78
g64
NtRp6446
(dp6447
g67
(dp6448
sg76
g6362
sg69
(lp6449
g62
(g83
g64
NtRp6450
(dp6451
g67
(dp6452
g87
g88
ssg76
g6446
sg69
(lp6453
g383
asbag62
(g83
g64
NtRp6454
(dp6455
g67
(dp6456
g94
g95
ssg76
g6446
sg69
(lp6457
S':'
asbag62
(g83
g64
NtRp6458
(dp6459
g67
(dp6460
sg76
g6446
sg69
(lp6461
g62
(g63
g64
NtRp6462
(dp6463
g67
(dp6464
g75
I3
ssg76
g6458
sg69
(lp6465
S''
asbasbasbag62
(g78
g64
NtRp6466
(dp6467
g67
(dp6468
sg76
g6362
sg69
(lp6469
g62
(g83
g64
NtRp6470
(dp6471
g67
(dp6472
g87
g88
ssg76
g6466
sg69
(lp6473
g404
asbag62
(g83
g64
NtRp6474
(dp6475
g67
(dp6476
g94
g95
ssg76
g6466
sg69
(lp6477
S':'
asbag62
(g83
g64
NtRp6478
(dp6479
g67
(dp6480
sg76
g6466
sg69
(lp6481
g62
(g63
g64
NtRp6482
(dp6483
g67
(dp6484
g75
I3
ssg76
g6478
sg69
(lp6485
S'/'
asbasbasbag62
(g78
g64
NtRp6486
(dp6487
g67
(dp6488
sg76
g6362
sg69
(lp6489
g62
(g83
g64
NtRp6490
(dp6491
g67
(dp6492
g87
g88
ssg76
g6486
sg69
(lp6493
g425
asbag62
(g83
g64
NtRp6494
(dp6495
g67
(dp6496
g94
g95
ssg76
g6486
sg69
(lp6497
S':'
asbag62
(g83
g64
NtRp6498
(dp6499
g67
(dp6500
sg76
g6486
sg69
(lp6501
g62
(g63
g64
NtRp6502
(dp6503
g67
(dp6504
g75
I3
ssg76
g6498
sg69
(lp6505
S''
asbasbasbag62
(g78
g64
NtRp6506
(dp6507
g67
(dp6508
sg76
g6362
sg69
(lp6509
g62
(g83
g64
NtRp6510
(dp6511
g67
(dp6512
g87
g88
ssg76
g6506
sg69
(lp6513
g446
asbag62
(g83
g64
NtRp6514
(dp6515
g67
(dp6516
g94
g95
ssg76
g6506
sg69
(lp6517
S':'
asbag62
(g83
g64
NtRp6518
(dp6519
g67
(dp6520
sg76
g6506
sg69
(lp6521
g62
(g63
g64
NtRp6522
(dp6523
g67
(dp6524
g75
I3
ssg76
g6518
sg69
(lp6525
S''
asbasbasbasbasbasbasbasbasbasbasbag62
(g78
g64
NtRp6526
(dp6527
g67
(dp6528
sg76
g6292
sg69
(lp6529
g62
(g83
g64
NtRp6530
(dp6531
g67
(dp6532
g87
g88
ssg76
g6526
sg69
(lp6533
S'delimiters'
p6534
asbag62
(g83
g64
NtRp6535
(dp6536
g67
(dp6537
g94
g95
ssg76
g6526
sg69
(lp6538
S':'
asbag62
(g83
g64
NtRp6539
(dp6540
g67
(dp6541
sg76
g6526
sg69
(lp6542
g62
(g63
g64
NtRp6543
(dp6544
g67
(dp6545
g75
I5
ssg76
g6539
sg69
(lp6546
g62
(g71
g64
NtRp6547
(dp6548
g67
(dp6549
g75
I4
ssg76
Nsg69
(lp6550
g62
(g78
g64
NtRp6551
(dp6552
g67
(dp6553
sg76
g6547
sg69
(lp6554
g62
(g83
g64
NtRp6555
(dp6556
g67
(dp6557
sg76
g6551
sg69
(lp6558
g62
(g63
g64
NtRp6559
(dp6560
g67
(dp6561
g75
I4
ssg76
g6555
sg69
(lp6562
S'{{'
p6563
asbasbasbag62
(g78
g64
NtRp6564
(dp6565
g67
(dp6566
sg76
g6547
sg69
(lp6567
g62
(g83
g64
NtRp6568
(dp6569
g67
(dp6570
sg76
g6564
sg69
(lp6571
g62
(g63
g64
NtRp6572
(dp6573
g67
(dp6574
g75
I4
ssg76
g6568
sg69
(lp6575
S'}}'
p6576
asbasbasbasbasbasbasbag62
(g78
g64
NtRp6577
(dp6578
g67
(dp6579
sg76
g6292
sg69
(lp6580
g62
(g83
g64
NtRp6581
(dp6582
g67
(dp6583
g87
g88
ssg76
g6577
sg69
(lp6584
S'files'
p6585
asbag62
(g83
g64
NtRp6586
(dp6587
g67
(dp6588
g94
g95
ssg76
g6577
sg69
(lp6589
S':'
asbag62
(g83
g64
NtRp6590
(dp6591
g67
(dp6592
sg76
g6577
sg69
(lp6593
g62
(g63
g64
NtRp6594
(dp6595
g67
(dp6596
g75
I5
ssg76
g6590
sg69
(lp6597
g62
(g71
g64
NtRp6598
(dp6599
g67
(dp6600
g75
I4
ssg76
Nsg69
(lp6601
g62
(g78
g64
NtRp6602
(dp6603
g67
(dp6604
sg76
g6598
sg69
(lp6605
g62
(g83
g64
NtRp6606
(dp6607
g67
(dp6608
sg76
g6602
sg69
(lp6609
g62
(g63
g64
NtRp6610
(dp6611
g67
(dp6612
g75
I4
ssg76
g6606
sg69
(lp6613
S'/admin/static/plugin_multiselect/jquery.multi-select.js'
p6614
asbasbasbag62
(g78
g64
NtRp6615
(dp6616
g67
(dp6617
sg76
g6598
sg69
(lp6618
g62
(g83
g64
NtRp6619
(dp6620
g67
(dp6621
sg76
g6615
sg69
(lp6622
g62
(g63
g64
NtRp6623
(dp6624
g67
(dp6625
g75
I4
ssg76
g6619
sg69
(lp6626
S'/admin/static/plugin_multiselect/multi-select.css'
p6627
asbasbasbag62
(g78
g64
NtRp6628
(dp6629
g67
(dp6630
sg76
g6598
sg69
(lp6631
g62
(g83
g64
NtRp6632
(dp6633
g67
(dp6634
sg76
g6628
sg69
(lp6635
g62
(g63
g64
NtRp6636
(dp6637
g67
(dp6638
g75
I4
ssg76
g6632
sg69
(lp6639
S'/admin/static/plugin_multiselect/start.js'
p6640
asbasbasbasbasbasbasbag62
(g78
g64
NtRp6641
(dp6642
g67
(dp6643
sg76
g6292
sg69
(lp6644
g62
(g83
g64
NtRp6645
(dp6646
g67
(dp6647
g87
g88
ssg76
g6641
sg69
(lp6648
S'flash'
p6649
asbag62
(g83
g64
NtRp6650
(dp6651
g67
(dp6652
g94
g95
ssg76
g6641
sg69
(lp6653
S':'
asbag62
(g83
g64
NtRp6654
(dp6655
g67
(dp6656
sg76
g6641
sg69
(lp6657
g62
(g63
g64
NtRp6658
(dp6659
g67
(dp6660
g75
I5
ssg76
g6654
sg69
(lp6661
S''
asbasbasbag62
(g78
g64
NtRp6662
(dp6663
g67
(dp6664
sg76
g6292
sg69
(lp6665
g62
(g83
g64
NtRp6666
(dp6667
g67
(dp6668
g87
g88
ssg76
g6662
sg69
(lp6669
S'generic_patterns'
p6670
asbag62
(g83
g64
NtRp6671
(dp6672
g67
(dp6673
g94
g95
ssg76
g6662
sg69
(lp6674
S':'
asbag62
(g83
g64
NtRp6675
(dp6676
g67
(dp6677
sg76
g6662
sg69
(lp6678
g62
(g63
g64
NtRp6679
(dp6680
g67
(dp6681
g75
I5
ssg76
g6675
sg69
(lp6682
g62
(g71
g64
NtRp6683
(dp6684
g67
(dp6685
g75
I4
ssg76
Nsg69
(lp6686
sbasbasbasbag62
(g78
g64
NtRp6687
(dp6688
g67
(dp6689
sg76
g6292
sg69
(lp6690
g62
(g83
g64
NtRp6691
(dp6692
g67
(dp6693
g87
g88
ssg76
g6687
sg69
(lp6694
S'headers'
p6695
asbag62
(g83
g64
NtRp6696
(dp6697
g67
(dp6698
g94
g95
ssg76
g6687
sg69
(lp6699
S':'
asbag62
(g83
g64
NtRp6700
(dp6701
g67
(dp6702
sg76
g6687
sg69
(lp6703
g62
(g63
g64
NtRp6704
(dp6705
g67
(dp6706
g75
I5
ssg76
g6700
sg69
(lp6707
g62
(g71
g64
NtRp6708
(dp6709
g67
(dp6710
g75
I4
ssg76
Nsg69
(lp6711
g62
(g78
g64
NtRp6712
(dp6713
g67
(dp6714
sg76
g6708
sg69
(lp6715
g62
(g83
g64
NtRp6716
(dp6717
g67
(dp6718
g87
g88
ssg76
g6712
sg69
(lp6719
S'X-Powered-By'
p6720
asbag62
(g83
g64
NtRp6721
(dp6722
g67
(dp6723
g94
g95
ssg76
g6712
sg69
(lp6724
S':'
asbag62
(g83
g64
NtRp6725
(dp6726
g67
(dp6727
sg76
g6712
sg69
(lp6728
g62
(g63
g64
NtRp6729
(dp6730
g67
(dp6731
g75
I4
ssg76
g6725
sg69
(lp6732
S'web2py'
p6733
asbasbasbasbasbasbasbag62
(g78
g64
NtRp6734
(dp6735
g67
(dp6736
sg76
g6292
sg69
(lp6737
g62
(g83
g64
NtRp6738
(dp6739
g67
(dp6740
g87
g88
ssg76
g6734
sg69
(lp6741
S'menu'
p6742
asbag62
(g83
g64
NtRp6743
(dp6744
g67
(dp6745
g94
g95
ssg76
g6734
sg69
(lp6746
S':'
asbag62
(g83
g64
NtRp6747
(dp6748
g67
(dp6749
sg76
g6734
sg69
(lp6750
g62
(g63
g64
NtRp6751
(dp6752
g67
(dp6753
g75
I5
ssg76
g6747
sg69
(lp6754
g62
(g71
g64
NtRp6755
(dp6756
g67
(dp6757
g75
I4
ssg76
Nsg69
(lp6758
g62
(g78
g64
NtRp6759
(dp6760
g67
(dp6761
sg76
g6755
sg69
(lp6762
g62
(g83
g64
NtRp6763
(dp6764
g67
(dp6765
sg76
g6759
sg69
(lp6766
g62
(g63
g64
NtRp6767
(dp6768
g67
(dp6769
g75
I4
ssg76
g6763
sg69
(lp6770
g62
(g71
g64
NtRp6771
(dp6772
g67
(dp6773
g75
I3
ssg76
Nsg69
(lp6774
g62
(g78
g64
NtRp6775
(dp6776
g67
(dp6777
sg76
g6771
sg69
(lp6778
g62
(g83
g64
NtRp6779
(dp6780
g67
(dp6781
sg76
g6775
sg69
(lp6782
g62
(g63
g64
NtRp6783
(dp6784
g67
(dp6785
g75
I3
ssg76
g6779
sg69
(lp6786
cgluon.languages
lazyT_unpickle
p6787
(S's\x04\x00\x00\x00Site'
tRp6788
asbasbasbag62
(g78
g64
NtRp6789
(dp6790
g67
(dp6791
sg76
g6771
sg69
(lp6792
g62
(g83
g64
NtRp6793
(dp6794
g67
(dp6795
sg76
g6789
sg69
(lp6796
g62
(g63
g64
NtRp6797
(dp6798
g67
(dp6799
g75
I3
ssg76
g6793
sg69
(lp6800
g105
asbasbasbag62
(g78
g64
NtRp6801
(dp6802
g67
(dp6803
sg76
g6771
sg69
(lp6804
g62
(g83
g64
NtRp6805
(dp6806
g67
(dp6807
sg76
g6801
sg69
(lp6808
g62
(g63
g64
NtRp6809
(dp6810
g67
(dp6811
g75
I3
ssg76
g6805
sg69
(lp6812
S'/admin/default/site'
p6813
asbasbasbasbasbasbasbag62
(g78
g64
NtRp6814
(dp6815
g67
(dp6816
sg76
g6755
sg69
(lp6817
g62
(g83
g64
NtRp6818
(dp6819
g67
(dp6820
sg76
g6814
sg69
(lp6821
g62
(g63
g64
NtRp6822
(dp6823
g67
(dp6824
g75
I4
ssg76
g6818
sg69
(lp6825
g62
(g71
g64
NtRp6826
(dp6827
g67
(dp6828
g75
I3
ssg76
Nsg69
(lp6829
g62
(g78
g64
NtRp6830
(dp6831
g67
(dp6832
sg76
g6826
sg69
(lp6833
g62
(g83
g64
NtRp6834
(dp6835
g67
(dp6836
sg76
g6830
sg69
(lp6837
g62
(g63
g64
NtRp6838
(dp6839
g67
(dp6840
g75
I3
ssg76
g6834
sg69
(lp6841
g6787
(S's\x06\x00\x00\x00Logout'
tRp6842
asbasbasbag62
(g78
g64
NtRp6843
(dp6844
g67
(dp6845
sg76
g6826
sg69
(lp6846
g62
(g83
g64
NtRp6847
(dp6848
g67
(dp6849
sg76
g6843
sg69
(lp6850
g62
(g63
g64
NtRp6851
(dp6852
g67
(dp6853
g75
I3
ssg76
g6847
sg69
(lp6854
g105
asbasbasbag62
(g78
g64
NtRp6855
(dp6856
g67
(dp6857
sg76
g6826
sg69
(lp6858
g62
(g83
g64
NtRp6859
(dp6860
g67
(dp6861
sg76
g6855
sg69
(lp6862
g62
(g63
g64
NtRp6863
(dp6864
g67
(dp6865
g75
I3
ssg76
g6859
sg69
(lp6866
S'/admin/default/logout'
p6867
asbasbasbasbasbasbasbag62
(g78
g64
NtRp6868
(dp6869
g67
(dp6870
sg76
g6755
sg69
(lp6871
g62
(g83
g64
NtRp6872
(dp6873
g67
(dp6874
sg76
g6868
sg69
(lp6875
g62
(g63
g64
NtRp6876
(dp6877
g67
(dp6878
g75
I4
ssg76
g6872
sg69
(lp6879
g62
(g71
g64
NtRp6880
(dp6881
g67
(dp6882
g75
I3
ssg76
Nsg69
(lp6883
g62
(g78
g64
NtRp6884
(dp6885
g67
(dp6886
sg76
g6880
sg69
(lp6887
g62
(g83
g64
NtRp6888
(dp6889
g67
(dp6890
sg76
g6884
sg69
(lp6891
g62
(g63
g64
NtRp6892
(dp6893
g67
(dp6894
g75
I3
ssg76
g6888
sg69
(lp6895
g6787
(S's\x05\x00\x00\x00Debug'
tRp6896
asbasbasbag62
(g78
g64
NtRp6897
(dp6898
g67
(dp6899
sg76
g6880
sg69
(lp6900
g62
(g83
g64
NtRp6901
(dp6902
g67
(dp6903
sg76
g6897
sg69
(lp6904
g62
(g63
g64
NtRp6905
(dp6906
g67
(dp6907
g75
I3
ssg76
g6901
sg69
(lp6908
g105
asbasbasbag62
(g78
g64
NtRp6909
(dp6910
g67
(dp6911
sg76
g6880
sg69
(lp6912
g62
(g83
g64
NtRp6913
(dp6914
g67
(dp6915
sg76
g6909
sg69
(lp6916
g62
(g63
g64
NtRp6917
(dp6918
g67
(dp6919
g75
I3
ssg76
g6913
sg69
(lp6920
S'/admin/debug/interact'
p6921
asbasbasbasbasbasbasbag62
(g78
g64
NtRp6922
(dp6923
g67
(dp6924
sg76
g6755
sg69
(lp6925
g62
(g83
g64
NtRp6926
(dp6927
g67
(dp6928
sg76
g6922
sg69
(lp6929
g62
(g63
g64
NtRp6930
(dp6931
g67
(dp6932
g75
I4
ssg76
g6926
sg69
(lp6933
g62
(g71
g64
NtRp6934
(dp6935
g67
(dp6936
g75
I3
ssg76
Nsg69
(lp6937
g62
(g78
g64
NtRp6938
(dp6939
g67
(dp6940
sg76
g6934
sg69
(lp6941
g62
(g83
g64
NtRp6942
(dp6943
g67
(dp6944
sg76
g6938
sg69
(lp6945
g62
(g63
g64
NtRp6946
(dp6947
g67
(dp6948
g75
I3
ssg76
g6942
sg69
(lp6949
g6787
(S's\x04\x00\x00\x00Help'
tRp6950
asbasbasbag62
(g78
g64
NtRp6951
(dp6952
g67
(dp6953
sg76
g6934
sg69
(lp6954
g62
(g83
g64
NtRp6955
(dp6956
g67
(dp6957
sg76
g6951
sg69
(lp6958
g62
(g63
g64
NtRp6959
(dp6960
g67
(dp6961
g75
I3
ssg76
g6955
sg69
(lp6962
g105
asbasbasbag62
(g78
g64
NtRp6963
(dp6964
g67
(dp6965
sg76
g6934
sg69
(lp6966
g62
(g83
g64
NtRp6967
(dp6968
g67
(dp6969
sg76
g6963
sg69
(lp6970
g62
(g63
g64
NtRp6971
(dp6972
g67
(dp6973
g75
I3
ssg76
g6967
sg69
(lp6974
S'http://web2py.com/examples'
p6975
asbasbasbasbasbasbasbasbasbasbasbag62
(g78
g64
NtRp6976
(dp6977
g67
(dp6978
sg76
g6292
sg69
(lp6979
g62
(g83
g64
NtRp6980
(dp6981
g67
(dp6982
g87
g88
ssg76
g6976
sg69
(lp6983
S'meta'
p6984
asbag62
(g83
g64
NtRp6985
(dp6986
g67
(dp6987
g94
g95
ssg76
g6976
sg69
(lp6988
S':'
asbag62
(g83
g64
NtRp6989
(dp6990
g67
(dp6991
sg76
g6976
sg69
(lp6992
g62
(g63
g64
NtRp6993
(dp6994
g67
(dp6995
g75
I5
ssg76
g6989
sg69
(lp6996
g62
(g71
g64
NtRp6997
(dp6998
g67
(dp6999
g75
I4
ssg76
Nsg69
(lp7000
sbasbasbasbag62
(g78
g64
NtRp7001
(dp7002
g67
(dp7003
sg76
g6292
sg69
(lp7004
g62
(g83
g64
NtRp7005
(dp7006
g67
(dp7007
g87
g88
ssg76
g7001
sg69
(lp7008
S'models_to_run'
p7009
asbag62
(g83
g64
NtRp7010
(dp7011
g67
(dp7012
g94
g95
ssg76
g7001
sg69
(lp7013
S':'
asbag62
(g83
g64
NtRp7014
(dp7015
g67
(dp7016
sg76
g7001
sg69
(lp7017
g62
(g63
g64
NtRp7018
(dp7019
g67
(dp7020
g75
I5
ssg76
g7014
sg69
(lp7021
g62
(g71
g64
NtRp7022
(dp7023
g67
(dp7024
g75
I4
ssg76
Nsg69
(lp7025
g62
(g78
g64
NtRp7026
(dp7027
g67
(dp7028
sg76
g7022
sg69
(lp7029
g62
(g83
g64
NtRp7030
(dp7031
g67
(dp7032
sg76
g7026
sg69
(lp7033
g62
(g63
g64
NtRp7034
(dp7035
g67
(dp7036
g75
I4
ssg76
g7030
sg69
(lp7037
S'^\\w+\\.py$'
p7038
asbasbasbag62
(g78
g64
NtRp7039
(dp7040
g67
(dp7041
sg76
g7022
sg69
(lp7042
g62
(g83
g64
NtRp7043
(dp7044
g67
(dp7045
sg76
g7039
sg69
(lp7046
g62
(g63
g64
NtRp7047
(dp7048
g67
(dp7049
g75
I4
ssg76
g7043
sg69
(lp7050
S'^wizard/\\w+\\.py$'
p7051
asbasbasbag62
(g78
g64
NtRp7052
(dp7053
g67
(dp7054
sg76
g7022
sg69
(lp7055
g62
(g83
g64
NtRp7056
(dp7057
g67
(dp7058
sg76
g7052
sg69
(lp7059
g62
(g63
g64
NtRp7060
(dp7061
g67
(dp7062
g75
I4
ssg76
g7056
sg69
(lp7063
S'^wizard/step6/\\w+\\.py$'
p7064
asbasbasbasbasbasbasbag62
(g78
g64
NtRp7065
(dp7066
g67
(dp7067
sg76
g6292
sg69
(lp7068
g62
(g83
g64
NtRp7069
(dp7070
g67
(dp7071
g87
g88
ssg76
g7065
sg69
(lp7072
S'postprocessing'
p7073
asbag62
(g83
g64
NtRp7074
(dp7075
g67
(dp7076
g94
g95
ssg76
g7065
sg69
(lp7077
S':'
asbag62
(g83
g64
NtRp7078
(dp7079
g67
(dp7080
sg76
g7065
sg69
(lp7081
g62
(g63
g64
NtRp7082
(dp7083
g67
(dp7084
g75
I5
ssg76
g7078
sg69
(lp7085
g62
(g71
g64
NtRp7086
(dp7087
g67
(dp7088
g75
I4
ssg76
Nsg69
(lp7089
sbasbasbasbag62
(g78
g64
NtRp7090
(dp7091
g67
(dp7092
sg76
g6292
sg69
(lp7093
g62
(g83
g64
NtRp7094
(dp7095
g67
(dp7096
g87
g88
ssg76
g7090
sg69
(lp7097
S'session_file'
p7098
asbag62
(g83
g64
NtRp7099
(dp7100
g67
(dp7101
g94
g95
ssg76
g7090
sg69
(lp7102
S':'
asbag62
(g83
g64
NtRp7103
(dp7104
g67
(dp7105
sg76
g7090
sg69
(lp7106
g62
(g63
g64
NtRp7107
(dp7108
g67
(dp7109
g75
I5
ssg76
g7103
sg69
(lp7110
S"<open file 'C:\\Users\\admin\\Desktop\\Sathvik\\Tharuni.Org\\applications\\admin\\sessions\\127.0.0.1-b09474c4-74c6-4bff-864d-e3d6c3b6e87e', mode 'rb+' at 0x0000000008724660>"
p7111
asbasbasbag62
(g78
g64
NtRp7112
(dp7113
g67
(dp7114
sg76
g6292
sg69
(lp7115
g62
(g83
g64
NtRp7116
(dp7117
g67
(dp7118
g87
g88
ssg76
g7112
sg69
(lp7119
S'session_filename'
p7120
asbag62
(g83
g64
NtRp7121
(dp7122
g67
(dp7123
g94
g95
ssg76
g7112
sg69
(lp7124
S':'
asbag62
(g83
g64
NtRp7125
(dp7126
g67
(dp7127
sg76
g7112
sg69
(lp7128
g62
(g63
g64
NtRp7129
(dp7130
g67
(dp7131
g75
I5
ssg76
g7125
sg69
(lp7132
S'C:\\Users\\admin\\Desktop\\Sathvik\\Tharuni.Org\\applications\\admin\\sessions\\127.0.0.1-b09474c4-74c6-4bff-864d-e3d6c3b6e87e'
p7133
asbasbasbag62
(g78
g64
NtRp7134
(dp7135
g67
(dp7136
sg76
g6292
sg69
(lp7137
g62
(g83
g64
NtRp7138
(dp7139
g67
(dp7140
g87
g88
ssg76
g7134
sg69
(lp7141
S'session_id'
p7142
asbag62
(g83
g64
NtRp7143
(dp7144
g67
(dp7145
g94
g95
ssg76
g7134
sg69
(lp7146
S':'
asbag62
(g83
g64
NtRp7147
(dp7148
g67
(dp7149
sg76
g7134
sg69
(lp7150
g62
(g63
g64
NtRp7151
(dp7152
g67
(dp7153
g75
I5
ssg76
g7147
sg69
(lp7154
g286
asbasbasbag62
(g78
g64
NtRp7155
(dp7156
g67
(dp7157
sg76
g6292
sg69
(lp7158
g62
(g83
g64
NtRp7159
(dp7160
g67
(dp7161
g87
g88
ssg76
g7155
sg69
(lp7162
S'session_id_name'
p7163
asbag62
(g83
g64
NtRp7164
(dp7165
g67
(dp7166
g94
g95
ssg76
g7155
sg69
(lp7167
S':'
asbag62
(g83
g64
NtRp7168
(dp7169
g67
(dp7170
sg76
g7155
sg69
(lp7171
g62
(g63
g64
NtRp7172
(dp7173
g67
(dp7174
g75
I5
ssg76
g7168
sg69
(lp7175
g6349
asbasbasbag62
(g78
g64
NtRp7176
(dp7177
g67
(dp7178
sg76
g6292
sg69
(lp7179
g62
(g83
g64
NtRp7180
(dp7181
g67
(dp7182
g87
g88
ssg76
g7176
sg69
(lp7183
S'session_locked'
p7184
asbag62
(g83
g64
NtRp7185
(dp7186
g67
(dp7187
g94
g95
ssg76
g7176
sg69
(lp7188
S':'
asbag62
(g83
g64
NtRp7189
(dp7190
g67
(dp7191
sg76
g7176
sg69
(lp7192
g62
(g63
g64
NtRp7193
(dp7194
g67
(dp7195
g75
I5
ssg76
g7189
sg69
(lp7196
g1693
asbasbasbag62
(g78
g64
NtRp7197
(dp7198
g67
(dp7199
sg76
g6292
sg69
(lp7200
g62
(g83
g64
NtRp7201
(dp7202
g67
(dp7203
g87
g88
ssg76
g7197
sg69
(lp7204
S'session_new'
p7205
asbag62
(g83
g64
NtRp7206
(dp7207
g67
(dp7208
g94
g95
ssg76
g7197
sg69
(lp7209
S':'
asbag62
(g83
g64
NtRp7210
(dp7211
g67
(dp7212
sg76
g7197
sg69
(lp7213
g62
(g63
g64
NtRp7214
(dp7215
g67
(dp7216
g75
I5
ssg76
g7210
sg69
(lp7217
g105
asbasbasbag62
(g78
g64
NtRp7218
(dp7219
g67
(dp7220
sg76
g6292
sg69
(lp7221
g62
(g83
g64
NtRp7222
(dp7223
g67
(dp7224
g87
g88
ssg76
g7218
sg69
(lp7225
S'status'
p7226
asbag62
(g83
g64
NtRp7227
(dp7228
g67
(dp7229
g94
g95
ssg76
g7218
sg69
(lp7230
S':'
asbag62
(g83
g64
NtRp7231
(dp7232
g67
(dp7233
sg76
g7218
sg69
(lp7234
g62
(g63
g64
NtRp7235
(dp7236
g67
(dp7237
g75
I5
ssg76
g7231
sg69
(lp7238
S'200'
p7239
asbasbasbag62
(g78
g64
NtRp7240
(dp7241
g67
(dp7242
sg76
g6292
sg69
(lp7243
g62
(g83
g64
NtRp7244
(dp7245
g67
(dp7246
g87
g88
ssg76
g7240
sg69
(lp7247
S'subtitle'
p7248
asbag62
(g83
g64
NtRp7249
(dp7250
g67
(dp7251
g94
g95
ssg76
g7240
sg69
(lp7252
S':'
asbag62
(g83
g64
NtRp7253
(dp7254
g67
(dp7255
sg76
g7240
sg69
(lp7256
g62
(g63
g64
NtRp7257
(dp7258
g67
(dp7259
g75
I5
ssg76
g7253
sg69
(lp7260
S'admin'
p7261
asbasbasbag62
(g78
g64
NtRp7262
(dp7263
g67
(dp7264
sg76
g6292
sg69
(lp7265
g62
(g83
g64
NtRp7266
(dp7267
g67
(dp7268
g87
g88
ssg76
g7262
sg69
(lp7269
S'title'
p7270
asbag62
(g83
g64
NtRp7271
(dp7272
g67
(dp7273
g94
g95
ssg76
g7262
sg69
(lp7274
S':'
asbag62
(g83
g64
NtRp7275
(dp7276
g67
(dp7277
sg76
g7262
sg69
(lp7278
g62
(g63
g64
NtRp7279
(dp7280
g67
(dp7281
g75
I5
ssg76
g7275
sg69
(lp7282
S'step6 '
p7283
asbasbasbag62
(g78
g64
NtRp7284
(dp7285
g67
(dp7286
sg76
g6292
sg69
(lp7287
g62
(g83
g64
NtRp7288
(dp7289
g67
(dp7290
g87
g88
ssg76
g7284
sg69
(lp7291
S'view'
p7292
asbag62
(g83
g64
NtRp7293
(dp7294
g67
(dp7295
g94
g95
ssg76
g7284
sg69
(lp7296
S':'
asbag62
(g83
g64
NtRp7297
(dp7298
g67
(dp7299
sg76
g7284
sg69
(lp7300
g62
(g63
g64
NtRp7301
(dp7302
g67
(dp7303
g75
I5
ssg76
g7297
sg69
(lp7304
S'wizard/step.html'
p7305
asbasbasbasbasbsS'locals'
p7306
(dp7307
S'mode'
p7308
S"'rb'"
p7309
sg35
S"r'C:\\Users\\admin\\Desktop\\Sathvik\\Tharuni.Org\\applications\\admin\\..\\tharuni\\models\\db.py'"
p7310
sssS'traceback'
p7311
S'Traceback (most recent call last):\n  File "C:\\Users\\admin\\Desktop\\Sathvik\\Tharuni.Org\\gluon\\restricted.py", line 209, in restricted\n    exec ccode in environment\n  File "C:\\Users\\admin\\Desktop\\Sathvik\\Tharuni.Org\\applications\\admin\\controllers/wizard.py", line 560, in <module>\n  File "C:\\Users\\admin\\Desktop\\Sathvik\\Tharuni.Org\\gluon\\globals.py", line 186, in <lambda>\n    self._caller = lambda f: f()\n  File "C:\\Users\\admin\\Desktop\\Sathvik\\Tharuni.Org\\applications\\admin\\controllers/wizard.py", line 228, in step6\n    create(form.vars)\n  File "C:\\Users\\admin\\Desktop\\Sathvik\\Tharuni.Org\\applications\\admin\\controllers/wizard.py", line 501, in create\n    fix_db(model)\n  File "C:\\Users\\admin\\Desktop\\Sathvik\\Tharuni.Org\\applications\\admin\\controllers/wizard.py", line 368, in fix_db\n    content = read_file(filename,\'rb\')\n  File "C:\\Users\\admin\\Desktop\\Sathvik\\Tharuni.Org\\gluon\\fileutils.py", line 55, in read_file\n    f = open(filename, mode)\nIOError: [Errno 2] No such file or directory: \'C:\\\\Users\\\\admin\\\\Desktop\\\\Sathvik\\\\Tharuni.Org\\\\applications\\\\admin\\\\..\\\\tharuni\\\\models\\\\db.py\'\n'
p7312
s.