(dp1
S'output'
p2
S"<type 'exceptions.IOError'> [Errno 2] No such file or directory: 'C:/Users/admin/Desktop/Sathvik/Tharuni.Org/applications/init/ABOUT'"
p3
sS'layer'
p4
S'C:\\Users\\admin\\Desktop\\Sathvik\\Tharuni.Org\\applications\\admin\\controllers/default.py'
p5
sS'code'
p6
S'# coding: utf8\n\nEXPERIMENTAL_STUFF = True\n\nif EXPERIMENTAL_STUFF:\n    is_mobile = request.user_agent().is_mobile\n    if is_mobile:\n        response.view = response.view.replace(\'default/\',\'default.mobile/\')\n        response.menu = []\n\nimport re\nfrom gluon.admin import *\nfrom gluon.fileutils import abspath, read_file, write_file\nfrom gluon.utils import web2py_uuid\nfrom glob import glob\nimport shutil\nimport platform\ntry:\n    from git import *\n    have_git = True\nexcept ImportError:\n    have_git = False\n    GIT_MISSING = \'requires gitpython module, but not installed or incompatible version\'\n\nfrom gluon.languages import (read_possible_languages, read_dict, write_dict,\n                             read_plural_dict, write_plural_dict)\n\n\nif DEMO_MODE and request.function in [\'change_password\',\'pack\',\'pack_plugin\',\'upgrade_web2py\',\'uninstall\',\'cleanup\',\'compile_app\',\'remove_compiled_app\',\'delete\',\'delete_plugin\',\'create_file\',\'upload_file\',\'update_languages\',\'reload_routes\',\'git_push\',\'git_pull\']:\n    session.flash = T(\'disabled in demo mode\')\n    redirect(URL(\'site\'))\n\n\nif not is_manager() and request.function in [\'change_password\',\'upgrade_web2py\']:\n    session.flash = T(\'disabled in multi user mode\')\n    redirect(URL(\'site\'))\n\nif FILTER_APPS and request.args(0) and not request.args(0) in FILTER_APPS:\n    session.flash = T(\'disabled in demo mode\')\n    redirect(URL(\'site\'))\n\n\nif not session.token: session.token = web2py_uuid()\n\ndef count_lines(data):\n    return len([line for line in data.split(\'\\n\') if line.strip() and not line.startswith(\'#\')])\n\ndef log_progress(app,mode=\'EDIT\',filename=None,progress=0):\n    progress_file = os.path.join(apath(app, r=request), \'progress.log\')\n    now = str(request.now)[:19]\n    if not os.path.exists(progress_file):\n        safe_open(progress_file,\'w\').write(\'[%s] START\\n\' % now)\n    if filename:\n        safe_open(progress_file,\'a\').write(\'[%s] %s %s: %s\\n\' % (now,mode,filename,progress))\n\ndef safe_open(a,b):\n    if DEMO_MODE and (\'w\' in b or \'a\' in b):\n        class tmp:\n            def write(self,data): pass\n        return tmp()\n    return open(a,b)\n\ndef safe_read(a, b=\'r\'):\n    safe_file = safe_open(a, b)\n    try:\n        return safe_file.read()\n    finally:\n        safe_file.close()\n\ndef safe_write(a, value, b=\'w\'):\n    safe_file = safe_open(a, b)\n    try:\n        safe_file.write(value)\n    finally:\n        safe_file.close()\n\ndef get_app(name=None):\n    app = name or request.args(0)\n    if app and (not MULTI_USER_MODE or is_manager() or \\\n                    db(db.app.name==app)(db.app.owner==auth.user.id).count()):\n        return app\n    session.flash = T(\'App does not exist or your are not authorized\')\n    redirect(URL(\'site\'))\n\ndef index():\n    """ Index handler """\n\n    send = request.vars.send\n    if DEMO_MODE:\n        session.authorized = True\n        session.last_time = t0\n    if not send:\n        send = URL(\'site\')\n    if session.authorized:\n        redirect(send)\n    elif request.vars.password:\n        if verify_password(request.vars.password):\n            session.authorized = True\n            login_record(True)\n\n            if CHECK_VERSION:\n                session.check_version = True\n            else:\n                session.check_version = False\n\n            session.last_time = t0\n            if isinstance(send, list):  # ## why does this happen?\n                send = str(send[0])\n\n            redirect(send)\n        else:\n            times_denied = login_record(False)\n            if times_denied >= allowed_number_of_attempts:\n                response.flash = \\\n                    T(\'admin disabled because too many invalid login attempts\')\n            elif times_denied == allowed_number_of_attempts - 1:\n                response.flash = \\\n                    T(\'You have one more login attempt before you are locked out\')\n            else:\n                response.flash = T(\'invalid password.\')\n    return dict(send=send)\n\n\ndef check_version():\n    """ Checks if web2py is up to date """\n\n    session.forget()\n    session._unlock(response)\n\n    new_version, version_number = check_new_version(request.env.web2py_version,\n                                    WEB2PY_VERSION_URL)\n\n    if new_version == -1:\n        return A(T(\'Unable to check for upgrades\'), _href=WEB2PY_URL)\n    elif new_version != True:\n        return A(T(\'web2py is up to date\'), _href=WEB2PY_URL)\n    elif platform.system().lower() in (\'windows\',\'win32\',\'win64\') and os.path.exists("web2py.exe"):\n        return SPAN(\'You should upgrade to version %s.%s.%s\' % version_number[:3])\n    else:\n        return sp_button(URL(\'upgrade_web2py\'), T(\'upgrade now\')) \\\n            + XML(\' <strong class="upgrade_version">%s.%s.%s</strong>\' \\\n                      % version_number[:3])\n\ndef logout():\n    """ Logout handler """\n    session.authorized = None\n    if MULTI_USER_MODE:\n        redirect(URL(\'user/logout\'))\n    redirect(URL(\'index\'))\n\n\ndef change_password():\n\n    if session.pam_user:\n        session.flash = T(\'PAM authenticated user, cannot change password here\')\n        redirect(URL(\'site\'))\n    form=SQLFORM.factory(Field(\'current_admin_password\',\'password\'),\n                         Field(\'new_admin_password\',\'password\',requires=IS_STRONG()),\n                         Field(\'new_admin_password_again\',\'password\'))\n    if form.accepts(request.vars):\n        if not verify_password(request.vars.current_admin_password):\n            form.errors.current_admin_password = T(\'invalid password\')\n        elif form.vars.new_admin_password != form.vars.new_admin_password_again:\n            form.errors.new_admin_password_again = T(\'no match\')\n        else:\n            path = abspath(\'parameters_%s.py\' % request.env.server_port)\n            safe_write(path, \'password="%s"\' % CRYPT()(request.vars.new_admin_password)[0])\n            session.flash = T(\'password changed\')\n            redirect(URL(\'site\'))\n    return dict(form=form)\n\n\ndef site():\n    """ Site handler """\n\n    myversion = request.env.web2py_version\n\n    # Shortcut to make the elif statements more legible\n    file_or_appurl = \'file\' in request.vars or \'appurl\' in request.vars\n\n    class IS_VALID_APPNAME(object):\n        def __call__(self,value):\n            if not re.compile(\'\\w+\').match(value):\n                return (value,T(\'Invalid application name\'))\n            if not request.vars.overwrite and \\\n                    os.path.exists(os.path.join(apath(r=request),value)):\n                return (value,T(\'Application exists already\'))\n            return (value,None)\n\n    is_appname = IS_VALID_APPNAME()\n    form_create = SQLFORM.factory(Field(\'name\',requires=is_appname),\n                                  table_name=\'appcreate\')\n    form_update = SQLFORM.factory(Field(\'name\',requires=is_appname),\n                                  Field(\'file\',\'upload\',uploadfield=False),\n                                  Field(\'url\'),\n                                  Field(\'overwrite\',\'boolean\'),\n                                  table_name=\'appupdate\')\n    form_create.process()\n    form_update.process()\n\n    if DEMO_MODE:\n        pass\n\n    elif form_create.accepted:\n        # create a new application\n        appname = cleanpath(form_create.vars.name)\n        created, error = app_create(appname, request,info=True)\n        if created:\n            if MULTI_USER_MODE:\n                db.app.insert(name=appname,owner=auth.user.id)\n            log_progress(appname)\n            session.flash = T(\'new application "%s" created\', appname)\n            redirect(URL(\'design\',args=appname))\n        else:\n            session.flash = \\\n                DIV(T(\'unable to create application "%s"\' % appname),\n                    PRE(error))                      \n        redirect(URL(r=request))\n\n    elif form_update.accepted:\n        if (form_update.vars.url or \'\').endswith(\'.git\'):\n            if not have_git:\n                session.flash = GIT_MISSING\n                redirect(URL(r=request))\n            target = os.path.join(apath(r=request),form_update.vars.name)\n            try:\n                new_repo = Repo.clone_from(form_update.vars.url,target)\n                session.flash = T(\'new application "%s" imported\',\n                                  form_update.vars.name)\n            except GitCommandError, err:\n                session.flash = T(\'Invalid git repository specified.\')\n            redirect(URL(r=request))\n\n        elif form_update.vars.url:\n            # fetch an application via URL or file upload\n            try:\n                f = urllib.urlopen(form_update.vars.url)\n                if f.code == 404:\n                    raise Exception("404 file not found")\n            except Exception, e:\n                session.flash = \\\n                    DIV(T(\'Unable to download app because:\'),PRE(str(e)))\n                redirect(URL(r=request))\n            fname = form_update.vars.url\n            \n        elif form_update.accepted and form_update.vars.file:\n            fname = request.vars.file.filename\n            f = request.vars.file.file\n            \n        else:\n            session.flash = \'No file uploaded and no URL specified\'\n            redirect(URL(r=request))\n\n        if f:\n            appname = cleanpath(form_update.vars.name)\n            installed = app_install(appname, f, \n                                    request, fname,\n                                    overwrite=form_update.vars.overwrite)\n        if f and installed:\n            msg = \'application %(appname)s installed with md5sum: %(digest)s\'\n            if MULTI_USER_MODE:\n                db.app.insert(name=appname,owner=auth.user.id)\n            log_progress(appname)\n            session.flash = T(msg, dict(appname=appname,\n                                        digest=md5_hash(installed)))\n        elif f and form_update.vars.overwrite:\n            msg = \'unable to install application "%(appname)s"\'\n            session.flash = T(msg, dict(appname=form_update.vars.name))\n        else:\n            msg = \'unable to install application "%(appname)s"\'\n            session.flash = T(msg, dict(appname=form_update.vars.name))\n        redirect(URL(r=request))\n\n    regex = re.compile(\'^\\w+$\')\n\n    if is_manager():\n        apps = [f for f in os.listdir(apath(r=request)) if regex.match(f)]\n    else:\n        apps = [f.name for f in db(db.app.owner==auth.user_id).select()]\n\n    if FILTER_APPS:\n        apps = [f for f in apps if f in FILTER_APPS]\n\n    apps = sorted(apps,lambda a,b:cmp(a.upper(),b.upper()))\n\n    return dict(app=None, apps=apps, myversion=myversion, \n                form_create=form_create, form_update=form_update)\n\n\ndef report_progress(app):\n    import datetime\n    progress_file = os.path.join(apath(app, r=request), \'progress.log\')\n    regex = re.compile(\'\\[(.*?)\\][^\\:]+\\:\\s+(\\-?\\d+)\')\n    if not os.path.exists(progress_file):\n        return []\n    matches = regex.findall(open(progress_file,\'r\').read())\n    events,counter = [],0\n    for m in matches:\n        if not m: continue\n        days = -(request.now - datetime.datetime.strptime(m[0],\'%Y-%m-%d %H:%M:%S\')).days\n        counter += int(m[1])\n        events.append([days,counter])\n    return events\n\n\ndef pack():\n    app = get_app()\n\n    try:\n        if len(request.args) == 1:\n            fname = \'web2py.app.%s.w2p\' % app\n            filename = app_pack(app, request, raise_ex=True)\n        else:\n            fname = \'web2py.app.%s.compiled.w2p\' % app\n            filename = app_pack_compiled(app, request, raise_ex=True)\n    except Exception, e:\n        filename = None\n\n    if filename:\n        response.headers[\'Content-Type\'] = \'application/w2p\'\n        disposition = \'attachment; filename=%s\' % fname\n        response.headers[\'Content-Disposition\'] = disposition\n        return safe_read(filename, \'rb\')\n    else:\n        session.flash = T(\'internal error: %s\' % e)\n        redirect(URL(\'site\'))\n\ndef pack_plugin():\n    app = get_app()\n    if len(request.args) == 2:\n        fname = \'web2py.plugin.%s.w2p\' % request.args[1]\n        filename = plugin_pack(app, request.args[1], request)\n    if filename:\n        response.headers[\'Content-Type\'] = \'application/w2p\'\n        disposition = \'attachment; filename=%s\' % fname\n        response.headers[\'Content-Disposition\'] = disposition\n        return safe_read(filename, \'rb\')\n    else:\n        session.flash = T(\'internal error\')\n        redirect(URL(\'plugin\',args=request.args))\n\ndef upgrade_web2py():\n    dialog = FORM.confirm(T(\'Upgrade\'),\n                         {T(\'Cancel\'):URL(\'site\')})    \n    if dialog.accepted:\n        (success, error) = upgrade(request)\n        if success:\n            session.flash = T(\'web2py upgraded; please restart it\')\n        else:\n            session.flash = T(\'unable to upgrade because "%s"\', error)\n        redirect(URL(\'site\'))\n    return dict(dialog=dialog)\n\ndef uninstall():\n    app = get_app()\n\n    dialog = FORM.confirm(T(\'Uninstall\'),\n                         {T(\'Cancel\'):URL(\'site\')})\n    \n    if dialog.accepted:\n        if MULTI_USER_MODE:\n            if is_manager() and db(db.app.name==app).delete():\n                pass\n            elif db(db.app.name==app)(db.app.owner==auth.user.id).delete():\n                pass\n            else:\n                session.flash = T(\'no permission to uninstall "%s"\', app)\n                redirect(URL(\'site\'))\n        if app_uninstall(app, request):\n            session.flash = T(\'application "%s" uninstalled\', app)\n        else:\n            session.flash = T(\'unable to uninstall "%s"\', app)\n        redirect(URL(\'site\'))\n    return dict(app=app, dialog=dialog)\n\n\ndef cleanup():\n    app = get_app()\n    clean = app_cleanup(app, request)\n    if not clean:\n        session.flash = T("some files could not be removed")\n    else:\n        session.flash = T(\'cache, errors and sessions cleaned\')\n\n    redirect(URL(\'site\'))\n\n\ndef compile_app():\n    app = get_app()\n    c = app_compile(app, request)\n    if not c:\n        session.flash = T(\'application compiled\')\n    else:\n        session.flash = DIV(T(\'Cannot compile: there are errors in your app:\'),\n                              CODE(c))\n    redirect(URL(\'site\'))\n\n\ndef remove_compiled_app():\n    """ Remove the compiled application """\n    app = get_app()\n    remove_compiled_application(apath(app, r=request))\n    session.flash = T(\'compiled application removed\')\n    redirect(URL(\'site\'))\n\ndef delete():\n    """ Object delete handler """\n    app = get_app()\n    filename = \'/\'.join(request.args)\n    sender = request.vars.sender\n\n    if isinstance(sender, list):  # ## fix a problem with Vista\n        sender = sender[0]\n\n    if \'nodelete\' in request.vars:\n        redirect(URL(sender, anchor=request.vars.id))\n    elif \'delete\' in request.vars:\n        try:\n            full_path = apath(filename, r=request)\n            lineno = count_lines(open(full_path,\'r\').read())\n            os.unlink(full_path)\n            log_progress(app,\'DELETE\',filename,progress=-lineno)\n            session.flash = T(\'file "%(filename)s" deleted\',\n                              dict(filename=filename))\n        except Exception:\n            session.flash = T(\'unable to delete file "%(filename)s"\',\n                              dict(filename=filename))\n        redirect(URL(sender, anchor=request.vars.id2))\n    return dict(filename=filename, sender=sender)\n\ndef delete():\n    """ Object delete handler """\n    app = get_app()\n    filename = \'/\'.join(request.args)\n    sender = request.vars.sender\n\n    if isinstance(sender, list):  # ## fix a problem with Vista\n        sender = sender[0]\n\n    dialog = FORM.confirm(T(\'Delete\'),\n                         {T(\'Cancel\'):URL(sender, anchor=request.vars.id)})\n\n    if dialog.accepted:\n        try:\n            full_path = apath(filename, r=request)\n            lineno = count_lines(open(full_path,\'r\').read())\n            os.unlink(full_path)\n            log_progress(app,\'DELETE\',filename,progress=-lineno)\n            session.flash = T(\'file "%(filename)s" deleted\',\n                              dict(filename=filename))\n        except Exception:\n            session.flash = T(\'unable to delete file "%(filename)s"\',\n                              dict(filename=filename))\n        redirect(URL(sender, anchor=request.vars.id2))\n    return dict(dialog=dialog,filename=filename)\n\ndef enable():\n    app = get_app()\n    filename = os.path.join(apath(app, r=request),\'DISABLED\')\n    if is_gae:\n        return SPAN(T(\'Not supported\'),_style=\'color:yellow\')\n    elif os.path.exists(filename):\n        os.unlink(filename)\n        return SPAN(T(\'Disable\'),_style=\'color:green\')\n    else:\n        safe_open(filename,\'wb\').write(time.ctime())\n        return SPAN(T(\'Enable\'),_style=\'color:red\')\n\ndef peek():\n    """ Visualize object code """\n    app = get_app(request.vars.app)\n    filename = \'/\'.join(request.args)\n    if request.vars.app:\n        path = abspath(filename)\n    else:\n        path = apath(filename, r=request)\n    try:\n        data = safe_read(path).replace(\'\\r\',\'\')\n    except IOError:\n        session.flash = T(\'file does not exist\')\n        redirect(URL(\'site\'))\n\n    extension = filename[filename.rfind(\'.\') + 1:].lower()\n\n    return dict(app=app,\n                filename=filename,\n                data=data,\n                extension=extension)\n\ndef test():\n    """ Execute controller tests """\n    app = get_app()\n    if len(request.args) > 1:\n        file = request.args[1]\n    else:\n        file = \'.*\\.py\'\n\n    controllers = listdir(apath(\'%s/controllers/\' % app, r=request), file + \'$\')\n\n    return dict(app=app, controllers=controllers)\n\ndef keepalive():\n    return \'\'\n\ndef search():\n    keywords=request.vars.keywords or \'\'\n    app = get_app()\n    def match(filename,keywords):\n        filename=os.path.join(apath(app, r=request),filename)\n        if keywords in read_file(filename,\'rb\'):\n            return True\n        return False\n    path = apath(request.args[0], r=request)\n    files1 = glob(os.path.join(path,\'*/*.py\'))\n    files2 = glob(os.path.join(path,\'*/*.html\'))\n    files3 = glob(os.path.join(path,\'*/*/*.html\'))\n    files=[x[len(path)+1:].replace(\'\\\\\',\'/\') for x in files1+files2+files3 if match(x,keywords)]\n    return response.json(dict(files=files, message=T.M(\'Searching: **%s** %%{file}\', len(files))))\n\ndef edit():\n    """ File edit handler """\n    # Load json only if it is ajax edited...\n    app = get_app(request.vars.app)\n    filename = \'/\'.join(request.args)\n    if request.vars.app:\n        path = abspath(filename)\n    else:\n        path = apath(filename, r=request)\n     # Try to discover the file type\n    if filename[-3:] == \'.py\':\n        filetype = \'python\'\n    elif filename[-5:] == \'.html\':\n        filetype = \'html\'\n    elif filename[-5:] == \'.load\':\n        filetype = \'html\'\n    elif filename[-4:] == \'.css\':\n        filetype = \'css\'\n    elif filename[-3:] == \'.js\':\n        filetype = \'js\'\n    else:\n        filetype = \'html\'\n\n    # ## check if file is not there\n    if (\'revert\' in request.vars) and os.path.exists(path + \'.bak\'):\n        try:\n            data = safe_read(path + \'.bak\')\n            data1 = safe_read(path)\n        except IOError:\n            session.flash = T(\'Invalid action\')\n            if \'from_ajax\' in request.vars:\n                 return response.json({\'error\': str(T(\'Invalid action\'))})\n            else:\n                redirect(URL(\'site\'))\n\n        safe_write(path, data)\n        file_hash = md5_hash(data)\n        saved_on = time.ctime(os.stat(path)[stat.ST_MTIME])\n        safe_write(path + \'.bak\', data1)\n        response.flash = T(\'file "%s" of %s restored\', (filename, saved_on))\n    else:\n        try:\n            data = safe_read(path)\n        except IOError:\n            session.flash = T(\'Invalid action\')\n            if \'from_ajax\' in request.vars:\n                return response.json({\'error\': str(T(\'Invalid action\'))})\n            else:\n                redirect(URL(\'site\'))\n\n        lineno_old = count_lines(data)\n        file_hash = md5_hash(data)\n        saved_on = time.ctime(os.stat(path)[stat.ST_MTIME])\n\n        if request.vars.file_hash and request.vars.file_hash != file_hash:\n            session.flash = T(\'file changed on disk\')\n            data = request.vars.data.replace(\'\\r\\n\', \'\\n\').strip() + \'\\n\'\n            safe_write(path + \'.1\', data)\n            if \'from_ajax\' in request.vars:\n                return response.json({\'error\': str(T(\'file changed on disk\')),\n                                      \'redirect\': URL(\'resolve\',\n                                                      args=request.args)})\n            else:\n                redirect(URL(\'resolve\', args=request.args))\n        elif request.vars.data:\n            safe_write(path + \'.bak\', data)\n            data = request.vars.data.replace(\'\\r\\n\', \'\\n\').strip() + \'\\n\'\n            safe_write(path, data)\n            lineno_new = count_lines(data)\n            log_progress(app,\'EDIT\',filename,progress=lineno_new-lineno_old)\n            file_hash = md5_hash(data)\n            saved_on = time.ctime(os.stat(path)[stat.ST_MTIME])\n            response.flash = T(\'file saved on %s\', saved_on)\n\n    data_or_revert = (request.vars.data or request.vars.revert)\n\n    # Check compile errors\n    highlight = None\n    if filetype == \'python\' and request.vars.data:\n        import _ast\n        try:\n            code = request.vars.data.rstrip().replace(\'\\r\\n\',\'\\n\')+\'\\n\'\n            compile(code, path, "exec", _ast.PyCF_ONLY_AST)\n        except Exception, e:\n            start = sum([len(line)+1 for l, line\n                            in enumerate(request.vars.data.split("\\n"))\n                            if l < e.lineno-1])\n            if e.text and e.offset:\n                offset = e.offset - (len(e.text) - len(e.text.splitlines()[-1]))\n            else:\n                offset = 0\n            highlight = {\'start\': start, \'end\': start + offset + 1, \'lineno\': e.lineno}\n            try:\n                ex_name = e.__class__.__name__\n            except:\n                ex_name = \'unknown exception!\'\n            response.flash = DIV(T(\'failed to compile file because:\'), BR(),\n                                 B(ex_name), \' \'+T(\'at line %s\', e.lineno),\n                                 offset and \' \'+T(\'at char %s\', offset) or \'\',\n                                 PRE(str(e)))\n\n    if data_or_revert and request.args[1] == \'modules\':\n        # Lets try to reload the modules\n        try:\n            mopath = \'.\'.join(request.args[2:])[:-3]\n            exec \'import applications.%s.modules.%s\' % (request.args[0], mopath)\n            reload(sys.modules[\'applications.%s.modules.%s\'\n                    % (request.args[0], mopath)])\n        except Exception, e:\n            response.flash = DIV(T(\'failed to reload module because:\'),PRE(str(e)))\n\n    edit_controller = None\n    editviewlinks = None\n    view_link = None\n    if filetype == \'html\' and len(request.args) >= 3:\n        cfilename = os.path.join(request.args[0], \'controllers\',\n                                 request.args[2] + \'.py\')\n        if os.path.exists(apath(cfilename, r=request)):\n            edit_controller = URL(\'edit\', args=[cfilename])\n            view = request.args[3].replace(\'.html\',\'\')\n            view_link = URL(request.args[0],request.args[2],view)\n    elif filetype == \'python\' and request.args[1] == \'controllers\':\n        ## it\'s a controller file.\n        ## Create links to all of the associated view files.\n        app = get_app()\n        viewname = os.path.splitext(request.args[2])[0]\n        viewpath = os.path.join(app,\'views\',viewname)\n        aviewpath = apath(viewpath, r=request)\n        viewlist = []\n        if os.path.exists(aviewpath):\n            if os.path.isdir(aviewpath):\n                viewlist = glob(os.path.join(aviewpath,\'*.html\'))\n        elif os.path.exists(aviewpath+\'.html\'):\n            viewlist.append(aviewpath+\'.html\')\n        if len(viewlist):\n            editviewlinks = []\n            for v in viewlist:\n                vf = os.path.split(v)[-1]\n                vargs = "/".join([viewpath.replace(os.sep,"/"),vf])\n                editviewlinks.append(A(vf.split(".")[0],\\\n                    _href=URL(\'edit\',args=[vargs])))\n\n    if len(request.args) > 2 and request.args[1] == \'controllers\':\n        controller = (request.args[2])[:-3]\n        functions = regex_expose.findall(data)\n    else:\n        (controller, functions) = (None, None)\n\n    if \'from_ajax\' in request.vars:\n        return response.json({\'file_hash\': file_hash, \'saved_on\': saved_on, \'functions\':functions, \'controller\': controller, \'application\': request.args[0], \'highlight\': highlight })\n    else:\n\n        editarea_preferences = {}\n        editarea_preferences[\'FONT_SIZE\'] = \'10\'\n        editarea_preferences[\'FULL_SCREEN\'] = \'false\'\n        editarea_preferences[\'ALLOW_TOGGLE\'] = \'true\'\n        editarea_preferences[\'REPLACE_TAB_BY_SPACES\'] = \'4\'\n        editarea_preferences[\'DISPLAY\'] = \'onload\'\n        for key in editarea_preferences:\n            if globals().has_key(key):\n                editarea_preferences[key]=globals()[key]\n        return dict(app=request.args[0],\n                    filename=filename,\n                    filetype=filetype,\n                    data=data,\n                    edit_controller=edit_controller,\n                    file_hash=file_hash,\n                    saved_on=saved_on,\n                    controller=controller,\n                    functions=functions,\n                    view_link=view_link,\n                    editarea_preferences=editarea_preferences,\n                    editviewlinks=editviewlinks)\n\ndef resolve():\n    """\n    """\n\n    filename = \'/\'.join(request.args)\n    # ## check if file is not there\n    path = apath(filename, r=request)\n    a = safe_read(path).split(\'\\n\')\n    try:\n        b = safe_read(path + \'.1\').split(\'\\n\')\n    except IOError:\n        session.flash = \'Other file, no longer there\'\n        redirect(URL(\'edit\', args=request.args))\n\n    d = difflib.ndiff(a, b)\n\n    def leading(line):\n        """  """\n\n        # TODO: we really need to comment this\n        z = \'\'\n        for (k, c) in enumerate(line):\n            if c == \' \':\n                z += \'&nbsp;\'\n            elif c == \' \\t\':\n                z += \'&nbsp;\'\n            elif k == 0 and c == \'?\':\n                pass\n            else:\n                break\n\n        return XML(z)\n\n    def getclass(item):\n        """ Determine item class """\n\n        if item[0] == \' \':\n            return \'normal\'\n        if item[0] == \'+\':\n            return \'plus\'\n        if item[0] == \'-\':\n            return \'minus\'\n\n    if request.vars:\n        c = \'\\n\'.join([item[2:].rstrip() for (i, item) in enumerate(d) if item[0] \\\n                           == \' \' or \'line%i\' % i in request.vars])\n        safe_write(path, c)\n        session.flash = \'files merged\'\n        redirect(URL(\'edit\', args=request.args))\n    else:\n        # Making the short circuit compatible with <= python2.4\n        gen_data = lambda index,item: not item[:1] in [\'+\',\'-\'] and "" \\\n                   or INPUT(_type=\'checkbox\',\n                            _name=\'line%i\' % index,\n                            value=item[0] == \'+\')\n\n        diff = TABLE(*[TR(TD(gen_data(i,item)),\n                          TD(item[0]),\n                          TD(leading(item[2:]),\n                          TT(item[2:].rstrip())), _class=getclass(item))\n                       for (i, item) in enumerate(d) if item[0] != \'?\'])\n\n    return dict(diff=diff, filename=filename)\n\n\ndef edit_language():\n    """ Edit language file """\n    app = get_app()\n    filename = \'/\'.join(request.args)\n    strings = read_dict(apath(filename, r=request))\n\n    if \'__corrupted__\' in strings:\n       form = SPAN(strings[\'__corrupted__\'],_class=\'error\')\n       return dict(filename=filename, form=form)\n\n    keys = sorted(strings.keys(),lambda x,y: cmp(unicode(x,\'utf-8\').lower(), unicode(y,\'utf-8\').lower()))\n    rows = []\n    rows.append(H2(T(\'Original/Translation\')))\n\n    for key in keys:\n        name = md5_hash(key)\n        s = strings[key]\n        (prefix, sep, key) = key.partition(\'\\x01\')\n        if sep:\n            prefix = SPAN(prefix+\': \', _class=\'tm_ftag\')\n            k = key\n        else:\n            (k, prefix) = (prefix, \'\')\n\n        _class=\'untranslated\' if k==s else \'translated\'\n\n        if len(key) <= 40:\n            elem = INPUT(_type=\'text\', _name=name, value=s,\n                         _size=70,_class=_class)\n        else:\n            elem = TEXTAREA(_name=name, value=s, _cols=70,\n                            _rows=5, _class=_class)\n\n        # Making the short circuit compatible with <= python2.4\n        k = (s != k) and k or B(k)\n\n        rows.append(P(prefix, k, BR(), elem, TAG.BUTTON(T(\'delete\'),\n                            _onclick=\'return delkey("%s")\' % name), _id=name))\n\n    rows.append(INPUT(_type=\'submit\', _value=T(\'update\')))\n    form = FORM(*rows)\n    if form.accepts(request.vars, keepvalues=True):\n        strs = dict()\n        for key in keys:\n            name = md5_hash(key)\n            if form.vars[name]==chr(127): continue\n            strs[key] = form.vars[name]\n        write_dict(apath(filename, r=request), strs)\n        session.flash = T(\'file saved on %(time)s\', dict(time=time.ctime()))\n        redirect(URL(r=request,args=request.args))\n    return dict(app=request.args[0], filename=filename, form=form)\n\ndef edit_plurals():\n    """ Edit plurals file """\n    app = get_app()\n    filename = \'/\'.join(request.args)\n    plurals = read_plural_dict(apath(filename, r=request)) # plural forms dictionary\n    nplurals = int(request.vars.nplurals)-1 # plural forms quantity\n    xnplurals = xrange(nplurals)\n\n    if \'__corrupted__\' in plurals:\n       # show error message and exit\n       form = SPAN(plurals[\'__corrupted__\'],_class=\'error\')\n       return dict(filename=filename, form=form)\n\n    keys = sorted(plurals.keys(),lambda x,y: cmp(unicode(x,\'utf-8\').lower(), unicode(y,\'utf-8\').lower()))\n    rows = []\n\n    row=[T("Singular Form")]\n    row.extend([T("Plural Form #%s", n+1) for n in xnplurals])\n    table=TABLE(THEAD(TR(row)))\n\n    for key in keys:\n        name = md5_hash(key)\n        forms = plurals[key]\n\n        if len(forms) < nplurals:\n            forms.extend(None for i in xrange(nplurals-len(forms)))\n\n        row = [B(key)]\n        row.extend([INPUT(_type=\'text\', _name=name+\'_\'+str(n), value=forms[n], _size=20) for n in xnplurals])\n        row.append(TD(TAG.BUTTON(T(\'delete\'), _onclick=\'return delkey("%s")\' % name)))\n        rows.append(TR(row, _id=name))\n    if rows:\n        table.append(TBODY(rows))\n    rows=[table, INPUT(_type=\'submit\', _value=T(\'update\'))]\n    form = FORM(*rows)\n    if form.accepts(request.vars, keepvalues=True):\n        new_plurals = dict()\n        for key in keys:\n            name = md5_hash(key)\n            if form.vars[name+\'_0\']==chr(127): continue\n            new_plurals[key] = [form.vars[name+\'_\'+str(n)] for n in xnplurals]\n        write_plural_dict(apath(filename, r=request), new_plurals)\n        session.flash = T(\'file saved on %(time)s\', dict(time=time.ctime()))\n        redirect(URL(r=request, args=request.args, vars=dict(nplurals=request.vars.nplurals)))\n    return dict(app=request.args[0], filename=filename, form=form)\n\n\ndef about():\n    """ Read about info """\n    app = get_app()\n    # ## check if file is not there\n    about = safe_read(apath(\'%s/ABOUT\' % app, r=request))\n    license = safe_read(apath(\'%s/LICENSE\' % app, r=request))\n    return dict(app=app, about=MARKMIN(about), license=MARKMIN(license),progress=report_progress(app))\n\n\ndef design():\n    """ Application design handler """\n    app = get_app()\n\n    if not response.flash and app == request.application:\n        msg = T(\'ATTENTION: you cannot edit the running application!\')\n        response.flash = msg\n\n    if request.vars and not request.vars.token==session.token:\n        redirect(URL(\'logout\'))\n\n    if request.vars.pluginfile!=None and not isinstance(request.vars.pluginfile,str):\n        filename=os.path.basename(request.vars.pluginfile.filename)\n        if plugin_install(app, request.vars.pluginfile.file,\n                          request, filename):\n            session.flash = T(\'new plugin installed\')\n            redirect(URL(\'design\',args=app))\n        else:\n            session.flash = \\\n                T(\'unable to create application "%s"\', request.vars.filename)\n        redirect(URL(r=request))\n    elif isinstance(request.vars.pluginfile,str):\n        session.flash = T(\'plugin not specified\')\n        redirect(URL(r=request))\n\n\n    # If we have only pyc files it means that\n    # we cannot design\n    if os.path.exists(apath(\'%s/compiled\' % app, r=request)):\n        session.flash = \\\n            T(\'application is compiled and cannot be designed\')\n        redirect(URL(\'site\'))\n\n    # Get all models\n    models = listdir(apath(\'%s/models/\' % app, r=request), \'.*\\.py$\')\n    models=[x.replace(\'\\\\\',\'/\') for x in models]\n    defines = {}\n    for m in models:\n        data = safe_read(apath(\'%s/models/%s\' % (app, m), r=request))\n        defines[m] = regex_tables.findall(data)\n        defines[m].sort()\n\n    # Get all controllers\n    controllers = sorted(listdir(apath(\'%s/controllers/\' % app, r=request), \'.*\\.py$\'))\n    controllers = [x.replace(\'\\\\\',\'/\') for x in controllers]\n    functions = {}\n    for c in controllers:\n        data = safe_read(apath(\'%s/controllers/%s\' % (app, c), r=request))\n        items = regex_expose.findall(data)\n        functions[c] = items\n\n    # Get all views\n    views = sorted(listdir(apath(\'%s/views/\' % app, r=request), \'[\\w/\\-]+(\\.\\w+)+$\'))\n    views = [x.replace(\'\\\\\',\'/\') for x in views if not x.endswith(\'.bak\')]\n    extend = {}\n    include = {}\n    for c in views:\n        data = safe_read(apath(\'%s/views/%s\' % (app, c), r=request))\n        items = regex_extend.findall(data)\n\n        if items:\n            extend[c] = items[0][1]\n\n        items = regex_include.findall(data)\n        include[c] = [i[1] for i in items]\n\n    # Get all modules\n    modules = listdir(apath(\'%s/modules/\' % app, r=request), \'.*\\.py$\')\n    modules = modules=[x.replace(\'\\\\\',\'/\') for x in modules]\n    modules.sort()\n\n    # Get all private files\n    privates = listdir(apath(\'%s/private/\' % app, r=request), \'[^\\.#].*\')\n    privates = [x.replace(\'\\\\\',\'/\') for x in privates]\n    privates.sort()\n\n    # Get all static files\n    statics = listdir(apath(\'%s/static/\' % app, r=request), \'[^\\.#].*\')\n    statics = [x.replace(\'\\\\\',\'/\') for x in statics]\n    statics.sort()\n\n    # Get all languages\n    languages=dict([(lang,info) for lang,info\n                   in read_possible_languages(\n                       apath(app, r=request)).iteritems()\n                   if info[2]!=0]) # info[2] is langfile_mtime:\n                                   # get only existed files\n\n    #Get crontab\n    cronfolder = apath(\'%s/cron\' % app, r=request)\n    if not os.path.exists(cronfolder): os.mkdir(cronfolder)\n    crontab = apath(\'%s/cron/crontab\' % app, r=request)\n    if not os.path.exists(crontab):\n        safe_write(crontab, \'#crontab\')\n\n    plugins=[]\n    def filter_plugins(items,plugins):\n        plugins+=[item[7:].split(\'/\')[0].split(\'.\')[0] for item in items if item.startswith(\'plugin_\')]\n        plugins[:]=list(set(plugins))\n        plugins.sort()\n        return [item for item in items if not item.startswith(\'plugin_\')]\n\n    return dict(app=app,\n                models=filter_plugins(models,plugins),\n                defines=defines,\n                controllers=filter_plugins(controllers,plugins),\n                functions=functions,\n                views=filter_plugins(views,plugins),\n                modules=filter_plugins(modules,plugins),\n                extend=extend,\n                include=include,\n                privates=filter_plugins(privates,plugins),\n                statics=filter_plugins(statics,plugins),\n                languages=languages,\n                crontab=crontab,\n                plugins=plugins)\n\ndef delete_plugin():\n    """ Object delete handler """\n    app=request.args(0)\n    plugin = request.args(1)\n    plugin_name=\'plugin_\'+plugin\n\n    dialog = FORM.confirm(\n        T(\'Delete\'),\n        {T(\'Cancel\'):URL(\'design\', args=app)})\n\n    if dialog.accepted:\n        try:\n            for folder in [\'models\',\'views\',\'controllers\',\'static\',\'modules\', \'private\']:\n                path=os.path.join(apath(app,r=request),folder)\n                for item in os.listdir(path):\n                    if item.rsplit(\'.\',1)[0] == plugin_name:\n                        filename=os.path.join(path,item)\n                        if os.path.isdir(filename):\n                            shutil.rmtree(filename)\n                        else:\n                            os.unlink(filename)\n            session.flash = T(\'plugin "%(plugin)s" deleted\',\n                              dict(plugin=plugin))\n        except Exception:\n            session.flash = T(\'unable to delete file plugin "%(plugin)s"\',\n                              dict(plugin=plugin))\n        redirect(URL(\'design\', args=request.args(0), anchor=request.vars.id2))\n    return dict(dialog=dialog,plugin=plugin)\n\ndef plugin():\n    """ Application design handler """\n    app = get_app()\n    plugin = request.args(1)\n\n    if not response.flash and app == request.application:\n        msg = T(\'ATTENTION: you cannot edit the running application!\')\n        response.flash = msg\n\n    # If we have only pyc files it means that\n    # we cannot design\n    if os.path.exists(apath(\'%s/compiled\' % app, r=request)):\n        session.flash = \\\n            T(\'application is compiled and cannot be designed\')\n        redirect(URL(\'site\'))\n\n    # Get all models\n    models = listdir(apath(\'%s/models/\' % app, r=request), \'.*\\.py$\')\n    models=[x.replace(\'\\\\\',\'/\') for x in models]\n    defines = {}\n    for m in models:\n        data = safe_read(apath(\'%s/models/%s\' % (app, m), r=request))\n        defines[m] = regex_tables.findall(data)\n        defines[m].sort()\n\n    # Get all controllers\n    controllers = sorted(listdir(apath(\'%s/controllers/\' % app, r=request), \'.*\\.py$\'))\n    controllers = [x.replace(\'\\\\\',\'/\') for x in controllers]\n    functions = {}\n    for c in controllers:\n        data = safe_read(apath(\'%s/controllers/%s\' % (app, c), r=request))\n        items = regex_expose.findall(data)\n        functions[c] = items\n\n    # Get all views\n    views = sorted(listdir(apath(\'%s/views/\' % app, r=request), \'[\\w/\\-]+\\.\\w+$\'))\n    views = [x.replace(\'\\\\\',\'/\') for x in views]\n    extend = {}\n    include = {}\n    for c in views:\n        data = safe_read(apath(\'%s/views/%s\' % (app, c), r=request))\n        items = regex_extend.findall(data)\n        if items:\n            extend[c] = items[0][1]\n\n        items = regex_include.findall(data)\n        include[c] = [i[1] for i in items]\n\n    # Get all modules\n    modules = listdir(apath(\'%s/modules/\' % app, r=request), \'.*\\.py$\')\n    modules = modules=[x.replace(\'\\\\\',\'/\') for x in modules]\n    modules.sort()\n\n    # Get all private files\n    privates = listdir(apath(\'%s/private/\' % app, r=request), \'[^\\.#].*\')\n    privates = [x.replace(\'\\\\\',\'/\') for x in privates]\n    privates.sort()\n\n    # Get all static files\n    statics = listdir(apath(\'%s/static/\' % app, r=request), \'[^\\.#].*\')\n    statics = [x.replace(\'\\\\\',\'/\') for x in statics]\n    statics.sort()\n\n    # Get all languages\n    languages = sorted([lang+\'.py\' for lang, info in\n                    T.get_possible_languages_info().iteritems()\n                    if info[2]!=0]) # info[2] is langfile_mtime:\n                                    # get only existed files\n\n    #Get crontab\n    crontab = apath(\'%s/cron/crontab\' % app, r=request)\n    if not os.path.exists(crontab):\n        safe_write(crontab, \'#crontab\')\n\n    def filter_plugins(items):\n        regex=re.compile(\'^plugin_\'+plugin+\'(/.*|\\..*)?$\')\n        return [item for item in items if item and regex.match(item)]\n\n    return dict(app=app,\n                models=filter_plugins(models),\n                defines=defines,\n                controllers=filter_plugins(controllers),\n                functions=functions,\n                views=filter_plugins(views),\n                modules=filter_plugins(modules),\n                extend=extend,\n                include=include,\n                privates=filter_plugins(privates),\n                statics=filter_plugins(statics),\n                languages=languages,\n                crontab=crontab)\n\n\ndef create_file():\n    """ Create files handler """\n    if request.vars and not request.vars.token==session.token:\n        redirect(URL(\'logout\'))\n    try:\n        anchor=\'#\'+request.vars.id if request.vars.id else \'\'\n        if request.vars.app:\n            app = get_app(request.vars.app)\n            path = abspath(request.vars.location)\n        else:\n            app = get_app(name=request.vars.location.split(\'/\')[0])\n            path = apath(request.vars.location, r=request)\n        filename = re.sub(\'[^\\w./-]+\', \'_\', request.vars.filename)\n        if path[-7:] == \'/rules/\':\n            # Handle plural rules files\n            if len(filename) == 0:\n                raise SyntaxError\n            if not filename[-3:] == \'.py\':\n                filename += \'.py\'\n            lang = re.match(\'^plural_rules-(.*)\\.py$\',filename).group(1)\n            langinfo = read_possible_languages(apath(app, r=request))[lang]\n            text = dedent("""\n                   #!/usr/bin/env python\n                   # -*- coding: utf8 -*-\n                   # Plural-Forms for %(lang)s (%(langname)s)\n\n                   nplurals=2  # for example, English language has 2 forms:\n                               # 1 singular and 1 plural\n\n                   # Determine plural_id for number *n* as sequence of positive\n                   # integers: 0,1,...\n                   # NOTE! For singular form ALWAYS return plural_id = 0\n                   get_plural_id = lambda n: int(n != 1)\n\n                   # Construct and return plural form of *word* using\n                   # *plural_id* (which ALWAYS>0). This function will be executed\n                   # for words (or phrases) not found in plural_dict dictionary.\n                   # By default this function simply returns word in singular:\n                   construct_plural_form = lambda word, plural_id: word\n                   """)[1:] % dict(lang=langinfo[0], langname=langinfo[1])\n\n        elif path[-11:] == \'/languages/\':\n            # Handle language files\n            if len(filename) == 0:\n                raise SyntaxError\n            if not filename[-3:] == \'.py\':\n                filename += \'.py\'\n            path=os.path.join(apath(app, r=request),\'languages\',filename)\n            if not os.path.exists(path):\n                safe_write(path, \'\')\n            # create language xx[-yy].py file:\n            findT(apath(app, r=request), filename[:-3])\n            session.flash = T(\'language file "%(filename)s" created/updated\',\n                               dict(filename=filename))\n            redirect(request.vars.sender+anchor)\n\n        elif path[-8:] == \'/models/\':\n            # Handle python models\n            if not filename[-3:] == \'.py\':\n                filename += \'.py\'\n\n            if len(filename) == 3:\n                raise SyntaxError\n\n            text = \'# coding: utf8\\n\'\n\n        elif path[-13:] == \'/controllers/\':\n            # Handle python controllers\n            if not filename[-3:] == \'.py\':\n                filename += \'.py\'\n\n            if len(filename) == 3:\n                raise SyntaxError\n\n            text = \'# coding: utf8\\n# %s\\ndef index(): return dict(message="hello from %s")\'\n            text = text % (T(\'try something like\'), filename)\n\n        elif path[-7:] == \'/views/\':\n            if request.vars.plugin and not filename.startswith(\'plugin_%s/\' % request.vars.plugin):\n                filename = \'plugin_%s/%s\' % (request.vars.plugin, filename)\n            # Handle template (html) views\n            if filename.find(\'.\')<0:\n                filename += \'.html\'\n            extension = filename.split(\'.\')[-1].lower()\n\n            if len(filename) == 5:\n                raise SyntaxError\n\n            msg = T(\'This is the %(filename)s template\', dict(filename=filename))\n            if extension == \'html\':\n                text = dedent("""\n                   {{extend \'layout.html\'}}\n                   <h1>%s</h1>\n                   {{=BEAUTIFY(response._vars)}}""" % msg)[1:]\n            else:\n                generic = os.path.join(path,\'generic.\'+extension)\n                if os.path.exists(generic):\n                    text = read_file(generic)\n                else:\n                    text = \'\'\n\n        elif path[-9:] == \'/modules/\':\n            if request.vars.plugin and not filename.startswith(\'plugin_%s/\' % request.vars.plugin):\n                filename = \'plugin_%s/%s\' % (request.vars.plugin, filename)\n            # Handle python module files\n            if not filename[-3:] == \'.py\':\n                filename += \'.py\'\n\n            if len(filename) == 3:\n                raise SyntaxError\n\n            text = dedent("""\n                   #!/usr/bin/env python\n                   # coding: utf8\n                   from gluon import *\\n""")[1:]\n\n        elif (path[-8:] == \'/static/\') or (path[-9:] == \'/private/\'):\n            if request.vars.plugin and not filename.startswith(\'plugin_%s/\' % request.vars.plugin):\n                filename = \'plugin_%s/%s\' % (request.vars.plugin, filename)\n            text = \'\'\n            \n        else:\n            redirect(request.vars.sender+anchor)\n\n        full_filename = os.path.join(path, filename)\n        dirpath = os.path.dirname(full_filename)\n\n        if not os.path.exists(dirpath):\n            os.makedirs(dirpath)\n\n        if os.path.exists(full_filename):\n            raise SyntaxError\n\n        safe_write(full_filename, text)\n        log_progress(app,\'CREATE\',filename)\n        session.flash = T(\'file "%(filename)s" created\',\n                          dict(filename=full_filename[len(path):]))\n        vars={}\n        if request.vars.id: vars[\'id\']=request.vars.id\n        if request.vars.app: vars[\'app\']=request.vars.app\n        redirect(URL(\'edit\',\n                 args=[os.path.join(request.vars.location, filename)], vars=vars))\n    except Exception, e:\n        if not isinstance(e,HTTP):\n            session.flash = T(\'cannot create file\')\n\n    redirect(request.vars.sender+anchor)\n\n\ndef upload_file():\n    """ File uploading handler """\n    if request.vars and not request.vars.token==session.token:\n        redirect(URL(\'logout\'))\n    try:\n        filename = None\n        app = get_app(name=request.vars.location.split(\'/\')[0])\n        path = apath(request.vars.location, r=request)\n\n        if request.vars.filename:\n            filename = re.sub(\'[^\\w\\./]+\', \'_\', request.vars.filename)\n        else:\n            filename = os.path.split(request.vars.file.filename)[-1]\n\n        if path[-8:] == \'/models/\' and not filename[-3:] == \'.py\':\n            filename += \'.py\'\n\n        if path[-9:] == \'/modules/\' and not filename[-3:] == \'.py\':\n            filename += \'.py\'\n\n        if path[-13:] == \'/controllers/\' and not filename[-3:] == \'.py\':\n            filename += \'.py\'\n\n        if path[-7:] == \'/views/\' and not filename[-5:] == \'.html\':\n            filename += \'.html\'\n\n        if path[-11:] == \'/languages/\' and not filename[-3:] == \'.py\':\n            filename += \'.py\'\n\n        filename = os.path.join(path, filename)\n        dirpath = os.path.dirname(filename)\n\n        if not os.path.exists(dirpath):\n            os.makedirs(dirpath)\n\n        data = request.vars.file.file.read()\n        lineno = count_lines(data)\n        safe_write(filename, data, \'wb\')\n        log_progress(app,\'UPLOAD\',filename,lineno)\n        session.flash = T(\'file "%(filename)s" uploaded\',\n                          dict(filename=filename[len(path):]))\n    except Exception:\n        if filename:\n            d = dict(filename = filename[len(path):])\n        else:\n            d = dict(filename = \'unkown\')\n        session.flash = T(\'cannot upload file "%(filename)s"\', d)\n\n    redirect(request.vars.sender)\n\n\ndef errors():\n    """ Error handler """\n    import operator\n    import os\n    import pickle\n    import hashlib\n\n    app = get_app()\n\n    method = request.args(1) or \'new\'\n    db_ready = {}\n    db_ready[\'status\'] = get_ticket_storage(app)\n    db_ready[\'errmessage\'] = T("No ticket_storage.txt found under /private folder")\n    db_ready[\'errlink\'] = "http://web2py.com/books/default/chapter/29/13#Collecting-tickets"\n\n    if method == \'new\':\n        errors_path = apath(\'%s/errors\' % app, r=request)\n\n        delete_hashes = []\n        for item in request.vars:\n            if item[:7] == \'delete_\':\n                delete_hashes.append(item[7:])\n\n        hash2error = dict()\n\n        for fn in listdir(errors_path, \'^[a-fA-F0-9.\\-]+$\'):\n            fullpath = os.path.join(errors_path, fn)\n            if not os.path.isfile(fullpath): continue\n            try:\n                fullpath_file = open(fullpath, \'r\')\n                try:\n                    error = pickle.load(fullpath_file)\n                finally:\n                    fullpath_file.close()\n            except IOError:\n                continue\n            except EOFError:\n                continue\n\n            hash = hashlib.md5(error[\'traceback\']).hexdigest()\n\n            if hash in delete_hashes:\n                os.unlink(fullpath)\n            else:\n                try:\n                    hash2error[hash][\'count\'] += 1\n                except KeyError:\n                    error_lines = error[\'traceback\'].split("\\n")\n                    last_line = error_lines[-2]\n                    error_causer = os.path.split(error[\'layer\'])[1]\n                    hash2error[hash] = dict(count=1, pickel=error,\n                                            causer=error_causer,\n                                            last_line=last_line,\n                                            hash=hash,ticket=fn)\n\n        decorated = [(x[\'count\'], x) for x in hash2error.values()]\n        decorated.sort(key=operator.itemgetter(0), reverse=True)\n\n        return dict(errors = [x[1] for x in decorated], app=app, method=method, db_ready=db_ready)\n\n\n    elif method == \'dbnew\':\n        errors_path = apath(\'%s/errors\' % app, r=request)\n        tk_db, tk_table = get_ticket_storage(app)\n\n        delete_hashes = []\n        for item in request.vars:\n            if item[:7] == \'delete_\':\n                delete_hashes.append(item[7:])\n\n        hash2error = dict()\n\n        for fn in tk_db(tk_table.id>0).select():\n            try:\n                error = pickle.loads(fn.ticket_data)\n            except AttributeError:\n                tk_db(tk_table.id == fn.id).delete()\n                tk_db.commit()\n\n            hash = hashlib.md5(error[\'traceback\']).hexdigest()\n\n            if hash in delete_hashes:\n                tk_db(tk_table.id == fn.id).delete()\n                tk_db.commit()\n            else:\n                try:\n                    hash2error[\'hash\'][\'count\'] += 1\n                except KeyError:\n                    error_lines = error[\'traceback\'].split("\\n")\n                    last_line = error_lines[-2]\n                    error_causer = os.path.split(error[\'layer\'])[1]\n                    hash2error[hash] = dict(count=1, pickel=error,\n                                            causer=error_causer,\n                                            last_line=last_line,\n                                            hash=hash,ticket=fn.ticket_id)\n\n        decorated = [(x[\'count\'], x) for x in hash2error.values()]\n\n        decorated.sort(key=operator.itemgetter(0), reverse=True)\n\n        return dict(errors = [x[1] for x in decorated], app=app, method=method)\n\n    elif method == \'dbold\':\n        tk_db, tk_table = get_ticket_storage(app)\n        for item in request.vars:\n            if item[:7] == \'delete_\':\n                tk_db(tk_table.ticket_id == item[7:]).delete()\n                tk_db.commit()\n        tickets_ = tk_db(tk_table.id>0).select(tk_table.ticket_id, tk_table.created_datetime, orderby=~tk_table.created_datetime)\n        tickets = [row.ticket_id for row in tickets_]\n        times = dict([(row.ticket_id, row.created_datetime) for row in tickets_])\n\n        return dict(app=app, tickets=tickets, method=method, times=times)\n\n    else:\n        for item in request.vars:\n            if item[:7] == \'delete_\':\n                os.unlink(apath(\'%s/errors/%s\' % (app, item[7:]), r=request))\n        func = lambda p: os.stat(apath(\'%s/errors/%s\' % \\\n                                           (app, p), r=request)).st_mtime\n        tickets = sorted(listdir(apath(\'%s/errors/\' % app, r=request), \'^\\w.*\'),\n                         key=func,\n                         reverse=True)\n\n        return dict(app=app, tickets=tickets, method=method, db_ready=db_ready)\n\ndef get_ticket_storage(app):\n    private_folder = apath(\'%s/private\' % app, r=request)\n    ticket_file = os.path.join(private_folder, \'ticket_storage.txt\')\n    if os.path.exists(ticket_file):\n        db_string = open(ticket_file).read()\n        db_string = db_string.strip().replace(\'\\r\',\'\').replace(\'\\n\',\'\')\n    else:\n        return False\n    tickets_table = \'web2py_ticket\'\n    tablename = tickets_table + \'_\' + app\n    db_path = apath(\'%s/databases\' % app, r=request)\n    ticketsdb = DAL(db_string, folder=db_path, auto_import=True)\n    if not ticketsdb.get(tablename):\n        table = ticketsdb.define_table(\n                tablename,\n                Field(\'ticket_id\', length=100),\n                Field(\'ticket_data\', \'text\'),\n                Field(\'created_datetime\', \'datetime\'),\n                )\n    return ticketsdb , ticketsdb.get(tablename)\n\ndef make_link(path):\n    """ Create a link from a path """\n    tryFile = path.replace(\'\\\\\', \'/\')\n\n    if os.path.isabs(tryFile) and os.path.isfile(tryFile):\n        (folder, filename) = os.path.split(tryFile)\n        (base, ext) = os.path.splitext(filename)\n        app = get_app()\n\n        editable = {\'controllers\': \'.py\', \'models\': \'.py\', \'views\': \'.html\'}\n        for key in editable.keys():\n            check_extension = folder.endswith("%s/%s" % (app,key))\n            if ext.lower() == editable[key] and check_extension:\n                return A(\'"\' + tryFile + \'"\',\n                         _href=URL(r=request,\n                         f=\'edit/%s/%s/%s\' % (app, key, filename))).xml()\n    return \'\'\n\n\ndef make_links(traceback):\n    """ Make links using the given traceback """\n\n    lwords = traceback.split(\'"\')\n\n    # Making the short circuit compatible with <= python2.4\n    result = (len(lwords) != 0) and lwords[0] or \'\'\n\n    i = 1\n\n    while i < len(lwords):\n        link = make_link(lwords[i])\n\n        if link == \'\':\n            result += \'"\' + lwords[i]\n        else:\n            result += link\n\n            if i + 1 < len(lwords):\n                result += lwords[i + 1]\n                i = i + 1\n\n        i = i + 1\n\n    return result\n\n\nclass TRACEBACK(object):\n    """ Generate the traceback """\n\n    def __init__(self, text):\n        """ TRACEBACK constructor """\n\n        self.s = make_links(CODE(text).xml())\n\n    def xml(self):\n        """ Returns the xml """\n\n        return self.s\n\n\ndef ticket():\n    """ Ticket handler """\n\n    if len(request.args) != 2:\n        session.flash = T(\'invalid ticket\')\n        redirect(URL(\'site\'))\n\n    app = get_app()\n    myversion = request.env.web2py_version\n    ticket = request.args[1]\n    e = RestrictedError()\n    e.load(request, app, ticket)\n\n    return dict(app=app,\n                ticket=ticket,\n                output=e.output,\n                traceback=(e.traceback and TRACEBACK(e.traceback)),\n                snapshot=e.snapshot,\n                code=e.code,\n                layer=e.layer,\n                myversion=myversion)\n\ndef ticketdb():\n    """ Ticket handler """\n\n    if len(request.args) != 2:\n        session.flash = T(\'invalid ticket\')\n        redirect(URL(\'site\'))\n\n    app = get_app()\n    myversion = request.env.web2py_version\n    ticket = request.args[1]\n    e = RestrictedError()\n    request.tickets_db = get_ticket_storage(app)[0]\n    e.load(request, app, ticket)\n    response.view = \'default/ticket.html\'\n    return dict(app=app,\n                ticket=ticket,\n                output=e.output,\n                traceback=(e.traceback and TRACEBACK(e.traceback)),\n                snapshot=e.snapshot,\n                code=e.code,\n                layer=e.layer,\n                myversion=myversion)\n\ndef error():\n    """ Generate a ticket (for testing) """\n    raise RuntimeError(\'admin ticket generator at your service\')\n\ndef update_languages():\n    """ Update available languages """\n\n    app = get_app()\n    update_all_languages(apath(app, r=request))\n    session.flash = T(\'Language files (static strings) updated\')\n    redirect(URL(\'design\',args=app,anchor=\'languages\'))\n\n\ndef twitter():\n    session.forget()\n    session._unlock(response)\n    import gluon.tools\n    import gluon.contrib.simplejson as sj\n    try:\n        if TWITTER_HASH:\n            page = urllib.urlopen("http://search.twitter.com/search.json?q=%%40%s" % TWITTER_HASH).read()\n            data = sj.loads(page, encoding="utf-8")[\'results\']\n            d = dict()\n            for e in data:\n                d[e["id"]] = e\n            r = reversed(sorted(d))\n            return dict(tweets = [d[k] for k in r])\n        else:\n            return \'disabled\'\n    except Exception, e:\n        return DIV(T(\'Unable to download because:\'),BR(),str(e))\n\n\ndef user():\n    if MULTI_USER_MODE:\n        if not db(db.auth_user).count():\n            auth.settings.registration_requires_approval = False\n        return dict(form=auth())\n    else:\n        return dict(form=T("Disabled"))\n\ndef reload_routes():\n    """ Reload routes.py """\n    import gluon.rewrite\n    gluon.rewrite.load()\n    redirect(URL(\'site\'))\n\ndef manage_students():\n    if not (MULTI_USER_MODE and is_manager()):\n        session.flash = T(\'Not Authorized\')\n        redirect(URL(\'site\'))\n    db.auth_user.registration_key.writable = True\n    grid = SQLFORM.grid(db.auth_user)\n    return locals()\n\ndef bulk_register():\n    if not (MULTI_USER_MODE and is_manager()):\n        session.flash = T(\'Not Authorized\')\n        redirect(URL(\'site\'))\n    form = SQLFORM.factory(Field(\'emails\',\'text\'))\n    if form.process().accepted:\n        emails = [x.strip() for x in form.vars.emails.split(\'\\n\') if x.strip()]\n        n = 0\n        for email in emails:\n            if not db.auth_user(email=email):\n                n += db.auth_user.insert(email = email) and 1 or 0\n        session.flash = T(\'%s students registered\',n)\n        redirect(URL(\'site\'))\n    return locals()\n\n### Begin experimental stuff need fixes:\n# 1) should run in its own process - cannot os.chdir\n# 2) should not prompt user at console\n# 3) should give option to force commit and not reuqire manual merge\n\ndef git_pull():\n    """ Git Pull handler """\n    app = get_app()\n    if not have_git:\n        session.flash = GIT_MISSING\n        redirect(URL(\'site\'))\n    dialog = FORM.confirm(T(\'Pull\'),\n                         {T(\'Cancel\'):URL(\'site\')})    \n    if dialog.accepted:\n        try:\n            repo = Repo(os.path.join(apath(r=request),app))\n            origin = repo.remotes.origin\n            origin.fetch()\n            origin.pull()\n            session.flash = T("Application updated via git pull")\n            redirect(URL(\'site\'))\n        except CheckoutError, message:\n            logging.error(message)\n            session.flash = T("Pull failed, certain files could not be checked out. Check logs for details.")\n            redirect(URL(\'site\'))\n        except UnmergedEntriesError:\n            session.flash = T("Pull is not possible because you have unmerged files. Fix them up in the work tree, and then try again.")\n            redirect(URL(\'site\'))\n        except AssertionError:\n            session.flash = T("Pull is not possible because you have unmerged files. Fix them up in the work tree, and then try again.")\n            redirect(URL(\'site\'))\n        except GitCommandError, status:\n            logging.error(str(status))\n            session.flash = T("Pull failed, git exited abnormally. See logs for details.")\n            redirect(URL(\'site\'))\n        except Exception,e:\n            logging.error("Unexpected error:", sys.exc_info()[0])\n            session.flash = T("Pull failed, git exited abnormally. See logs for details.")\n            redirect(URL(\'site\'))\n    elif \'cancel\' in request.vars:\n        redirect(URL(\'site\'))\n    return dict(app=app,dialog=dialog)\n\n\ndef git_push():\n    """ Git Push handler """\n    app = get_app()\n    if not have_git:\n        session.flash = GIT_MISSING\n        redirect(URL(\'site\'))\n    form = SQLFORM.factory(Field(\'changelog\',requires=IS_NOT_EMPTY()))\n    form.element(\'input[type=submit]\')[\'_value\']=T(\'Push\')\n    form.add_button(T(\'Cancel\'),URL(\'site\'))\n    form.process()\n    if form.accepted:\n        try:\n            repo = Repo(os.path.join(apath(r=request),app))\n            index = repo.index\n            index.add([apath(r=request)+app+\'/*\'])\n            new_commit = index.commit(form.vars.changelog)\n            origin = repo.remotes.origin\n            origin.push()\n            session.flash = T("Git repo updated with latest application changes.")\n            redirect(URL(\'site\'))\n        except UnmergedEntriesError:\n            session.flash = T("Push failed, there are unmerged entries in the cache. Resolve merge issues manually and try again.")\n            redirect(URL(\'site\'))\n        except Exception, e:\n            logging.error("Unexpected error:", sys.exc_info()[0])\n            session.flash = T("Push failed, git exited abnormally. See logs for details.")\n            redirect(URL(\'site\'))\n    return dict(app=app,form=form)\n\n\nresponse._vars=response._caller(about)\n'
p7
sS'snapshot'
p8
(dp9
S'exception'
p10
(dp11
S'__getslice__'
p12
S"<method-wrapper '__getslice__' of exceptions.IOError object>"
p13
sS'__str__'
p14
S"<method-wrapper '__str__' of exceptions.IOError object>"
p15
sS'__reduce__'
p16
S'<built-in method __reduce__ of exceptions.IOError object>'
p17
sS'__dict__'
p18
S'{}'
p19
sS'__sizeof__'
p20
S'<built-in method __sizeof__ of exceptions.IOError object>'
p21
sS'__init__'
p22
S"<method-wrapper '__init__' of exceptions.IOError object>"
p23
sS'__setattr__'
p24
S"<method-wrapper '__setattr__' of exceptions.IOError object>"
p25
sS'__reduce_ex__'
p26
S'<built-in method __reduce_ex__ of exceptions.IOError object>'
p27
sS'__new__'
p28
S'<built-in method __new__ of type object>'
p29
sS'errno'
p30
S'2'
sS'__format__'
p31
S'<built-in method __format__ of exceptions.IOError object>'
p32
sS'__class__'
p33
S"<type 'exceptions.IOError'>"
p34
sS'filename'
p35
S"'C:/Users/admin/Desktop/Sathvik/Tharuni.Org/applications/init/ABOUT'"
p36
sS'__doc__'
p37
S"'I/O operation failed.'"
p38
sS'__getitem__'
p39
S"<method-wrapper '__getitem__' of exceptions.IOError object>"
p40
sS'__setstate__'
p41
S'<built-in method __setstate__ of exceptions.IOError object>'
p42
sS'__getattribute__'
p43
S"<method-wrapper '__getattribute__' of exceptions.IOError object>"
p44
sS'args'
p45
S"(2, 'No such file or directory')"
p46
sS'__subclasshook__'
p47
S'<built-in method __subclasshook__ of type object>'
p48
sS'__unicode__'
p49
S'<built-in method __unicode__ of exceptions.IOError object>'
p50
sS'strerror'
p51
S"'No such file or directory'"
p52
sS'__delattr__'
p53
S"<method-wrapper '__delattr__' of exceptions.IOError object>"
p54
sS'__repr__'
p55
S"<method-wrapper '__repr__' of exceptions.IOError object>"
p56
sS'__hash__'
p57
S"<method-wrapper '__hash__' of exceptions.IOError object>"
p58
ssS'evalue'
p59
S"[Errno 2] No such file or directory: 'C:/Users/admin/Desktop/Sathvik/Tharuni.Org/applications/init/ABOUT'"
p60
sS'request'
p61
ccopy_reg
_reconstructor
p62
(cgluon.html
BEAUTIFY
p63
c__builtin__
object
p64
NtRp65
(dp66
S'attributes'
p67
(dp68
sS'components'
p69
(lp70
g62
(cgluon.html
TABLE
p71
g64
NtRp72
(dp73
g67
(dp74
S'level'
p75
I5
ssS'parent'
p76
Nsg69
(lp77
g62
(cgluon.html
TR
p78
g64
NtRp79
(dp80
g67
(dp81
sg76
g72
sg69
(lp82
g62
(cgluon.html
TD
p83
g64
NtRp84
(dp85
g67
(dp86
S'_style'
p87
S'font-weight:bold;vertical-align:top'
p88
ssg76
g79
sg69
(lp89
S'ajax'
p90
asbag62
(g83
g64
NtRp91
(dp92
g67
(dp93
S'_valign'
p94
S'top'
p95
ssg76
g79
sg69
(lp96
S':'
asbag62
(g83
g64
NtRp97
(dp98
g67
(dp99
sg76
g79
sg69
(lp100
g62
(g63
g64
NtRp101
(dp102
g67
(dp103
g75
I5
ssg76
g97
sg69
(lp104
S'False'
p105
asbasbasbag62
(g78
g64
NtRp106
(dp107
g67
(dp108
sg76
g72
sg69
(lp109
g62
(g83
g64
NtRp110
(dp111
g67
(dp112
g87
g88
ssg76
g106
sg69
(lp113
S'application'
p114
asbag62
(g83
g64
NtRp115
(dp116
g67
(dp117
g94
g95
ssg76
g106
sg69
(lp118
S':'
asbag62
(g83
g64
NtRp119
(dp120
g67
(dp121
sg76
g106
sg69
(lp122
g62
(g63
g64
NtRp123
(dp124
g67
(dp125
g75
I5
ssg76
g119
sg69
(lp126
S'admin'
p127
asbasbasbag62
(g78
g64
NtRp128
(dp129
g67
(dp130
sg76
g72
sg69
(lp131
g62
(g83
g64
NtRp132
(dp133
g67
(dp134
g87
g88
ssg76
g128
sg69
(lp135
g45
asbag62
(g83
g64
NtRp136
(dp137
g67
(dp138
g94
g95
ssg76
g128
sg69
(lp139
S':'
asbag62
(g83
g64
NtRp140
(dp141
g67
(dp142
sg76
g128
sg69
(lp143
g62
(g63
g64
NtRp144
(dp145
g67
(dp146
g75
I5
ssg76
g140
sg69
(lp147
g62
(g71
g64
NtRp148
(dp149
g67
(dp150
g75
I4
ssg76
Nsg69
(lp151
g62
(g78
g64
NtRp152
(dp153
g67
(dp154
sg76
g148
sg69
(lp155
g62
(g83
g64
NtRp156
(dp157
g67
(dp158
sg76
g152
sg69
(lp159
g62
(g63
g64
NtRp160
(dp161
g67
(dp162
g75
I4
ssg76
g156
sg69
(lp163
S'init'
p164
asbasbasbasbasbasbasbag62
(g78
g64
NtRp165
(dp166
g67
(dp167
sg76
g72
sg69
(lp168
g62
(g83
g64
NtRp169
(dp170
g67
(dp171
g87
g88
ssg76
g165
sg69
(lp172
S'body'
p173
asbag62
(g83
g64
NtRp174
(dp175
g67
(dp176
g94
g95
ssg76
g165
sg69
(lp177
S':'
asbag62
(g83
g64
NtRp178
(dp179
g67
(dp180
sg76
g165
sg69
(lp181
g62
(g63
g64
NtRp182
(dp183
g67
(dp184
g75
I5
ssg76
g178
sg69
(lp185
S'<cStringIO.StringO object at 0x0000000008816BC8>'
p186
asbasbasbag62
(g78
g64
NtRp187
(dp188
g67
(dp189
sg76
g72
sg69
(lp190
g62
(g83
g64
NtRp191
(dp192
g67
(dp193
g87
g88
ssg76
g187
sg69
(lp194
S'cid'
p195
asbag62
(g83
g64
NtRp196
(dp197
g67
(dp198
g94
g95
ssg76
g187
sg69
(lp199
S':'
asbag62
(g83
g64
NtRp200
(dp201
g67
(dp202
sg76
g187
sg69
(lp203
g62
(g63
g64
NtRp204
(dp205
g67
(dp206
g75
I5
ssg76
g200
sg69
(lp207
S'None'
p208
asbasbasbag62
(g78
g64
NtRp209
(dp210
g67
(dp211
sg76
g72
sg69
(lp212
g62
(g83
g64
NtRp213
(dp214
g67
(dp215
g87
g88
ssg76
g209
sg69
(lp216
S'client'
p217
asbag62
(g83
g64
NtRp218
(dp219
g67
(dp220
g94
g95
ssg76
g209
sg69
(lp221
S':'
asbag62
(g83
g64
NtRp222
(dp223
g67
(dp224
sg76
g209
sg69
(lp225
g62
(g63
g64
NtRp226
(dp227
g67
(dp228
g75
I5
ssg76
g222
sg69
(lp229
S'127.0.0.1'
p230
asbasbasbag62
(g78
g64
NtRp231
(dp232
g67
(dp233
sg76
g72
sg69
(lp234
g62
(g83
g64
NtRp235
(dp236
g67
(dp237
g87
g88
ssg76
g231
sg69
(lp238
S'controller'
p239
asbag62
(g83
g64
NtRp240
(dp241
g67
(dp242
g94
g95
ssg76
g231
sg69
(lp243
S':'
asbag62
(g83
g64
NtRp244
(dp245
g67
(dp246
sg76
g231
sg69
(lp247
g62
(g63
g64
NtRp248
(dp249
g67
(dp250
g75
I5
ssg76
g244
sg69
(lp251
S'default'
p252
asbasbasbag62
(g78
g64
NtRp253
(dp254
g67
(dp255
sg76
g72
sg69
(lp256
g62
(g83
g64
NtRp257
(dp258
g67
(dp259
g87
g88
ssg76
g253
sg69
(lp260
S'cookies'
p261
asbag62
(g83
g64
NtRp262
(dp263
g67
(dp264
g94
g95
ssg76
g253
sg69
(lp265
S':'
asbag62
(g83
g64
NtRp266
(dp267
g67
(dp268
sg76
g253
sg69
(lp269
g62
(g63
g64
NtRp270
(dp271
g67
(dp272
g75
I5
ssg76
g266
sg69
(lp273
g62
(g71
g64
NtRp274
(dp275
g67
(dp276
g75
I4
ssg76
Nsg69
(lp277
g62
(g78
g64
NtRp278
(dp279
g67
(dp280
sg76
g274
sg69
(lp281
g62
(g83
g64
NtRp282
(dp283
g67
(dp284
g87
g88
ssg76
g278
sg69
(lp285
S'session_id_admin'
p286
asbag62
(g83
g64
NtRp287
(dp288
g67
(dp289
g94
g95
ssg76
g278
sg69
(lp290
S':'
asbag62
(g83
g64
NtRp291
(dp292
g67
(dp293
sg76
g278
sg69
(lp294
g62
(g63
g64
NtRp295
(dp296
g67
(dp297
g75
I4
ssg76
g291
sg69
(lp298
S'127.0.0.1-b09474c4-74c6-4bff-864d-e3d6c3b6e87e'
p299
ag62
(g71
g64
NtRp300
(dp301
g67
(dp302
g75
I3
ssg76
Nsg69
(lp303
g62
(g78
g64
NtRp304
(dp305
g67
(dp306
sg76
g300
sg69
(lp307
g62
(g83
g64
NtRp308
(dp309
g67
(dp310
g87
g88
ssg76
g304
sg69
(lp311
S'comment'
p312
asbag62
(g83
g64
NtRp313
(dp314
g67
(dp315
g94
g95
ssg76
g304
sg69
(lp316
S':'
asbag62
(g83
g64
NtRp317
(dp318
g67
(dp319
sg76
g304
sg69
(lp320
g62
(g63
g64
NtRp321
(dp322
g67
(dp323
g75
I3
ssg76
g317
sg69
(lp324
S''
asbasbasbag62
(g78
g64
NtRp325
(dp326
g67
(dp327
sg76
g300
sg69
(lp328
g62
(g83
g64
NtRp329
(dp330
g67
(dp331
g87
g88
ssg76
g325
sg69
(lp332
S'domain'
p333
asbag62
(g83
g64
NtRp334
(dp335
g67
(dp336
g94
g95
ssg76
g325
sg69
(lp337
S':'
asbag62
(g83
g64
NtRp338
(dp339
g67
(dp340
sg76
g325
sg69
(lp341
g62
(g63
g64
NtRp342
(dp343
g67
(dp344
g75
I3
ssg76
g338
sg69
(lp345
S''
asbasbasbag62
(g78
g64
NtRp346
(dp347
g67
(dp348
sg76
g300
sg69
(lp349
g62
(g83
g64
NtRp350
(dp351
g67
(dp352
g87
g88
ssg76
g346
sg69
(lp353
S'expires'
p354
asbag62
(g83
g64
NtRp355
(dp356
g67
(dp357
g94
g95
ssg76
g346
sg69
(lp358
S':'
asbag62
(g83
g64
NtRp359
(dp360
g67
(dp361
sg76
g346
sg69
(lp362
g62
(g63
g64
NtRp363
(dp364
g67
(dp365
g75
I3
ssg76
g359
sg69
(lp366
S''
asbasbasbag62
(g78
g64
NtRp367
(dp368
g67
(dp369
sg76
g300
sg69
(lp370
g62
(g83
g64
NtRp371
(dp372
g67
(dp373
g87
g88
ssg76
g367
sg69
(lp374
S'httponly'
p375
asbag62
(g83
g64
NtRp376
(dp377
g67
(dp378
g94
g95
ssg76
g367
sg69
(lp379
S':'
asbag62
(g83
g64
NtRp380
(dp381
g67
(dp382
sg76
g367
sg69
(lp383
g62
(g63
g64
NtRp384
(dp385
g67
(dp386
g75
I3
ssg76
g380
sg69
(lp387
S''
asbasbasbag62
(g78
g64
NtRp388
(dp389
g67
(dp390
sg76
g300
sg69
(lp391
g62
(g83
g64
NtRp392
(dp393
g67
(dp394
g87
g88
ssg76
g388
sg69
(lp395
S'max-age'
p396
asbag62
(g83
g64
NtRp397
(dp398
g67
(dp399
g94
g95
ssg76
g388
sg69
(lp400
S':'
asbag62
(g83
g64
NtRp401
(dp402
g67
(dp403
sg76
g388
sg69
(lp404
g62
(g63
g64
NtRp405
(dp406
g67
(dp407
g75
I3
ssg76
g401
sg69
(lp408
S''
asbasbasbag62
(g78
g64
NtRp409
(dp410
g67
(dp411
sg76
g300
sg69
(lp412
g62
(g83
g64
NtRp413
(dp414
g67
(dp415
g87
g88
ssg76
g409
sg69
(lp416
S'path'
p417
asbag62
(g83
g64
NtRp418
(dp419
g67
(dp420
g94
g95
ssg76
g409
sg69
(lp421
S':'
asbag62
(g83
g64
NtRp422
(dp423
g67
(dp424
sg76
g409
sg69
(lp425
g62
(g63
g64
NtRp426
(dp427
g67
(dp428
g75
I3
ssg76
g422
sg69
(lp429
S''
asbasbasbag62
(g78
g64
NtRp430
(dp431
g67
(dp432
sg76
g300
sg69
(lp433
g62
(g83
g64
NtRp434
(dp435
g67
(dp436
g87
g88
ssg76
g430
sg69
(lp437
S'secure'
p438
asbag62
(g83
g64
NtRp439
(dp440
g67
(dp441
g94
g95
ssg76
g430
sg69
(lp442
S':'
asbag62
(g83
g64
NtRp443
(dp444
g67
(dp445
sg76
g430
sg69
(lp446
g62
(g63
g64
NtRp447
(dp448
g67
(dp449
g75
I3
ssg76
g443
sg69
(lp450
S''
asbasbasbag62
(g78
g64
NtRp451
(dp452
g67
(dp453
sg76
g300
sg69
(lp454
g62
(g83
g64
NtRp455
(dp456
g67
(dp457
g87
g88
ssg76
g451
sg69
(lp458
S'version'
p459
asbag62
(g83
g64
NtRp460
(dp461
g67
(dp462
g94
g95
ssg76
g451
sg69
(lp463
S':'
asbag62
(g83
g64
NtRp464
(dp465
g67
(dp466
sg76
g451
sg69
(lp467
g62
(g63
g64
NtRp468
(dp469
g67
(dp470
g75
I3
ssg76
g464
sg69
(lp471
S''
asbasbasbasbasbasbasbag62
(g78
g64
NtRp472
(dp473
g67
(dp474
sg76
g274
sg69
(lp475
g62
(g83
g64
NtRp476
(dp477
g67
(dp478
g87
g88
ssg76
g472
sg69
(lp479
S'session_id_init'
p480
asbag62
(g83
g64
NtRp481
(dp482
g67
(dp483
g94
g95
ssg76
g472
sg69
(lp484
S':'
asbag62
(g83
g64
NtRp485
(dp486
g67
(dp487
sg76
g472
sg69
(lp488
g62
(g63
g64
NtRp489
(dp490
g67
(dp491
g75
I4
ssg76
g485
sg69
(lp492
S'127.0.0.1-6078939d-922f-428b-b405-987576949430'
p493
ag62
(g71
g64
NtRp494
(dp495
g67
(dp496
g75
I3
ssg76
Nsg69
(lp497
g62
(g78
g64
NtRp498
(dp499
g67
(dp500
sg76
g494
sg69
(lp501
g62
(g83
g64
NtRp502
(dp503
g67
(dp504
g87
g88
ssg76
g498
sg69
(lp505
g312
asbag62
(g83
g64
NtRp506
(dp507
g67
(dp508
g94
g95
ssg76
g498
sg69
(lp509
S':'
asbag62
(g83
g64
NtRp510
(dp511
g67
(dp512
sg76
g498
sg69
(lp513
g62
(g63
g64
NtRp514
(dp515
g67
(dp516
g75
I3
ssg76
g510
sg69
(lp517
S''
asbasbasbag62
(g78
g64
NtRp518
(dp519
g67
(dp520
sg76
g494
sg69
(lp521
g62
(g83
g64
NtRp522
(dp523
g67
(dp524
g87
g88
ssg76
g518
sg69
(lp525
g333
asbag62
(g83
g64
NtRp526
(dp527
g67
(dp528
g94
g95
ssg76
g518
sg69
(lp529
S':'
asbag62
(g83
g64
NtRp530
(dp531
g67
(dp532
sg76
g518
sg69
(lp533
g62
(g63
g64
NtRp534
(dp535
g67
(dp536
g75
I3
ssg76
g530
sg69
(lp537
S''
asbasbasbag62
(g78
g64
NtRp538
(dp539
g67
(dp540
sg76
g494
sg69
(lp541
g62
(g83
g64
NtRp542
(dp543
g67
(dp544
g87
g88
ssg76
g538
sg69
(lp545
g354
asbag62
(g83
g64
NtRp546
(dp547
g67
(dp548
g94
g95
ssg76
g538
sg69
(lp549
S':'
asbag62
(g83
g64
NtRp550
(dp551
g67
(dp552
sg76
g538
sg69
(lp553
g62
(g63
g64
NtRp554
(dp555
g67
(dp556
g75
I3
ssg76
g550
sg69
(lp557
S''
asbasbasbag62
(g78
g64
NtRp558
(dp559
g67
(dp560
sg76
g494
sg69
(lp561
g62
(g83
g64
NtRp562
(dp563
g67
(dp564
g87
g88
ssg76
g558
sg69
(lp565
g375
asbag62
(g83
g64
NtRp566
(dp567
g67
(dp568
g94
g95
ssg76
g558
sg69
(lp569
S':'
asbag62
(g83
g64
NtRp570
(dp571
g67
(dp572
sg76
g558
sg69
(lp573
g62
(g63
g64
NtRp574
(dp575
g67
(dp576
g75
I3
ssg76
g570
sg69
(lp577
S''
asbasbasbag62
(g78
g64
NtRp578
(dp579
g67
(dp580
sg76
g494
sg69
(lp581
g62
(g83
g64
NtRp582
(dp583
g67
(dp584
g87
g88
ssg76
g578
sg69
(lp585
g396
asbag62
(g83
g64
NtRp586
(dp587
g67
(dp588
g94
g95
ssg76
g578
sg69
(lp589
S':'
asbag62
(g83
g64
NtRp590
(dp591
g67
(dp592
sg76
g578
sg69
(lp593
g62
(g63
g64
NtRp594
(dp595
g67
(dp596
g75
I3
ssg76
g590
sg69
(lp597
S''
asbasbasbag62
(g78
g64
NtRp598
(dp599
g67
(dp600
sg76
g494
sg69
(lp601
g62
(g83
g64
NtRp602
(dp603
g67
(dp604
g87
g88
ssg76
g598
sg69
(lp605
g417
asbag62
(g83
g64
NtRp606
(dp607
g67
(dp608
g94
g95
ssg76
g598
sg69
(lp609
S':'
asbag62
(g83
g64
NtRp610
(dp611
g67
(dp612
sg76
g598
sg69
(lp613
g62
(g63
g64
NtRp614
(dp615
g67
(dp616
g75
I3
ssg76
g610
sg69
(lp617
S''
asbasbasbag62
(g78
g64
NtRp618
(dp619
g67
(dp620
sg76
g494
sg69
(lp621
g62
(g83
g64
NtRp622
(dp623
g67
(dp624
g87
g88
ssg76
g618
sg69
(lp625
g438
asbag62
(g83
g64
NtRp626
(dp627
g67
(dp628
g94
g95
ssg76
g618
sg69
(lp629
S':'
asbag62
(g83
g64
NtRp630
(dp631
g67
(dp632
sg76
g618
sg69
(lp633
g62
(g63
g64
NtRp634
(dp635
g67
(dp636
g75
I3
ssg76
g630
sg69
(lp637
S''
asbasbasbag62
(g78
g64
NtRp638
(dp639
g67
(dp640
sg76
g494
sg69
(lp641
g62
(g83
g64
NtRp642
(dp643
g67
(dp644
g87
g88
ssg76
g638
sg69
(lp645
g459
asbag62
(g83
g64
NtRp646
(dp647
g67
(dp648
g94
g95
ssg76
g638
sg69
(lp649
S':'
asbag62
(g83
g64
NtRp650
(dp651
g67
(dp652
sg76
g638
sg69
(lp653
g62
(g63
g64
NtRp654
(dp655
g67
(dp656
g75
I3
ssg76
g650
sg69
(lp657
S''
asbasbasbasbasbasbasbasbasbasbasbag62
(g78
g64
NtRp658
(dp659
g67
(dp660
sg76
g72
sg69
(lp661
g62
(g83
g64
NtRp662
(dp663
g67
(dp664
g87
g88
ssg76
g658
sg69
(lp665
S'env'
p666
asbag62
(g83
g64
NtRp667
(dp668
g67
(dp669
g94
g95
ssg76
g658
sg69
(lp670
S':'
asbag62
(g83
g64
NtRp671
(dp672
g67
(dp673
sg76
g658
sg69
(lp674
g62
(g63
g64
NtRp675
(dp676
g67
(dp677
g75
I5
ssg76
g671
sg69
(lp678
g62
(g71
g64
NtRp679
(dp680
g67
(dp681
g75
I4
ssg76
Nsg69
(lp682
g62
(g78
g64
NtRp683
(dp684
g67
(dp685
sg76
g679
sg69
(lp686
g62
(g83
g64
NtRp687
(dp688
g67
(dp689
g87
g88
ssg76
g683
sg69
(lp690
S'app_folders'
p691
asbag62
(g83
g64
NtRp692
(dp693
g67
(dp694
g94
g95
ssg76
g683
sg69
(lp695
S':'
asbag62
(g83
g64
NtRp696
(dp697
g67
(dp698
sg76
g683
sg69
(lp699
g62
(g63
g64
NtRp700
(dp701
g67
(dp702
g75
I4
ssg76
g696
sg69
(lp703
S"set(['C:\\\\Users\\\\admin\\\\Desktop\\\\Sathvik\\\\Tharuni.Org\\\\applications\\\\init\\\\', 'C:\\\\Users\\\\admin\\\\Desktop\\\\Sathvik\\\\Tharuni.Org\\\\applications\\\\admin\\\\'])"
p704
asbasbasbag62
(g78
g64
NtRp705
(dp706
g67
(dp707
sg76
g679
sg69
(lp708
g62
(g83
g64
NtRp709
(dp710
g67
(dp711
g87
g88
ssg76
g705
sg69
(lp712
S'applications_parent'
p713
asbag62
(g83
g64
NtRp714
(dp715
g67
(dp716
g94
g95
ssg76
g705
sg69
(lp717
S':'
asbag62
(g83
g64
NtRp718
(dp719
g67
(dp720
sg76
g705
sg69
(lp721
g62
(g63
g64
NtRp722
(dp723
g67
(dp724
g75
I4
ssg76
g718
sg69
(lp725
S'C:\\Users\\admin\\Desktop\\Sathvik\\Tharuni.Org'
p726
asbasbasbag62
(g78
g64
NtRp727
(dp728
g67
(dp729
sg76
g679
sg69
(lp730
g62
(g83
g64
NtRp731
(dp732
g67
(dp733
g87
g88
ssg76
g727
sg69
(lp734
S'cmd_args'
p735
asbag62
(g83
g64
NtRp736
(dp737
g67
(dp738
g94
g95
ssg76
g727
sg69
(lp739
S':'
asbag62
(g83
g64
NtRp740
(dp741
g67
(dp742
sg76
g727
sg69
(lp743
g62
(g63
g64
NtRp744
(dp745
g67
(dp746
g75
I4
ssg76
g740
sg69
(lp747
g62
(g71
g64
NtRp748
(dp749
g67
(dp750
g75
I3
ssg76
Nsg69
(lp751
sbasbasbasbag62
(g78
g64
NtRp752
(dp753
g67
(dp754
sg76
g679
sg69
(lp755
g62
(g83
g64
NtRp756
(dp757
g67
(dp758
g87
g88
ssg76
g752
sg69
(lp759
S'cmd_options'
p760
asbag62
(g83
g64
NtRp761
(dp762
g67
(dp763
g94
g95
ssg76
g752
sg69
(lp764
S':'
asbag62
(g83
g64
NtRp765
(dp766
g67
(dp767
sg76
g752
sg69
(lp768
g62
(g63
g64
NtRp769
(dp770
g67
(dp771
g75
I4
ssg76
g765
sg69
(lp772
S"<Values at 0x36b4188: {'verbose': False, 'ip': '127.0.0.1', 'with_scheduler': False, 'ips': ['10.8.4.49', '192.168.1.132', '192.168.56.1', '192.168.166.1', '169.254.251.64'], 'shutdown_timeout': 5, 'taskbar': False, 'port': 8000, 'maxthreads': None, 'softcron': False, 'server_name': 'LP-US-002', 'bpython': False, 'nogui': False, 'nocron': False, 'extcron': False, 'run_system_tests': False, 'test': None, 'folder': 'C:\\\\Users\\\\admin\\\\Desktop\\\\Sathvik\\\\Tharuni.Org', 'config': '', 'import_models': False, 'winservice': '', 'shell': None, 'run': '', 'log_filename': 'httpserver.log', 'debuglevel': 30, 'args': [''], 'socket_timeout': 5, 'ssl_ca_certificate': None, 'scheduler': None, 'profiler_filename': None, 'ssl_private_key': '', 'scheduler_groups': None, 'password': '<ask>', 'request_queue_size': 5, 'ssl_certificate': '', 'cronjob': False, 'numthreads': None, 'quiet': False, 'interfaces': None, 'minthreads': None, 'timeout': 10, 'plain': False, 'nobanner': False, 'pid_filename': 'httpserver.pid'}>"
p773
asbasbasbag62
(g78
g64
NtRp774
(dp775
g67
(dp776
sg76
g679
sg69
(lp777
g62
(g83
g64
NtRp778
(dp779
g67
(dp780
g87
g88
ssg76
g774
sg69
(lp781
S'db_sessions'
p782
asbag62
(g83
g64
NtRp783
(dp784
g67
(dp785
g94
g95
ssg76
g774
sg69
(lp786
S':'
asbag62
(g83
g64
NtRp787
(dp788
g67
(dp789
sg76
g774
sg69
(lp790
g62
(g63
g64
NtRp791
(dp792
g67
(dp793
g75
I4
ssg76
g787
sg69
(lp794
S'set([])'
p795
asbasbasbag62
(g78
g64
NtRp796
(dp797
g67
(dp798
sg76
g679
sg69
(lp799
g62
(g83
g64
NtRp800
(dp801
g67
(dp802
g87
g88
ssg76
g796
sg69
(lp803
S'debugging'
p804
asbag62
(g83
g64
NtRp805
(dp806
g67
(dp807
g94
g95
ssg76
g796
sg69
(lp808
S':'
asbag62
(g83
g64
NtRp809
(dp810
g67
(dp811
sg76
g796
sg69
(lp812
g62
(g63
g64
NtRp813
(dp814
g67
(dp815
g75
I4
ssg76
g809
sg69
(lp816
g105
asbasbasbag62
(g78
g64
NtRp817
(dp818
g67
(dp819
sg76
g679
sg69
(lp820
g62
(g83
g64
NtRp821
(dp822
g67
(dp823
g87
g88
ssg76
g817
sg69
(lp824
S'gluon_parent'
p825
asbag62
(g83
g64
NtRp826
(dp827
g67
(dp828
g94
g95
ssg76
g817
sg69
(lp829
S':'
asbag62
(g83
g64
NtRp830
(dp831
g67
(dp832
sg76
g817
sg69
(lp833
g62
(g63
g64
NtRp834
(dp835
g67
(dp836
g75
I4
ssg76
g830
sg69
(lp837
S'C:\\Users\\admin\\Desktop\\Sathvik\\Tharuni.Org'
p838
asbasbasbag62
(g78
g64
NtRp839
(dp840
g67
(dp841
sg76
g679
sg69
(lp842
g62
(g83
g64
NtRp843
(dp844
g67
(dp845
g87
g88
ssg76
g839
sg69
(lp846
S'http_accept'
p847
asbag62
(g83
g64
NtRp848
(dp849
g67
(dp850
g94
g95
ssg76
g839
sg69
(lp851
S':'
asbag62
(g83
g64
NtRp852
(dp853
g67
(dp854
sg76
g839
sg69
(lp855
g62
(g63
g64
NtRp856
(dp857
g67
(dp858
g75
I4
ssg76
g852
sg69
(lp859
S'text/html,application/xhtml+xml,application/xml;q=0.9,*/*;q=0.8'
p860
asbasbasbag62
(g78
g64
NtRp861
(dp862
g67
(dp863
sg76
g679
sg69
(lp864
g62
(g83
g64
NtRp865
(dp866
g67
(dp867
g87
g88
ssg76
g861
sg69
(lp868
S'http_accept_charset'
p869
asbag62
(g83
g64
NtRp870
(dp871
g67
(dp872
g94
g95
ssg76
g861
sg69
(lp873
S':'
asbag62
(g83
g64
NtRp874
(dp875
g67
(dp876
sg76
g861
sg69
(lp877
g62
(g63
g64
NtRp878
(dp879
g67
(dp880
g75
I4
ssg76
g874
sg69
(lp881
S'ISO-8859-1,utf-8;q=0.7,*;q=0.3'
p882
asbasbasbag62
(g78
g64
NtRp883
(dp884
g67
(dp885
sg76
g679
sg69
(lp886
g62
(g83
g64
NtRp887
(dp888
g67
(dp889
g87
g88
ssg76
g883
sg69
(lp890
S'http_accept_encoding'
p891
asbag62
(g83
g64
NtRp892
(dp893
g67
(dp894
g94
g95
ssg76
g883
sg69
(lp895
S':'
asbag62
(g83
g64
NtRp896
(dp897
g67
(dp898
sg76
g883
sg69
(lp899
g62
(g63
g64
NtRp900
(dp901
g67
(dp902
g75
I4
ssg76
g896
sg69
(lp903
S'gzip,deflate,sdch'
p904
asbasbasbag62
(g78
g64
NtRp905
(dp906
g67
(dp907
sg76
g679
sg69
(lp908
g62
(g83
g64
NtRp909
(dp910
g67
(dp911
g87
g88
ssg76
g905
sg69
(lp912
S'http_accept_language'
p913
asbag62
(g83
g64
NtRp914
(dp915
g67
(dp916
g94
g95
ssg76
g905
sg69
(lp917
S':'
asbag62
(g83
g64
NtRp918
(dp919
g67
(dp920
sg76
g905
sg69
(lp921
g62
(g63
g64
NtRp922
(dp923
g67
(dp924
g75
I4
ssg76
g918
sg69
(lp925
S'en-US,en;q=0.8'
p926
asbasbasbag62
(g78
g64
NtRp927
(dp928
g67
(dp929
sg76
g679
sg69
(lp930
g62
(g83
g64
NtRp931
(dp932
g67
(dp933
g87
g88
ssg76
g927
sg69
(lp934
S'http_connection'
p935
asbag62
(g83
g64
NtRp936
(dp937
g67
(dp938
g94
g95
ssg76
g927
sg69
(lp939
S':'
asbag62
(g83
g64
NtRp940
(dp941
g67
(dp942
sg76
g927
sg69
(lp943
g62
(g63
g64
NtRp944
(dp945
g67
(dp946
g75
I4
ssg76
g940
sg69
(lp947
S'keep-alive'
p948
asbasbasbag62
(g78
g64
NtRp949
(dp950
g67
(dp951
sg76
g679
sg69
(lp952
g62
(g83
g64
NtRp953
(dp954
g67
(dp955
g87
g88
ssg76
g949
sg69
(lp956
S'http_cookie'
p957
asbag62
(g83
g64
NtRp958
(dp959
g67
(dp960
g94
g95
ssg76
g949
sg69
(lp961
S':'
asbag62
(g83
g64
NtRp962
(dp963
g67
(dp964
sg76
g949
sg69
(lp965
g62
(g63
g64
NtRp966
(dp967
g67
(dp968
g75
I4
ssg76
g962
sg69
(lp969
S'__utma=96992031.1435691907.1350205259.1350205259.1350208853.2; __utmb=96992031.13.10.1350208853; __utmc=96992031; __utmz=96992031.1350205259.1.1.utmcsr=(direct)|utmccn=(direct)|utmcmd=(none); session_id_init=127.0.0.1-6078939d-922f-428b-b405-987576949430; session_id_admin=127.0.0.1-b09474c4-74c6-4bff-864d-e3d6c3b6e87e'
p970
asbasbasbag62
(g78
g64
NtRp971
(dp972
g67
(dp973
sg76
g679
sg69
(lp974
g62
(g83
g64
NtRp975
(dp976
g67
(dp977
g87
g88
ssg76
g971
sg69
(lp978
S'http_host'
p979
asbag62
(g83
g64
NtRp980
(dp981
g67
(dp982
g94
g95
ssg76
g971
sg69
(lp983
S':'
asbag62
(g83
g64
NtRp984
(dp985
g67
(dp986
sg76
g971
sg69
(lp987
g62
(g63
g64
NtRp988
(dp989
g67
(dp990
g75
I4
ssg76
g984
sg69
(lp991
S'127.0.0.1:8000'
p992
asbasbasbag62
(g78
g64
NtRp993
(dp994
g67
(dp995
sg76
g679
sg69
(lp996
g62
(g83
g64
NtRp997
(dp998
g67
(dp999
g87
g88
ssg76
g993
sg69
(lp1000
S'http_referer'
p1001
asbag62
(g83
g64
NtRp1002
(dp1003
g67
(dp1004
g94
g95
ssg76
g993
sg69
(lp1005
S':'
asbag62
(g83
g64
NtRp1006
(dp1007
g67
(dp1008
sg76
g993
sg69
(lp1009
g62
(g63
g64
NtRp1010
(dp1011
g67
(dp1012
g75
I4
ssg76
g1006
sg69
(lp1013
S'http://127.0.0.1:8000/admin/default/design/init'
p1014
asbasbasbag62
(g78
g64
NtRp1015
(dp1016
g67
(dp1017
sg76
g679
sg69
(lp1018
g62
(g83
g64
NtRp1019
(dp1020
g67
(dp1021
g87
g88
ssg76
g1015
sg69
(lp1022
S'http_user_agent'
p1023
asbag62
(g83
g64
NtRp1024
(dp1025
g67
(dp1026
g94
g95
ssg76
g1015
sg69
(lp1027
S':'
asbag62
(g83
g64
NtRp1028
(dp1029
g67
(dp1030
sg76
g1015
sg69
(lp1031
g62
(g63
g64
NtRp1032
(dp1033
g67
(dp1034
g75
I4
ssg76
g1028
sg69
(lp1035
S'Mozilla/5.0 (Windows NT 6.1; WOW64) AppleWebKit/537.4 (KHTML, like Gecko) Chrome/22.0.1229.91 Safari/537.4'
p1036
asbasbasbag62
(g78
g64
NtRp1037
(dp1038
g67
(dp1039
sg76
g679
sg69
(lp1040
g62
(g83
g64
NtRp1041
(dp1042
g67
(dp1043
g87
g88
ssg76
g1037
sg69
(lp1044
S'is_jython'
p1045
asbag62
(g83
g64
NtRp1046
(dp1047
g67
(dp1048
g94
g95
ssg76
g1037
sg69
(lp1049
S':'
asbag62
(g83
g64
NtRp1050
(dp1051
g67
(dp1052
sg76
g1037
sg69
(lp1053
g62
(g63
g64
NtRp1054
(dp1055
g67
(dp1056
g75
I4
ssg76
g1050
sg69
(lp1057
g105
asbasbasbag62
(g78
g64
NtRp1058
(dp1059
g67
(dp1060
sg76
g679
sg69
(lp1061
g62
(g83
g64
NtRp1062
(dp1063
g67
(dp1064
g87
g88
ssg76
g1058
sg69
(lp1065
S'is_pypy'
p1066
asbag62
(g83
g64
NtRp1067
(dp1068
g67
(dp1069
g94
g95
ssg76
g1058
sg69
(lp1070
S':'
asbag62
(g83
g64
NtRp1071
(dp1072
g67
(dp1073
sg76
g1058
sg69
(lp1074
g62
(g63
g64
NtRp1075
(dp1076
g67
(dp1077
g75
I4
ssg76
g1071
sg69
(lp1078
g105
asbasbasbag62
(g78
g64
NtRp1079
(dp1080
g67
(dp1081
sg76
g679
sg69
(lp1082
g62
(g83
g64
NtRp1083
(dp1084
g67
(dp1085
g87
g88
ssg76
g1079
sg69
(lp1086
S'path_info'
p1087
asbag62
(g83
g64
NtRp1088
(dp1089
g67
(dp1090
g94
g95
ssg76
g1079
sg69
(lp1091
S':'
asbag62
(g83
g64
NtRp1092
(dp1093
g67
(dp1094
sg76
g1079
sg69
(lp1095
g62
(g63
g64
NtRp1096
(dp1097
g67
(dp1098
g75
I4
ssg76
g1092
sg69
(lp1099
S'/admin/default/about/init'
p1100
asbasbasbag62
(g78
g64
NtRp1101
(dp1102
g67
(dp1103
sg76
g679
sg69
(lp1104
g62
(g83
g64
NtRp1105
(dp1106
g67
(dp1107
g87
g88
ssg76
g1101
sg69
(lp1108
S'query_string'
p1109
asbag62
(g83
g64
NtRp1110
(dp1111
g67
(dp1112
g94
g95
ssg76
g1101
sg69
(lp1113
S':'
asbag62
(g83
g64
NtRp1114
(dp1115
g67
(dp1116
sg76
g1101
sg69
(lp1117
g62
(g63
g64
NtRp1118
(dp1119
g67
(dp1120
g75
I4
ssg76
g1114
sg69
(lp1121
S''
asbasbasbag62
(g78
g64
NtRp1122
(dp1123
g67
(dp1124
sg76
g679
sg69
(lp1125
g62
(g83
g64
NtRp1126
(dp1127
g67
(dp1128
g87
g88
ssg76
g1122
sg69
(lp1129
S'remote_addr'
p1130
asbag62
(g83
g64
NtRp1131
(dp1132
g67
(dp1133
g94
g95
ssg76
g1122
sg69
(lp1134
S':'
asbag62
(g83
g64
NtRp1135
(dp1136
g67
(dp1137
sg76
g1122
sg69
(lp1138
g62
(g63
g64
NtRp1139
(dp1140
g67
(dp1141
g75
I4
ssg76
g1135
sg69
(lp1142
g230
asbasbasbag62
(g78
g64
NtRp1143
(dp1144
g67
(dp1145
sg76
g679
sg69
(lp1146
g62
(g83
g64
NtRp1147
(dp1148
g67
(dp1149
g87
g88
ssg76
g1143
sg69
(lp1150
S'remote_port'
p1151
asbag62
(g83
g64
NtRp1152
(dp1153
g67
(dp1154
g94
g95
ssg76
g1143
sg69
(lp1155
S':'
asbag62
(g83
g64
NtRp1156
(dp1157
g67
(dp1158
sg76
g1143
sg69
(lp1159
g62
(g63
g64
NtRp1160
(dp1161
g67
(dp1162
g75
I4
ssg76
g1156
sg69
(lp1163
S'51663'
p1164
asbasbasbag62
(g78
g64
NtRp1165
(dp1166
g67
(dp1167
sg76
g679
sg69
(lp1168
g62
(g83
g64
NtRp1169
(dp1170
g67
(dp1171
g87
g88
ssg76
g1165
sg69
(lp1172
S'request_method'
p1173
asbag62
(g83
g64
NtRp1174
(dp1175
g67
(dp1176
g94
g95
ssg76
g1165
sg69
(lp1177
S':'
asbag62
(g83
g64
NtRp1178
(dp1179
g67
(dp1180
sg76
g1165
sg69
(lp1181
g62
(g63
g64
NtRp1182
(dp1183
g67
(dp1184
g75
I4
ssg76
g1178
sg69
(lp1185
S'GET'
p1186
asbasbasbag62
(g78
g64
NtRp1187
(dp1188
g67
(dp1189
sg76
g679
sg69
(lp1190
g62
(g83
g64
NtRp1191
(dp1192
g67
(dp1193
g87
g88
ssg76
g1187
sg69
(lp1194
S'request_uri'
p1195
asbag62
(g83
g64
NtRp1196
(dp1197
g67
(dp1198
g94
g95
ssg76
g1187
sg69
(lp1199
S':'
asbag62
(g83
g64
NtRp1200
(dp1201
g67
(dp1202
sg76
g1187
sg69
(lp1203
g62
(g63
g64
NtRp1204
(dp1205
g67
(dp1206
g75
I4
ssg76
g1200
sg69
(lp1207
g1100
asbasbasbag62
(g78
g64
NtRp1208
(dp1209
g67
(dp1210
sg76
g679
sg69
(lp1211
g62
(g83
g64
NtRp1212
(dp1213
g67
(dp1214
g87
g88
ssg76
g1208
sg69
(lp1215
S'script_name'
p1216
asbag62
(g83
g64
NtRp1217
(dp1218
g67
(dp1219
g94
g95
ssg76
g1208
sg69
(lp1220
S':'
asbag62
(g83
g64
NtRp1221
(dp1222
g67
(dp1223
sg76
g1208
sg69
(lp1224
g62
(g63
g64
NtRp1225
(dp1226
g67
(dp1227
g75
I4
ssg76
g1221
sg69
(lp1228
S''
asbasbasbag62
(g78
g64
NtRp1229
(dp1230
g67
(dp1231
sg76
g679
sg69
(lp1232
g62
(g83
g64
NtRp1233
(dp1234
g67
(dp1235
g87
g88
ssg76
g1229
sg69
(lp1236
S'server_name'
p1237
asbag62
(g83
g64
NtRp1238
(dp1239
g67
(dp1240
g94
g95
ssg76
g1229
sg69
(lp1241
S':'
asbag62
(g83
g64
NtRp1242
(dp1243
g67
(dp1244
sg76
g1229
sg69
(lp1245
g62
(g63
g64
NtRp1246
(dp1247
g67
(dp1248
g75
I4
ssg76
g1242
sg69
(lp1249
S'LP-US-002'
p1250
asbasbasbag62
(g78
g64
NtRp1251
(dp1252
g67
(dp1253
sg76
g679
sg69
(lp1254
g62
(g83
g64
NtRp1255
(dp1256
g67
(dp1257
g87
g88
ssg76
g1251
sg69
(lp1258
S'server_port'
p1259
asbag62
(g83
g64
NtRp1260
(dp1261
g67
(dp1262
g94
g95
ssg76
g1251
sg69
(lp1263
S':'
asbag62
(g83
g64
NtRp1264
(dp1265
g67
(dp1266
sg76
g1251
sg69
(lp1267
g62
(g63
g64
NtRp1268
(dp1269
g67
(dp1270
g75
I4
ssg76
g1264
sg69
(lp1271
S'8000'
p1272
asbasbasbag62
(g78
g64
NtRp1273
(dp1274
g67
(dp1275
sg76
g679
sg69
(lp1276
g62
(g83
g64
NtRp1277
(dp1278
g67
(dp1279
g87
g88
ssg76
g1273
sg69
(lp1280
S'server_protocol'
p1281
asbag62
(g83
g64
NtRp1282
(dp1283
g67
(dp1284
g94
g95
ssg76
g1273
sg69
(lp1285
S':'
asbag62
(g83
g64
NtRp1286
(dp1287
g67
(dp1288
sg76
g1273
sg69
(lp1289
g62
(g63
g64
NtRp1290
(dp1291
g67
(dp1292
g75
I4
ssg76
g1286
sg69
(lp1293
S'HTTP/1.1'
p1294
asbasbasbag62
(g78
g64
NtRp1295
(dp1296
g67
(dp1297
sg76
g679
sg69
(lp1298
g62
(g83
g64
NtRp1299
(dp1300
g67
(dp1301
g87
g88
ssg76
g1295
sg69
(lp1302
S'server_software'
p1303
asbag62
(g83
g64
NtRp1304
(dp1305
g67
(dp1306
g94
g95
ssg76
g1295
sg69
(lp1307
S':'
asbag62
(g83
g64
NtRp1308
(dp1309
g67
(dp1310
sg76
g1295
sg69
(lp1311
g62
(g63
g64
NtRp1312
(dp1313
g67
(dp1314
g75
I4
ssg76
g1308
sg69
(lp1315
S'Rocket 1.2.4'
p1316
asbasbasbag62
(g78
g64
NtRp1317
(dp1318
g67
(dp1319
sg76
g679
sg69
(lp1320
g62
(g83
g64
NtRp1321
(dp1322
g67
(dp1323
g87
g88
ssg76
g1317
sg69
(lp1324
S'web2py_crontype'
p1325
asbag62
(g83
g64
NtRp1326
(dp1327
g67
(dp1328
g94
g95
ssg76
g1317
sg69
(lp1329
S':'
asbag62
(g83
g64
NtRp1330
(dp1331
g67
(dp1332
sg76
g1317
sg69
(lp1333
g62
(g63
g64
NtRp1334
(dp1335
g67
(dp1336
g75
I4
ssg76
g1330
sg69
(lp1337
S'hard'
p1338
asbasbasbag62
(g78
g64
NtRp1339
(dp1340
g67
(dp1341
sg76
g679
sg69
(lp1342
g62
(g83
g64
NtRp1343
(dp1344
g67
(dp1345
g87
g88
ssg76
g1339
sg69
(lp1346
S'web2py_original_uri'
p1347
asbag62
(g83
g64
NtRp1348
(dp1349
g67
(dp1350
g94
g95
ssg76
g1339
sg69
(lp1351
S':'
asbag62
(g83
g64
NtRp1352
(dp1353
g67
(dp1354
sg76
g1339
sg69
(lp1355
g62
(g63
g64
NtRp1356
(dp1357
g67
(dp1358
g75
I4
ssg76
g1352
sg69
(lp1359
g1100
asbasbasbag62
(g78
g64
NtRp1360
(dp1361
g67
(dp1362
sg76
g679
sg69
(lp1363
g62
(g83
g64
NtRp1364
(dp1365
g67
(dp1366
g87
g88
ssg76
g1360
sg69
(lp1367
S'web2py_path'
p1368
asbag62
(g83
g64
NtRp1369
(dp1370
g67
(dp1371
g94
g95
ssg76
g1360
sg69
(lp1372
S':'
asbag62
(g83
g64
NtRp1373
(dp1374
g67
(dp1375
sg76
g1360
sg69
(lp1376
g62
(g63
g64
NtRp1377
(dp1378
g67
(dp1379
g75
I4
ssg76
g1373
sg69
(lp1380
g726
asbasbasbag62
(g78
g64
NtRp1381
(dp1382
g67
(dp1383
sg76
g679
sg69
(lp1384
g62
(g83
g64
NtRp1385
(dp1386
g67
(dp1387
g87
g88
ssg76
g1381
sg69
(lp1388
S'web2py_version'
p1389
asbag62
(g83
g64
NtRp1390
(dp1391
g67
(dp1392
g94
g95
ssg76
g1381
sg69
(lp1393
S':'
asbag62
(g83
g64
NtRp1394
(dp1395
g67
(dp1396
sg76
g1381
sg69
(lp1397
g62
(g63
g64
NtRp1398
(dp1399
g67
(dp1400
g75
I4
ssg76
g1394
sg69
(lp1401
g62
(g71
g64
NtRp1402
(dp1403
g67
(dp1404
g75
I3
ssg76
Nsg69
(lp1405
g62
(g78
g64
NtRp1406
(dp1407
g67
(dp1408
sg76
g1402
sg69
(lp1409
g62
(g83
g64
NtRp1410
(dp1411
g67
(dp1412
sg76
g1406
sg69
(lp1413
g62
(g63
g64
NtRp1414
(dp1415
g67
(dp1416
g75
I3
ssg76
g1410
sg69
(lp1417
S'2'
asbasbasbag62
(g78
g64
NtRp1418
(dp1419
g67
(dp1420
sg76
g1402
sg69
(lp1421
g62
(g83
g64
NtRp1422
(dp1423
g67
(dp1424
sg76
g1418
sg69
(lp1425
g62
(g63
g64
NtRp1426
(dp1427
g67
(dp1428
g75
I3
ssg76
g1422
sg69
(lp1429
S'0'
asbasbasbag62
(g78
g64
NtRp1430
(dp1431
g67
(dp1432
sg76
g1402
sg69
(lp1433
g62
(g83
g64
NtRp1434
(dp1435
g67
(dp1436
sg76
g1430
sg69
(lp1437
g62
(g63
g64
NtRp1438
(dp1439
g67
(dp1440
g75
I3
ssg76
g1434
sg69
(lp1441
S'9'
asbasbasbag62
(g78
g64
NtRp1442
(dp1443
g67
(dp1444
sg76
g1402
sg69
(lp1445
g62
(g83
g64
NtRp1446
(dp1447
g67
(dp1448
sg76
g1442
sg69
(lp1449
g62
(g63
g64
NtRp1450
(dp1451
g67
(dp1452
g75
I3
ssg76
g1446
sg69
(lp1453
S'datetime.datetime(2012, 9, 13, 23, 51, 30)'
p1454
asbasbasbag62
(g78
g64
NtRp1455
(dp1456
g67
(dp1457
sg76
g1402
sg69
(lp1458
g62
(g83
g64
NtRp1459
(dp1460
g67
(dp1461
sg76
g1455
sg69
(lp1462
g62
(g63
g64
NtRp1463
(dp1464
g67
(dp1465
g75
I3
ssg76
g1459
sg69
(lp1466
S'stable'
p1467
asbasbasbasbasbasbasbag62
(g78
g64
NtRp1468
(dp1469
g67
(dp1470
sg76
g679
sg69
(lp1471
g62
(g83
g64
NtRp1472
(dp1473
g67
(dp1474
g87
g88
ssg76
g1468
sg69
(lp1475
S'wsgi_errors'
p1476
asbag62
(g83
g64
NtRp1477
(dp1478
g67
(dp1479
g94
g95
ssg76
g1468
sg69
(lp1480
S':'
asbag62
(g83
g64
NtRp1481
(dp1482
g67
(dp1483
sg76
g1468
sg69
(lp1484
g62
(g63
g64
NtRp1485
(dp1486
g67
(dp1487
g75
I4
ssg76
g1481
sg69
(lp1488
S"<open file '<stderr>', mode 'w' at 0x0000000001DDE1E0>"
p1489
asbasbasbag62
(g78
g64
NtRp1490
(dp1491
g67
(dp1492
sg76
g679
sg69
(lp1493
g62
(g83
g64
NtRp1494
(dp1495
g67
(dp1496
g87
g88
ssg76
g1490
sg69
(lp1497
S'wsgi_file_wrapper'
p1498
asbag62
(g83
g64
NtRp1499
(dp1500
g67
(dp1501
g94
g95
ssg76
g1490
sg69
(lp1502
S':'
asbag62
(g83
g64
NtRp1503
(dp1504
g67
(dp1505
sg76
g1490
sg69
(lp1506
g62
(g63
g64
NtRp1507
(dp1508
g67
(dp1509
g75
I4
ssg76
g1503
sg69
(lp1510
S'<class wsgiref.util.FileWrapper at 0x00000000041E25E8>'
p1511
asbasbasbag62
(g78
g64
NtRp1512
(dp1513
g67
(dp1514
sg76
g679
sg69
(lp1515
g62
(g83
g64
NtRp1516
(dp1517
g67
(dp1518
g87
g88
ssg76
g1512
sg69
(lp1519
S'wsgi_input'
p1520
asbag62
(g83
g64
NtRp1521
(dp1522
g67
(dp1523
g94
g95
ssg76
g1512
sg69
(lp1524
S':'
asbag62
(g83
g64
NtRp1525
(dp1526
g67
(dp1527
sg76
g1512
sg69
(lp1528
g62
(g63
g64
NtRp1529
(dp1530
g67
(dp1531
g75
I4
ssg76
g1525
sg69
(lp1532
S'<socket._fileobject object at 0x0000000008754138>'
p1533
asbasbasbag62
(g78
g64
NtRp1534
(dp1535
g67
(dp1536
sg76
g679
sg69
(lp1537
g62
(g83
g64
NtRp1538
(dp1539
g67
(dp1540
g87
g88
ssg76
g1534
sg69
(lp1541
S'wsgi_multiprocess'
p1542
asbag62
(g83
g64
NtRp1543
(dp1544
g67
(dp1545
g94
g95
ssg76
g1534
sg69
(lp1546
S':'
asbag62
(g83
g64
NtRp1547
(dp1548
g67
(dp1549
sg76
g1534
sg69
(lp1550
g62
(g63
g64
NtRp1551
(dp1552
g67
(dp1553
g75
I4
ssg76
g1547
sg69
(lp1554
g105
asbasbasbag62
(g78
g64
NtRp1555
(dp1556
g67
(dp1557
sg76
g679
sg69
(lp1558
g62
(g83
g64
NtRp1559
(dp1560
g67
(dp1561
g87
g88
ssg76
g1555
sg69
(lp1562
S'wsgi_multithread'
p1563
asbag62
(g83
g64
NtRp1564
(dp1565
g67
(dp1566
g94
g95
ssg76
g1555
sg69
(lp1567
S':'
asbag62
(g83
g64
NtRp1568
(dp1569
g67
(dp1570
sg76
g1555
sg69
(lp1571
g62
(g63
g64
NtRp1572
(dp1573
g67
(dp1574
g75
I4
ssg76
g1568
sg69
(lp1575
S'True'
p1576
asbasbasbag62
(g78
g64
NtRp1577
(dp1578
g67
(dp1579
sg76
g679
sg69
(lp1580
g62
(g83
g64
NtRp1581
(dp1582
g67
(dp1583
g87
g88
ssg76
g1577
sg69
(lp1584
S'wsgi_run_once'
p1585
asbag62
(g83
g64
NtRp1586
(dp1587
g67
(dp1588
g94
g95
ssg76
g1577
sg69
(lp1589
S':'
asbag62
(g83
g64
NtRp1590
(dp1591
g67
(dp1592
sg76
g1577
sg69
(lp1593
g62
(g63
g64
NtRp1594
(dp1595
g67
(dp1596
g75
I4
ssg76
g1590
sg69
(lp1597
g105
asbasbasbag62
(g78
g64
NtRp1598
(dp1599
g67
(dp1600
sg76
g679
sg69
(lp1601
g62
(g83
g64
NtRp1602
(dp1603
g67
(dp1604
g87
g88
ssg76
g1598
sg69
(lp1605
S'wsgi_url_scheme'
p1606
asbag62
(g83
g64
NtRp1607
(dp1608
g67
(dp1609
g94
g95
ssg76
g1598
sg69
(lp1610
S':'
asbag62
(g83
g64
NtRp1611
(dp1612
g67
(dp1613
sg76
g1598
sg69
(lp1614
g62
(g63
g64
NtRp1615
(dp1616
g67
(dp1617
g75
I4
ssg76
g1611
sg69
(lp1618
S'http'
p1619
asbasbasbag62
(g78
g64
NtRp1620
(dp1621
g67
(dp1622
sg76
g679
sg69
(lp1623
g62
(g83
g64
NtRp1624
(dp1625
g67
(dp1626
g87
g88
ssg76
g1620
sg69
(lp1627
S'wsgi_version'
p1628
asbag62
(g83
g64
NtRp1629
(dp1630
g67
(dp1631
g94
g95
ssg76
g1620
sg69
(lp1632
S':'
asbag62
(g83
g64
NtRp1633
(dp1634
g67
(dp1635
sg76
g1620
sg69
(lp1636
g62
(g63
g64
NtRp1637
(dp1638
g67
(dp1639
g75
I4
ssg76
g1633
sg69
(lp1640
g62
(g71
g64
NtRp1641
(dp1642
g67
(dp1643
g75
I3
ssg76
Nsg69
(lp1644
g62
(g78
g64
NtRp1645
(dp1646
g67
(dp1647
sg76
g1641
sg69
(lp1648
g62
(g83
g64
NtRp1649
(dp1650
g67
(dp1651
sg76
g1645
sg69
(lp1652
g62
(g63
g64
NtRp1653
(dp1654
g67
(dp1655
g75
I3
ssg76
g1649
sg69
(lp1656
S'1'
asbasbasbag62
(g78
g64
NtRp1657
(dp1658
g67
(dp1659
sg76
g1641
sg69
(lp1660
g62
(g83
g64
NtRp1661
(dp1662
g67
(dp1663
sg76
g1657
sg69
(lp1664
g62
(g63
g64
NtRp1665
(dp1666
g67
(dp1667
g75
I3
ssg76
g1661
sg69
(lp1668
S'0'
asbasbasbasbasbasbasbasbasbasbasbag62
(g78
g64
NtRp1669
(dp1670
g67
(dp1671
sg76
g72
sg69
(lp1672
g62
(g83
g64
NtRp1673
(dp1674
g67
(dp1675
g87
g88
ssg76
g1669
sg69
(lp1676
S'extension'
p1677
asbag62
(g83
g64
NtRp1678
(dp1679
g67
(dp1680
g94
g95
ssg76
g1669
sg69
(lp1681
S':'
asbag62
(g83
g64
NtRp1682
(dp1683
g67
(dp1684
sg76
g1669
sg69
(lp1685
g62
(g63
g64
NtRp1686
(dp1687
g67
(dp1688
g75
I5
ssg76
g1682
sg69
(lp1689
S'html'
p1690
asbasbasbag62
(g78
g64
NtRp1691
(dp1692
g67
(dp1693
sg76
g72
sg69
(lp1694
g62
(g83
g64
NtRp1695
(dp1696
g67
(dp1697
g87
g88
ssg76
g1691
sg69
(lp1698
S'folder'
p1699
asbag62
(g83
g64
NtRp1700
(dp1701
g67
(dp1702
g94
g95
ssg76
g1691
sg69
(lp1703
S':'
asbag62
(g83
g64
NtRp1704
(dp1705
g67
(dp1706
sg76
g1691
sg69
(lp1707
g62
(g63
g64
NtRp1708
(dp1709
g67
(dp1710
g75
I5
ssg76
g1704
sg69
(lp1711
S'C:\\Users\\admin\\Desktop\\Sathvik\\Tharuni.Org\\applications\\admin\\'
p1712
asbasbasbag62
(g78
g64
NtRp1713
(dp1714
g67
(dp1715
sg76
g72
sg69
(lp1716
g62
(g83
g64
NtRp1717
(dp1718
g67
(dp1719
g87
g88
ssg76
g1713
sg69
(lp1720
S'function'
p1721
asbag62
(g83
g64
NtRp1722
(dp1723
g67
(dp1724
g94
g95
ssg76
g1713
sg69
(lp1725
S':'
asbag62
(g83
g64
NtRp1726
(dp1727
g67
(dp1728
sg76
g1713
sg69
(lp1729
g62
(g63
g64
NtRp1730
(dp1731
g67
(dp1732
g75
I5
ssg76
g1726
sg69
(lp1733
S'about'
p1734
asbasbasbag62
(g78
g64
NtRp1735
(dp1736
g67
(dp1737
sg76
g72
sg69
(lp1738
g62
(g83
g64
NtRp1739
(dp1740
g67
(dp1741
g87
g88
ssg76
g1735
sg69
(lp1742
S'get_vars'
p1743
asbag62
(g83
g64
NtRp1744
(dp1745
g67
(dp1746
g94
g95
ssg76
g1735
sg69
(lp1747
S':'
asbag62
(g83
g64
NtRp1748
(dp1749
g67
(dp1750
sg76
g1735
sg69
(lp1751
g62
(g63
g64
NtRp1752
(dp1753
g67
(dp1754
g75
I5
ssg76
g1748
sg69
(lp1755
g62
(g71
g64
NtRp1756
(dp1757
g67
(dp1758
g75
I4
ssg76
Nsg69
(lp1759
sbasbasbasbag62
(g78
g64
NtRp1760
(dp1761
g67
(dp1762
sg76
g72
sg69
(lp1763
g62
(g83
g64
NtRp1764
(dp1765
g67
(dp1766
g87
g88
ssg76
g1760
sg69
(lp1767
S'global_settings'
p1768
asbag62
(g83
g64
NtRp1769
(dp1770
g67
(dp1771
g94
g95
ssg76
g1760
sg69
(lp1772
S':'
asbag62
(g83
g64
NtRp1773
(dp1774
g67
(dp1775
sg76
g1760
sg69
(lp1776
g62
(g63
g64
NtRp1777
(dp1778
g67
(dp1779
g75
I5
ssg76
g1773
sg69
(lp1780
g62
(g71
g64
NtRp1781
(dp1782
g67
(dp1783
g75
I4
ssg76
Nsg69
(lp1784
g62
(g78
g64
NtRp1785
(dp1786
g67
(dp1787
sg76
g1781
sg69
(lp1788
g62
(g83
g64
NtRp1789
(dp1790
g67
(dp1791
g87
g88
ssg76
g1785
sg69
(lp1792
g691
asbag62
(g83
g64
NtRp1793
(dp1794
g67
(dp1795
g94
g95
ssg76
g1785
sg69
(lp1796
S':'
asbag62
(g83
g64
NtRp1797
(dp1798
g67
(dp1799
sg76
g1785
sg69
(lp1800
g62
(g63
g64
NtRp1801
(dp1802
g67
(dp1803
g75
I4
ssg76
g1797
sg69
(lp1804
S"set(['C:\\\\Users\\\\admin\\\\Desktop\\\\Sathvik\\\\Tharuni.Org\\\\applications\\\\init\\\\', 'C:\\\\Users\\\\admin\\\\Desktop\\\\Sathvik\\\\Tharuni.Org\\\\applications\\\\admin\\\\'])"
p1805
asbasbasbag62
(g78
g64
NtRp1806
(dp1807
g67
(dp1808
sg76
g1781
sg69
(lp1809
g62
(g83
g64
NtRp1810
(dp1811
g67
(dp1812
g87
g88
ssg76
g1806
sg69
(lp1813
g713
asbag62
(g83
g64
NtRp1814
(dp1815
g67
(dp1816
g94
g95
ssg76
g1806
sg69
(lp1817
S':'
asbag62
(g83
g64
NtRp1818
(dp1819
g67
(dp1820
sg76
g1806
sg69
(lp1821
g62
(g63
g64
NtRp1822
(dp1823
g67
(dp1824
g75
I4
ssg76
g1818
sg69
(lp1825
g726
asbasbasbag62
(g78
g64
NtRp1826
(dp1827
g67
(dp1828
sg76
g1781
sg69
(lp1829
g62
(g83
g64
NtRp1830
(dp1831
g67
(dp1832
g87
g88
ssg76
g1826
sg69
(lp1833
g735
asbag62
(g83
g64
NtRp1834
(dp1835
g67
(dp1836
g94
g95
ssg76
g1826
sg69
(lp1837
S':'
asbag62
(g83
g64
NtRp1838
(dp1839
g67
(dp1840
sg76
g1826
sg69
(lp1841
g62
(g63
g64
NtRp1842
(dp1843
g67
(dp1844
g75
I4
ssg76
g1838
sg69
(lp1845
g62
(g71
g64
NtRp1846
(dp1847
g67
(dp1848
g75
I3
ssg76
Nsg69
(lp1849
sbasbasbasbag62
(g78
g64
NtRp1850
(dp1851
g67
(dp1852
sg76
g1781
sg69
(lp1853
g62
(g83
g64
NtRp1854
(dp1855
g67
(dp1856
g87
g88
ssg76
g1850
sg69
(lp1857
g760
asbag62
(g83
g64
NtRp1858
(dp1859
g67
(dp1860
g94
g95
ssg76
g1850
sg69
(lp1861
S':'
asbag62
(g83
g64
NtRp1862
(dp1863
g67
(dp1864
sg76
g1850
sg69
(lp1865
g62
(g63
g64
NtRp1866
(dp1867
g67
(dp1868
g75
I4
ssg76
g1862
sg69
(lp1869
S"<Values at 0x36b4188: {'verbose': False, 'ip': '127.0.0.1', 'with_scheduler': False, 'ips': ['10.8.4.49', '192.168.1.132', '192.168.56.1', '192.168.166.1', '169.254.251.64'], 'shutdown_timeout': 5, 'taskbar': False, 'port': 8000, 'maxthreads': None, 'softcron': False, 'server_name': 'LP-US-002', 'bpython': False, 'nogui': False, 'nocron': False, 'extcron': False, 'run_system_tests': False, 'test': None, 'folder': 'C:\\\\Users\\\\admin\\\\Desktop\\\\Sathvik\\\\Tharuni.Org', 'config': '', 'import_models': False, 'winservice': '', 'shell': None, 'run': '', 'log_filename': 'httpserver.log', 'debuglevel': 30, 'args': [''], 'socket_timeout': 5, 'ssl_ca_certificate': None, 'scheduler': None, 'profiler_filename': None, 'ssl_private_key': '', 'scheduler_groups': None, 'password': '<ask>', 'request_queue_size': 5, 'ssl_certificate': '', 'cronjob': False, 'numthreads': None, 'quiet': False, 'interfaces': None, 'minthreads': None, 'timeout': 10, 'plain': False, 'nobanner': False, 'pid_filename': 'httpserver.pid'}>"
p1870
asbasbasbag62
(g78
g64
NtRp1871
(dp1872
g67
(dp1873
sg76
g1781
sg69
(lp1874
g62
(g83
g64
NtRp1875
(dp1876
g67
(dp1877
g87
g88
ssg76
g1871
sg69
(lp1878
g782
asbag62
(g83
g64
NtRp1879
(dp1880
g67
(dp1881
g94
g95
ssg76
g1871
sg69
(lp1882
S':'
asbag62
(g83
g64
NtRp1883
(dp1884
g67
(dp1885
sg76
g1871
sg69
(lp1886
g62
(g63
g64
NtRp1887
(dp1888
g67
(dp1889
g75
I4
ssg76
g1883
sg69
(lp1890
S'set([])'
p1891
asbasbasbag62
(g78
g64
NtRp1892
(dp1893
g67
(dp1894
sg76
g1781
sg69
(lp1895
g62
(g83
g64
NtRp1896
(dp1897
g67
(dp1898
g87
g88
ssg76
g1892
sg69
(lp1899
g804
asbag62
(g83
g64
NtRp1900
(dp1901
g67
(dp1902
g94
g95
ssg76
g1892
sg69
(lp1903
S':'
asbag62
(g83
g64
NtRp1904
(dp1905
g67
(dp1906
sg76
g1892
sg69
(lp1907
g62
(g63
g64
NtRp1908
(dp1909
g67
(dp1910
g75
I4
ssg76
g1904
sg69
(lp1911
g105
asbasbasbag62
(g78
g64
NtRp1912
(dp1913
g67
(dp1914
sg76
g1781
sg69
(lp1915
g62
(g83
g64
NtRp1916
(dp1917
g67
(dp1918
g87
g88
ssg76
g1912
sg69
(lp1919
g825
asbag62
(g83
g64
NtRp1920
(dp1921
g67
(dp1922
g94
g95
ssg76
g1912
sg69
(lp1923
S':'
asbag62
(g83
g64
NtRp1924
(dp1925
g67
(dp1926
sg76
g1912
sg69
(lp1927
g62
(g63
g64
NtRp1928
(dp1929
g67
(dp1930
g75
I4
ssg76
g1924
sg69
(lp1931
g838
asbasbasbag62
(g78
g64
NtRp1932
(dp1933
g67
(dp1934
sg76
g1781
sg69
(lp1935
g62
(g83
g64
NtRp1936
(dp1937
g67
(dp1938
g87
g88
ssg76
g1932
sg69
(lp1939
g1045
asbag62
(g83
g64
NtRp1940
(dp1941
g67
(dp1942
g94
g95
ssg76
g1932
sg69
(lp1943
S':'
asbag62
(g83
g64
NtRp1944
(dp1945
g67
(dp1946
sg76
g1932
sg69
(lp1947
g62
(g63
g64
NtRp1948
(dp1949
g67
(dp1950
g75
I4
ssg76
g1944
sg69
(lp1951
g105
asbasbasbag62
(g78
g64
NtRp1952
(dp1953
g67
(dp1954
sg76
g1781
sg69
(lp1955
g62
(g83
g64
NtRp1956
(dp1957
g67
(dp1958
g87
g88
ssg76
g1952
sg69
(lp1959
g1066
asbag62
(g83
g64
NtRp1960
(dp1961
g67
(dp1962
g94
g95
ssg76
g1952
sg69
(lp1963
S':'
asbag62
(g83
g64
NtRp1964
(dp1965
g67
(dp1966
sg76
g1952
sg69
(lp1967
g62
(g63
g64
NtRp1968
(dp1969
g67
(dp1970
g75
I4
ssg76
g1964
sg69
(lp1971
g105
asbasbasbag62
(g78
g64
NtRp1972
(dp1973
g67
(dp1974
sg76
g1781
sg69
(lp1975
g62
(g83
g64
NtRp1976
(dp1977
g67
(dp1978
g87
g88
ssg76
g1972
sg69
(lp1979
g1325
asbag62
(g83
g64
NtRp1980
(dp1981
g67
(dp1982
g94
g95
ssg76
g1972
sg69
(lp1983
S':'
asbag62
(g83
g64
NtRp1984
(dp1985
g67
(dp1986
sg76
g1972
sg69
(lp1987
g62
(g63
g64
NtRp1988
(dp1989
g67
(dp1990
g75
I4
ssg76
g1984
sg69
(lp1991
g1338
asbasbasbag62
(g78
g64
NtRp1992
(dp1993
g67
(dp1994
sg76
g1781
sg69
(lp1995
g62
(g83
g64
NtRp1996
(dp1997
g67
(dp1998
g87
g88
ssg76
g1992
sg69
(lp1999
g1389
asbag62
(g83
g64
NtRp2000
(dp2001
g67
(dp2002
g94
g95
ssg76
g1992
sg69
(lp2003
S':'
asbag62
(g83
g64
NtRp2004
(dp2005
g67
(dp2006
sg76
g1992
sg69
(lp2007
g62
(g63
g64
NtRp2008
(dp2009
g67
(dp2010
g75
I4
ssg76
g2004
sg69
(lp2011
g62
(g71
g64
NtRp2012
(dp2013
g67
(dp2014
g75
I3
ssg76
Nsg69
(lp2015
g62
(g78
g64
NtRp2016
(dp2017
g67
(dp2018
sg76
g2012
sg69
(lp2019
g62
(g83
g64
NtRp2020
(dp2021
g67
(dp2022
sg76
g2016
sg69
(lp2023
g62
(g63
g64
NtRp2024
(dp2025
g67
(dp2026
g75
I3
ssg76
g2020
sg69
(lp2027
S'2'
asbasbasbag62
(g78
g64
NtRp2028
(dp2029
g67
(dp2030
sg76
g2012
sg69
(lp2031
g62
(g83
g64
NtRp2032
(dp2033
g67
(dp2034
sg76
g2028
sg69
(lp2035
g62
(g63
g64
NtRp2036
(dp2037
g67
(dp2038
g75
I3
ssg76
g2032
sg69
(lp2039
S'0'
asbasbasbag62
(g78
g64
NtRp2040
(dp2041
g67
(dp2042
sg76
g2012
sg69
(lp2043
g62
(g83
g64
NtRp2044
(dp2045
g67
(dp2046
sg76
g2040
sg69
(lp2047
g62
(g63
g64
NtRp2048
(dp2049
g67
(dp2050
g75
I3
ssg76
g2044
sg69
(lp2051
S'9'
asbasbasbag62
(g78
g64
NtRp2052
(dp2053
g67
(dp2054
sg76
g2012
sg69
(lp2055
g62
(g83
g64
NtRp2056
(dp2057
g67
(dp2058
sg76
g2052
sg69
(lp2059
g62
(g63
g64
NtRp2060
(dp2061
g67
(dp2062
g75
I3
ssg76
g2056
sg69
(lp2063
S'datetime.datetime(2012, 9, 13, 23, 51, 30)'
p2064
asbasbasbag62
(g78
g64
NtRp2065
(dp2066
g67
(dp2067
sg76
g2012
sg69
(lp2068
g62
(g83
g64
NtRp2069
(dp2070
g67
(dp2071
sg76
g2065
sg69
(lp2072
g62
(g63
g64
NtRp2073
(dp2074
g67
(dp2075
g75
I3
ssg76
g2069
sg69
(lp2076
g1467
asbasbasbasbasbasbasbasbasbasbasbag62
(g78
g64
NtRp2077
(dp2078
g67
(dp2079
sg76
g72
sg69
(lp2080
g62
(g83
g64
NtRp2081
(dp2082
g67
(dp2083
g87
g88
ssg76
g2077
sg69
(lp2084
S'is_https'
p2085
asbag62
(g83
g64
NtRp2086
(dp2087
g67
(dp2088
g94
g95
ssg76
g2077
sg69
(lp2089
S':'
asbag62
(g83
g64
NtRp2090
(dp2091
g67
(dp2092
sg76
g2077
sg69
(lp2093
g62
(g63
g64
NtRp2094
(dp2095
g67
(dp2096
g75
I5
ssg76
g2090
sg69
(lp2097
g105
asbasbasbag62
(g78
g64
NtRp2098
(dp2099
g67
(dp2100
sg76
g72
sg69
(lp2101
g62
(g83
g64
NtRp2102
(dp2103
g67
(dp2104
g87
g88
ssg76
g2098
sg69
(lp2105
S'is_local'
p2106
asbag62
(g83
g64
NtRp2107
(dp2108
g67
(dp2109
g94
g95
ssg76
g2098
sg69
(lp2110
S':'
asbag62
(g83
g64
NtRp2111
(dp2112
g67
(dp2113
sg76
g2098
sg69
(lp2114
g62
(g63
g64
NtRp2115
(dp2116
g67
(dp2117
g75
I5
ssg76
g2111
sg69
(lp2118
g1576
asbasbasbag62
(g78
g64
NtRp2119
(dp2120
g67
(dp2121
sg76
g72
sg69
(lp2122
g62
(g83
g64
NtRp2123
(dp2124
g67
(dp2125
g87
g88
ssg76
g2119
sg69
(lp2126
S'is_restful'
p2127
asbag62
(g83
g64
NtRp2128
(dp2129
g67
(dp2130
g94
g95
ssg76
g2119
sg69
(lp2131
S':'
asbag62
(g83
g64
NtRp2132
(dp2133
g67
(dp2134
sg76
g2119
sg69
(lp2135
g62
(g63
g64
NtRp2136
(dp2137
g67
(dp2138
g75
I5
ssg76
g2132
sg69
(lp2139
g105
asbasbasbag62
(g78
g64
NtRp2140
(dp2141
g67
(dp2142
sg76
g72
sg69
(lp2143
g62
(g83
g64
NtRp2144
(dp2145
g67
(dp2146
g87
g88
ssg76
g2140
sg69
(lp2147
S'now'
p2148
asbag62
(g83
g64
NtRp2149
(dp2150
g67
(dp2151
g94
g95
ssg76
g2140
sg69
(lp2152
S':'
asbag62
(g83
g64
NtRp2153
(dp2154
g67
(dp2155
sg76
g2140
sg69
(lp2156
g62
(g63
g64
NtRp2157
(dp2158
g67
(dp2159
g75
I5
ssg76
g2153
sg69
(lp2160
S'datetime.datetime(2012, 10, 14, 15, 41, 3, 686000)'
p2161
asbasbasbag62
(g78
g64
NtRp2162
(dp2163
g67
(dp2164
sg76
g72
sg69
(lp2165
g62
(g83
g64
NtRp2166
(dp2167
g67
(dp2168
g87
g88
ssg76
g2162
sg69
(lp2169
S'post_vars'
p2170
asbag62
(g83
g64
NtRp2171
(dp2172
g67
(dp2173
g94
g95
ssg76
g2162
sg69
(lp2174
S':'
asbag62
(g83
g64
NtRp2175
(dp2176
g67
(dp2177
sg76
g2162
sg69
(lp2178
g62
(g63
g64
NtRp2179
(dp2180
g67
(dp2181
g75
I5
ssg76
g2175
sg69
(lp2182
g62
(g71
g64
NtRp2183
(dp2184
g67
(dp2185
g75
I4
ssg76
Nsg69
(lp2186
sbasbasbasbag62
(g78
g64
NtRp2187
(dp2188
g67
(dp2189
sg76
g72
sg69
(lp2190
g62
(g83
g64
NtRp2191
(dp2192
g67
(dp2193
g87
g88
ssg76
g2187
sg69
(lp2194
S'raw_args'
p2195
asbag62
(g83
g64
NtRp2196
(dp2197
g67
(dp2198
g94
g95
ssg76
g2187
sg69
(lp2199
S':'
asbag62
(g83
g64
NtRp2200
(dp2201
g67
(dp2202
sg76
g2187
sg69
(lp2203
g62
(g63
g64
NtRp2204
(dp2205
g67
(dp2206
g75
I5
ssg76
g2200
sg69
(lp2207
g164
asbasbasbag62
(g78
g64
NtRp2208
(dp2209
g67
(dp2210
sg76
g72
sg69
(lp2211
g62
(g83
g64
NtRp2212
(dp2213
g67
(dp2214
g87
g88
ssg76
g2208
sg69
(lp2215
S'raw_extension'
p2216
asbag62
(g83
g64
NtRp2217
(dp2218
g67
(dp2219
g94
g95
ssg76
g2208
sg69
(lp2220
S':'
asbag62
(g83
g64
NtRp2221
(dp2222
g67
(dp2223
sg76
g2208
sg69
(lp2224
g62
(g63
g64
NtRp2225
(dp2226
g67
(dp2227
g75
I5
ssg76
g2221
sg69
(lp2228
S'None'
p2229
asbasbasbag62
(g78
g64
NtRp2230
(dp2231
g67
(dp2232
sg76
g72
sg69
(lp2233
g62
(g83
g64
NtRp2234
(dp2235
g67
(dp2236
g87
g88
ssg76
g2230
sg69
(lp2237
S'url'
p2238
asbag62
(g83
g64
NtRp2239
(dp2240
g67
(dp2241
g94
g95
ssg76
g2230
sg69
(lp2242
S':'
asbag62
(g83
g64
NtRp2243
(dp2244
g67
(dp2245
sg76
g2230
sg69
(lp2246
g62
(g63
g64
NtRp2247
(dp2248
g67
(dp2249
g75
I5
ssg76
g2243
sg69
(lp2250
g1100
asbasbasbag62
(g78
g64
NtRp2251
(dp2252
g67
(dp2253
sg76
g72
sg69
(lp2254
g62
(g83
g64
NtRp2255
(dp2256
g67
(dp2257
g87
g88
ssg76
g2251
sg69
(lp2258
S'utcnow'
p2259
asbag62
(g83
g64
NtRp2260
(dp2261
g67
(dp2262
g94
g95
ssg76
g2251
sg69
(lp2263
S':'
asbag62
(g83
g64
NtRp2264
(dp2265
g67
(dp2266
sg76
g2251
sg69
(lp2267
g62
(g63
g64
NtRp2268
(dp2269
g67
(dp2270
g75
I5
ssg76
g2264
sg69
(lp2271
S'datetime.datetime(2012, 10, 14, 10, 11, 3, 686000)'
p2272
asbasbasbag62
(g78
g64
NtRp2273
(dp2274
g67
(dp2275
sg76
g72
sg69
(lp2276
g62
(g83
g64
NtRp2277
(dp2278
g67
(dp2279
g87
g88
ssg76
g2273
sg69
(lp2280
S'uuid'
p2281
asbag62
(g83
g64
NtRp2282
(dp2283
g67
(dp2284
g94
g95
ssg76
g2273
sg69
(lp2285
S':'
asbag62
(g83
g64
NtRp2286
(dp2287
g67
(dp2288
sg76
g2273
sg69
(lp2289
g62
(g63
g64
NtRp2290
(dp2291
g67
(dp2292
g75
I5
ssg76
g2286
sg69
(lp2293
S'admin/127.0.0.1.2012-10-14.15-41-03.ee14a6d0-7ad2-4541-b511-0b565f4971f4'
p2294
asbasbasbag62
(g78
g64
NtRp2295
(dp2296
g67
(dp2297
sg76
g72
sg69
(lp2298
g62
(g83
g64
NtRp2299
(dp2300
g67
(dp2301
g87
g88
ssg76
g2295
sg69
(lp2302
S'vars'
p2303
asbag62
(g83
g64
NtRp2304
(dp2305
g67
(dp2306
g94
g95
ssg76
g2295
sg69
(lp2307
S':'
asbag62
(g83
g64
NtRp2308
(dp2309
g67
(dp2310
sg76
g2295
sg69
(lp2311
g62
(g63
g64
NtRp2312
(dp2313
g67
(dp2314
g75
I5
ssg76
g2308
sg69
(lp2315
g62
(g71
g64
NtRp2316
(dp2317
g67
(dp2318
g75
I4
ssg76
Nsg69
(lp2319
sbasbasbasbag62
(g78
g64
NtRp2320
(dp2321
g67
(dp2322
sg76
g72
sg69
(lp2323
g62
(g83
g64
NtRp2324
(dp2325
g67
(dp2326
g87
g88
ssg76
g2320
sg69
(lp2327
S'wsgi'
p2328
asbag62
(g83
g64
NtRp2329
(dp2330
g67
(dp2331
g94
g95
ssg76
g2320
sg69
(lp2332
S':'
asbag62
(g83
g64
NtRp2333
(dp2334
g67
(dp2335
sg76
g2320
sg69
(lp2336
g62
(g63
g64
NtRp2337
(dp2338
g67
(dp2339
g75
I5
ssg76
g2333
sg69
(lp2340
g62
(g71
g64
NtRp2341
(dp2342
g67
(dp2343
g75
I4
ssg76
Nsg69
(lp2344
g62
(g78
g64
NtRp2345
(dp2346
g67
(dp2347
sg76
g2341
sg69
(lp2348
g62
(g83
g64
NtRp2349
(dp2350
g67
(dp2351
g87
g88
ssg76
g2345
sg69
(lp2352
S'environ'
p2353
asbag62
(g83
g64
NtRp2354
(dp2355
g67
(dp2356
g94
g95
ssg76
g2345
sg69
(lp2357
S':'
asbag62
(g83
g64
NtRp2358
(dp2359
g67
(dp2360
sg76
g2345
sg69
(lp2361
g62
(g63
g64
NtRp2362
(dp2363
g67
(dp2364
g75
I4
ssg76
g2358
sg69
(lp2365
g62
(g71
g64
NtRp2366
(dp2367
g67
(dp2368
g75
I3
ssg76
Nsg69
(lp2369
g62
(g78
g64
NtRp2370
(dp2371
g67
(dp2372
sg76
g2366
sg69
(lp2373
g62
(g83
g64
NtRp2374
(dp2375
g67
(dp2376
g87
g88
ssg76
g2370
sg69
(lp2377
S'HTTP_ACCEPT'
p2378
asbag62
(g83
g64
NtRp2379
(dp2380
g67
(dp2381
g94
g95
ssg76
g2370
sg69
(lp2382
S':'
asbag62
(g83
g64
NtRp2383
(dp2384
g67
(dp2385
sg76
g2370
sg69
(lp2386
g62
(g63
g64
NtRp2387
(dp2388
g67
(dp2389
g75
I3
ssg76
g2383
sg69
(lp2390
g860
asbasbasbag62
(g78
g64
NtRp2391
(dp2392
g67
(dp2393
sg76
g2366
sg69
(lp2394
g62
(g83
g64
NtRp2395
(dp2396
g67
(dp2397
g87
g88
ssg76
g2391
sg69
(lp2398
S'HTTP_ACCEPT_CHARSET'
p2399
asbag62
(g83
g64
NtRp2400
(dp2401
g67
(dp2402
g94
g95
ssg76
g2391
sg69
(lp2403
S':'
asbag62
(g83
g64
NtRp2404
(dp2405
g67
(dp2406
sg76
g2391
sg69
(lp2407
g62
(g63
g64
NtRp2408
(dp2409
g67
(dp2410
g75
I3
ssg76
g2404
sg69
(lp2411
g882
asbasbasbag62
(g78
g64
NtRp2412
(dp2413
g67
(dp2414
sg76
g2366
sg69
(lp2415
g62
(g83
g64
NtRp2416
(dp2417
g67
(dp2418
g87
g88
ssg76
g2412
sg69
(lp2419
S'HTTP_ACCEPT_ENCODING'
p2420
asbag62
(g83
g64
NtRp2421
(dp2422
g67
(dp2423
g94
g95
ssg76
g2412
sg69
(lp2424
S':'
asbag62
(g83
g64
NtRp2425
(dp2426
g67
(dp2427
sg76
g2412
sg69
(lp2428
g62
(g63
g64
NtRp2429
(dp2430
g67
(dp2431
g75
I3
ssg76
g2425
sg69
(lp2432
g904
asbasbasbag62
(g78
g64
NtRp2433
(dp2434
g67
(dp2435
sg76
g2366
sg69
(lp2436
g62
(g83
g64
NtRp2437
(dp2438
g67
(dp2439
g87
g88
ssg76
g2433
sg69
(lp2440
S'HTTP_ACCEPT_LANGUAGE'
p2441
asbag62
(g83
g64
NtRp2442
(dp2443
g67
(dp2444
g94
g95
ssg76
g2433
sg69
(lp2445
S':'
asbag62
(g83
g64
NtRp2446
(dp2447
g67
(dp2448
sg76
g2433
sg69
(lp2449
g62
(g63
g64
NtRp2450
(dp2451
g67
(dp2452
g75
I3
ssg76
g2446
sg69
(lp2453
g926
asbasbasbag62
(g78
g64
NtRp2454
(dp2455
g67
(dp2456
sg76
g2366
sg69
(lp2457
g62
(g83
g64
NtRp2458
(dp2459
g67
(dp2460
g87
g88
ssg76
g2454
sg69
(lp2461
S'HTTP_CONNECTION'
p2462
asbag62
(g83
g64
NtRp2463
(dp2464
g67
(dp2465
g94
g95
ssg76
g2454
sg69
(lp2466
S':'
asbag62
(g83
g64
NtRp2467
(dp2468
g67
(dp2469
sg76
g2454
sg69
(lp2470
g62
(g63
g64
NtRp2471
(dp2472
g67
(dp2473
g75
I3
ssg76
g2467
sg69
(lp2474
g948
asbasbasbag62
(g78
g64
NtRp2475
(dp2476
g67
(dp2477
sg76
g2366
sg69
(lp2478
g62
(g83
g64
NtRp2479
(dp2480
g67
(dp2481
g87
g88
ssg76
g2475
sg69
(lp2482
S'HTTP_COOKIE'
p2483
asbag62
(g83
g64
NtRp2484
(dp2485
g67
(dp2486
g94
g95
ssg76
g2475
sg69
(lp2487
S':'
asbag62
(g83
g64
NtRp2488
(dp2489
g67
(dp2490
sg76
g2475
sg69
(lp2491
g62
(g63
g64
NtRp2492
(dp2493
g67
(dp2494
g75
I3
ssg76
g2488
sg69
(lp2495
g970
asbasbasbag62
(g78
g64
NtRp2496
(dp2497
g67
(dp2498
sg76
g2366
sg69
(lp2499
g62
(g83
g64
NtRp2500
(dp2501
g67
(dp2502
g87
g88
ssg76
g2496
sg69
(lp2503
S'HTTP_HOST'
p2504
asbag62
(g83
g64
NtRp2505
(dp2506
g67
(dp2507
g94
g95
ssg76
g2496
sg69
(lp2508
S':'
asbag62
(g83
g64
NtRp2509
(dp2510
g67
(dp2511
sg76
g2496
sg69
(lp2512
g62
(g63
g64
NtRp2513
(dp2514
g67
(dp2515
g75
I3
ssg76
g2509
sg69
(lp2516
g992
asbasbasbag62
(g78
g64
NtRp2517
(dp2518
g67
(dp2519
sg76
g2366
sg69
(lp2520
g62
(g83
g64
NtRp2521
(dp2522
g67
(dp2523
g87
g88
ssg76
g2517
sg69
(lp2524
S'HTTP_REFERER'
p2525
asbag62
(g83
g64
NtRp2526
(dp2527
g67
(dp2528
g94
g95
ssg76
g2517
sg69
(lp2529
S':'
asbag62
(g83
g64
NtRp2530
(dp2531
g67
(dp2532
sg76
g2517
sg69
(lp2533
g62
(g63
g64
NtRp2534
(dp2535
g67
(dp2536
g75
I3
ssg76
g2530
sg69
(lp2537
g1014
asbasbasbag62
(g78
g64
NtRp2538
(dp2539
g67
(dp2540
sg76
g2366
sg69
(lp2541
g62
(g83
g64
NtRp2542
(dp2543
g67
(dp2544
g87
g88
ssg76
g2538
sg69
(lp2545
S'HTTP_USER_AGENT'
p2546
asbag62
(g83
g64
NtRp2547
(dp2548
g67
(dp2549
g94
g95
ssg76
g2538
sg69
(lp2550
S':'
asbag62
(g83
g64
NtRp2551
(dp2552
g67
(dp2553
sg76
g2538
sg69
(lp2554
g62
(g63
g64
NtRp2555
(dp2556
g67
(dp2557
g75
I3
ssg76
g2551
sg69
(lp2558
g1036
asbasbasbag62
(g78
g64
NtRp2559
(dp2560
g67
(dp2561
sg76
g2366
sg69
(lp2562
g62
(g83
g64
NtRp2563
(dp2564
g67
(dp2565
g87
g88
ssg76
g2559
sg69
(lp2566
S'PATH_INFO'
p2567
asbag62
(g83
g64
NtRp2568
(dp2569
g67
(dp2570
g94
g95
ssg76
g2559
sg69
(lp2571
S':'
asbag62
(g83
g64
NtRp2572
(dp2573
g67
(dp2574
sg76
g2559
sg69
(lp2575
g62
(g63
g64
NtRp2576
(dp2577
g67
(dp2578
g75
I3
ssg76
g2572
sg69
(lp2579
g1100
asbasbasbag62
(g78
g64
NtRp2580
(dp2581
g67
(dp2582
sg76
g2366
sg69
(lp2583
g62
(g83
g64
NtRp2584
(dp2585
g67
(dp2586
g87
g88
ssg76
g2580
sg69
(lp2587
S'QUERY_STRING'
p2588
asbag62
(g83
g64
NtRp2589
(dp2590
g67
(dp2591
g94
g95
ssg76
g2580
sg69
(lp2592
S':'
asbag62
(g83
g64
NtRp2593
(dp2594
g67
(dp2595
sg76
g2580
sg69
(lp2596
g62
(g63
g64
NtRp2597
(dp2598
g67
(dp2599
g75
I3
ssg76
g2593
sg69
(lp2600
S''
asbasbasbag62
(g78
g64
NtRp2601
(dp2602
g67
(dp2603
sg76
g2366
sg69
(lp2604
g62
(g83
g64
NtRp2605
(dp2606
g67
(dp2607
g87
g88
ssg76
g2601
sg69
(lp2608
S'REMOTE_ADDR'
p2609
asbag62
(g83
g64
NtRp2610
(dp2611
g67
(dp2612
g94
g95
ssg76
g2601
sg69
(lp2613
S':'
asbag62
(g83
g64
NtRp2614
(dp2615
g67
(dp2616
sg76
g2601
sg69
(lp2617
g62
(g63
g64
NtRp2618
(dp2619
g67
(dp2620
g75
I3
ssg76
g2614
sg69
(lp2621
g230
asbasbasbag62
(g78
g64
NtRp2622
(dp2623
g67
(dp2624
sg76
g2366
sg69
(lp2625
g62
(g83
g64
NtRp2626
(dp2627
g67
(dp2628
g87
g88
ssg76
g2622
sg69
(lp2629
S'REMOTE_PORT'
p2630
asbag62
(g83
g64
NtRp2631
(dp2632
g67
(dp2633
g94
g95
ssg76
g2622
sg69
(lp2634
S':'
asbag62
(g83
g64
NtRp2635
(dp2636
g67
(dp2637
sg76
g2622
sg69
(lp2638
g62
(g63
g64
NtRp2639
(dp2640
g67
(dp2641
g75
I3
ssg76
g2635
sg69
(lp2642
g1164
asbasbasbag62
(g78
g64
NtRp2643
(dp2644
g67
(dp2645
sg76
g2366
sg69
(lp2646
g62
(g83
g64
NtRp2647
(dp2648
g67
(dp2649
g87
g88
ssg76
g2643
sg69
(lp2650
S'REQUEST_METHOD'
p2651
asbag62
(g83
g64
NtRp2652
(dp2653
g67
(dp2654
g94
g95
ssg76
g2643
sg69
(lp2655
S':'
asbag62
(g83
g64
NtRp2656
(dp2657
g67
(dp2658
sg76
g2643
sg69
(lp2659
g62
(g63
g64
NtRp2660
(dp2661
g67
(dp2662
g75
I3
ssg76
g2656
sg69
(lp2663
g1186
asbasbasbag62
(g78
g64
NtRp2664
(dp2665
g67
(dp2666
sg76
g2366
sg69
(lp2667
g62
(g83
g64
NtRp2668
(dp2669
g67
(dp2670
g87
g88
ssg76
g2664
sg69
(lp2671
S'REQUEST_URI'
p2672
asbag62
(g83
g64
NtRp2673
(dp2674
g67
(dp2675
g94
g95
ssg76
g2664
sg69
(lp2676
S':'
asbag62
(g83
g64
NtRp2677
(dp2678
g67
(dp2679
sg76
g2664
sg69
(lp2680
g62
(g63
g64
NtRp2681
(dp2682
g67
(dp2683
g75
I3
ssg76
g2677
sg69
(lp2684
g1100
asbasbasbag62
(g78
g64
NtRp2685
(dp2686
g67
(dp2687
sg76
g2366
sg69
(lp2688
g62
(g83
g64
NtRp2689
(dp2690
g67
(dp2691
g87
g88
ssg76
g2685
sg69
(lp2692
S'SCRIPT_NAME'
p2693
asbag62
(g83
g64
NtRp2694
(dp2695
g67
(dp2696
g94
g95
ssg76
g2685
sg69
(lp2697
S':'
asbag62
(g83
g64
NtRp2698
(dp2699
g67
(dp2700
sg76
g2685
sg69
(lp2701
g62
(g63
g64
NtRp2702
(dp2703
g67
(dp2704
g75
I3
ssg76
g2698
sg69
(lp2705
S''
asbasbasbag62
(g78
g64
NtRp2706
(dp2707
g67
(dp2708
sg76
g2366
sg69
(lp2709
g62
(g83
g64
NtRp2710
(dp2711
g67
(dp2712
g87
g88
ssg76
g2706
sg69
(lp2713
S'SERVER_NAME'
p2714
asbag62
(g83
g64
NtRp2715
(dp2716
g67
(dp2717
g94
g95
ssg76
g2706
sg69
(lp2718
S':'
asbag62
(g83
g64
NtRp2719
(dp2720
g67
(dp2721
sg76
g2706
sg69
(lp2722
g62
(g63
g64
NtRp2723
(dp2724
g67
(dp2725
g75
I3
ssg76
g2719
sg69
(lp2726
g1250
asbasbasbag62
(g78
g64
NtRp2727
(dp2728
g67
(dp2729
sg76
g2366
sg69
(lp2730
g62
(g83
g64
NtRp2731
(dp2732
g67
(dp2733
g87
g88
ssg76
g2727
sg69
(lp2734
S'SERVER_PORT'
p2735
asbag62
(g83
g64
NtRp2736
(dp2737
g67
(dp2738
g94
g95
ssg76
g2727
sg69
(lp2739
S':'
asbag62
(g83
g64
NtRp2740
(dp2741
g67
(dp2742
sg76
g2727
sg69
(lp2743
g62
(g63
g64
NtRp2744
(dp2745
g67
(dp2746
g75
I3
ssg76
g2740
sg69
(lp2747
g1272
asbasbasbag62
(g78
g64
NtRp2748
(dp2749
g67
(dp2750
sg76
g2366
sg69
(lp2751
g62
(g83
g64
NtRp2752
(dp2753
g67
(dp2754
g87
g88
ssg76
g2748
sg69
(lp2755
S'SERVER_PROTOCOL'
p2756
asbag62
(g83
g64
NtRp2757
(dp2758
g67
(dp2759
g94
g95
ssg76
g2748
sg69
(lp2760
S':'
asbag62
(g83
g64
NtRp2761
(dp2762
g67
(dp2763
sg76
g2748
sg69
(lp2764
g62
(g63
g64
NtRp2765
(dp2766
g67
(dp2767
g75
I3
ssg76
g2761
sg69
(lp2768
g1294
asbasbasbag62
(g78
g64
NtRp2769
(dp2770
g67
(dp2771
sg76
g2366
sg69
(lp2772
g62
(g83
g64
NtRp2773
(dp2774
g67
(dp2775
g87
g88
ssg76
g2769
sg69
(lp2776
S'SERVER_SOFTWARE'
p2777
asbag62
(g83
g64
NtRp2778
(dp2779
g67
(dp2780
g94
g95
ssg76
g2769
sg69
(lp2781
S':'
asbag62
(g83
g64
NtRp2782
(dp2783
g67
(dp2784
sg76
g2769
sg69
(lp2785
g62
(g63
g64
NtRp2786
(dp2787
g67
(dp2788
g75
I3
ssg76
g2782
sg69
(lp2789
g1316
asbasbasbag62
(g78
g64
NtRp2790
(dp2791
g67
(dp2792
sg76
g2366
sg69
(lp2793
g62
(g83
g64
NtRp2794
(dp2795
g67
(dp2796
g87
g88
ssg76
g2790
sg69
(lp2797
S'WEB2PY_ORIGINAL_URI'
p2798
asbag62
(g83
g64
NtRp2799
(dp2800
g67
(dp2801
g94
g95
ssg76
g2790
sg69
(lp2802
S':'
asbag62
(g83
g64
NtRp2803
(dp2804
g67
(dp2805
sg76
g2790
sg69
(lp2806
g62
(g63
g64
NtRp2807
(dp2808
g67
(dp2809
g75
I3
ssg76
g2803
sg69
(lp2810
g1100
asbasbasbag62
(g78
g64
NtRp2811
(dp2812
g67
(dp2813
sg76
g2366
sg69
(lp2814
g62
(g83
g64
NtRp2815
(dp2816
g67
(dp2817
g87
g88
ssg76
g2811
sg69
(lp2818
S'wsgi.errors'
p2819
asbag62
(g83
g64
NtRp2820
(dp2821
g67
(dp2822
g94
g95
ssg76
g2811
sg69
(lp2823
S':'
asbag62
(g83
g64
NtRp2824
(dp2825
g67
(dp2826
sg76
g2811
sg69
(lp2827
g62
(g63
g64
NtRp2828
(dp2829
g67
(dp2830
g75
I3
ssg76
g2824
sg69
(lp2831
S"<open file '<stderr>', mode 'w' at 0x0000000001DDE1E0>"
p2832
asbasbasbag62
(g78
g64
NtRp2833
(dp2834
g67
(dp2835
sg76
g2366
sg69
(lp2836
g62
(g83
g64
NtRp2837
(dp2838
g67
(dp2839
g87
g88
ssg76
g2833
sg69
(lp2840
S'wsgi.file_wrapper'
p2841
asbag62
(g83
g64
NtRp2842
(dp2843
g67
(dp2844
g94
g95
ssg76
g2833
sg69
(lp2845
S':'
asbag62
(g83
g64
NtRp2846
(dp2847
g67
(dp2848
sg76
g2833
sg69
(lp2849
g62
(g63
g64
NtRp2850
(dp2851
g67
(dp2852
g75
I3
ssg76
g2846
sg69
(lp2853
S'<class wsgiref.util.FileWrapper at 0x00000000041E25E8>'
p2854
asbasbasbag62
(g78
g64
NtRp2855
(dp2856
g67
(dp2857
sg76
g2366
sg69
(lp2858
g62
(g83
g64
NtRp2859
(dp2860
g67
(dp2861
g87
g88
ssg76
g2855
sg69
(lp2862
S'wsgi.input'
p2863
asbag62
(g83
g64
NtRp2864
(dp2865
g67
(dp2866
g94
g95
ssg76
g2855
sg69
(lp2867
S':'
asbag62
(g83
g64
NtRp2868
(dp2869
g67
(dp2870
sg76
g2855
sg69
(lp2871
g62
(g63
g64
NtRp2872
(dp2873
g67
(dp2874
g75
I3
ssg76
g2868
sg69
(lp2875
S'<cStringIO.StringO object at 0x0000000008816BC8>'
p2876
asbasbasbag62
(g78
g64
NtRp2877
(dp2878
g67
(dp2879
sg76
g2366
sg69
(lp2880
g62
(g83
g64
NtRp2881
(dp2882
g67
(dp2883
g87
g88
ssg76
g2877
sg69
(lp2884
S'wsgi.multiprocess'
p2885
asbag62
(g83
g64
NtRp2886
(dp2887
g67
(dp2888
g94
g95
ssg76
g2877
sg69
(lp2889
S':'
asbag62
(g83
g64
NtRp2890
(dp2891
g67
(dp2892
sg76
g2877
sg69
(lp2893
g62
(g63
g64
NtRp2894
(dp2895
g67
(dp2896
g75
I3
ssg76
g2890
sg69
(lp2897
g105
asbasbasbag62
(g78
g64
NtRp2898
(dp2899
g67
(dp2900
sg76
g2366
sg69
(lp2901
g62
(g83
g64
NtRp2902
(dp2903
g67
(dp2904
g87
g88
ssg76
g2898
sg69
(lp2905
S'wsgi.multithread'
p2906
asbag62
(g83
g64
NtRp2907
(dp2908
g67
(dp2909
g94
g95
ssg76
g2898
sg69
(lp2910
S':'
asbag62
(g83
g64
NtRp2911
(dp2912
g67
(dp2913
sg76
g2898
sg69
(lp2914
g62
(g63
g64
NtRp2915
(dp2916
g67
(dp2917
g75
I3
ssg76
g2911
sg69
(lp2918
g1576
asbasbasbag62
(g78
g64
NtRp2919
(dp2920
g67
(dp2921
sg76
g2366
sg69
(lp2922
g62
(g83
g64
NtRp2923
(dp2924
g67
(dp2925
g87
g88
ssg76
g2919
sg69
(lp2926
S'wsgi.run_once'
p2927
asbag62
(g83
g64
NtRp2928
(dp2929
g67
(dp2930
g94
g95
ssg76
g2919
sg69
(lp2931
S':'
asbag62
(g83
g64
NtRp2932
(dp2933
g67
(dp2934
sg76
g2919
sg69
(lp2935
g62
(g63
g64
NtRp2936
(dp2937
g67
(dp2938
g75
I3
ssg76
g2932
sg69
(lp2939
g105
asbasbasbag62
(g78
g64
NtRp2940
(dp2941
g67
(dp2942
sg76
g2366
sg69
(lp2943
g62
(g83
g64
NtRp2944
(dp2945
g67
(dp2946
g87
g88
ssg76
g2940
sg69
(lp2947
S'wsgi.url_scheme'
p2948
asbag62
(g83
g64
NtRp2949
(dp2950
g67
(dp2951
g94
g95
ssg76
g2940
sg69
(lp2952
S':'
asbag62
(g83
g64
NtRp2953
(dp2954
g67
(dp2955
sg76
g2940
sg69
(lp2956
g62
(g63
g64
NtRp2957
(dp2958
g67
(dp2959
g75
I3
ssg76
g2953
sg69
(lp2960
g1619
asbasbasbag62
(g78
g64
NtRp2961
(dp2962
g67
(dp2963
sg76
g2366
sg69
(lp2964
g62
(g83
g64
NtRp2965
(dp2966
g67
(dp2967
g87
g88
ssg76
g2961
sg69
(lp2968
S'wsgi.version'
p2969
asbag62
(g83
g64
NtRp2970
(dp2971
g67
(dp2972
g94
g95
ssg76
g2961
sg69
(lp2973
S':'
asbag62
(g83
g64
NtRp2974
(dp2975
g67
(dp2976
sg76
g2961
sg69
(lp2977
g62
(g63
g64
NtRp2978
(dp2979
g67
(dp2980
g75
I3
ssg76
g2974
sg69
(lp2981
S'1'
asbasbasbasbasbasbasbasbasbasbasbasbasbsS'frames'
p2982
(lp2983
(dp2984
S'file'
p2985
S'C:\\Users\\admin\\Desktop\\Sathvik\\Tharuni.Org\\gluon\\restricted.py'
p2986
sS'dump'
p2987
(dp2988
S'environment'
p2989
S"{'A': <class 'gluon.html.A'>, 'ALLOW_TOGGLE': 'true', 'A_button': <function A_button>, 'B': <class 'gluon.html.B'>, 'BEAUTIFY': <class 'gluon.html.BEAUTIFY'>, 'BODY': <class 'gluon.html.BODY'>, 'BR': <class 'gluon.html.BR'>, 'BUTTON': <class 'gluon.html.BUTTON'>, 'CAT': <class 'gluon.html.CAT'>, 'CENTER': <class 'gluon.html.CENTER'>, ...}"
p2990
sS'ccode'
p2991
S'<code object <module> at 00000000088F48B0, file ...plications\\admin\\controllers/default.py", line 3>'
p2992
ssS'lnum'
p2993
I209
sS'lines'
p2994
(dp2995
I204
S'    try:'
p2996
sI205
S'        if type(code) == types.CodeType:'
p2997
sI206
S'            ccode = code'
p2998
sI207
S'        else:'
p2999
sI208
S'            ccode = compile2(code,layer)'
p3000
sI209
S'        exec ccode in environment'
p3001
sI210
S'    except HTTP:'
p3002
sI211
S'        raise'
p3003
sI212
S'    except RestrictedError:'
p3004
sI213
S'        # do not encapsulate (obfuscate) the original RestrictedError'
p3005
ssS'call'
p3006
S"(code='# coding: utf8\\n\\nEXPERIMENTAL_STUFF = True\\n\\nif EX...m=form)\\n\\n\\nresponse._vars=response._caller(about)\\n', environment={'A': <class 'gluon.html.A'>, 'ALLOW_TOGGLE': 'true', 'A_button': <function A_button>, 'B': <class 'gluon.html.B'>, 'BEAUTIFY': <class 'gluon.html.BEAUTIFY'>, 'BODY': <class 'gluon.html.BODY'>, 'BR': <class 'gluon.html.BR'>, 'BUTTON': <class 'gluon.html.BUTTON'>, 'CAT': <class 'gluon.html.CAT'>, 'CENTER': <class 'gluon.html.CENTER'>, ...}, layer=r'C:\\Users\\admin\\Desktop\\Sathvik\\Tharuni.Org\\applications\\admin\\controllers/default.py')"
p3007
sS'func'
p3008
S'restricted'
p3009
sa(dp3010
g2985
S'C:\\Users\\admin\\Desktop\\Sathvik\\Tharuni.Org\\applications\\admin\\controllers\\default.py'
p3011
sg2987
(dp3012
sg2993
I1702
sg2994
(dp3013
I1696
S'            logging.error("Unexpected error:", sys.exc_info()[0])'
p3014
sI1697
S'            session.flash = T("Push failed, git exited abnormally. See logs for details.")'
p3015
sI1698
S"            redirect(URL('site'))"
p3016
sI1699
S'    return dict(app=app,form=form)'
p3017
sI1700
S''
sI1691
S"            redirect(URL('site'))"
p3018
sI1692
S'        except UnmergedEntriesError:'
p3019
sI1693
S'            session.flash = T("Push failed, there are unmerged entries in the cache. Resolve merge issues manually and try again.")'
p3020
sI1694
S"            redirect(URL('site'))"
p3021
sI1695
S'        except Exception, e:'
p3022
ssg3006
S'()'
p3023
sg3008
S'<module>'
p3024
sa(dp3025
g2985
S'C:\\Users\\admin\\Desktop\\Sathvik\\Tharuni.Org\\gluon\\globals.py'
p3026
sg2987
(dp3027
S'self'
p3028
S'undefined'
p3029
sS'f'
S'<function about>'
p3030
ssg2993
I186
sg2994
(dp3031
I181
S'        self.menu = []             # used by the default view layout'
p3032
sI182
S'        self.files = []            # used by web2py_ajax.html'
p3033
sI183
S'        self.generic_patterns = [] # patterns to allow generic views'
p3034
sI184
S"        self.delimiters = ('{{','}}')"
p3035
sI185
S'        self._vars = None'
p3036
sI186
S'        self._caller = lambda f: f()'
p3037
sI187
S'        self._view_environment = None'
p3038
sI188
S'        self._custom_commit = None'
p3039
sI189
S'        self._custom_rollback = None'
p3040
sI190
S''
ssg3006
S'(f=<function about>)'
p3041
sg3008
S'<lambda>'
p3042
sa(dp3043
g2985
S'C:\\Users\\admin\\Desktop\\Sathvik\\Tharuni.Org\\applications\\admin\\controllers\\default.py'
p3044
sg2987
(dp3045
S'global about'
p3046
S'<function about>'
p3047
sS'global request'
p3048
S"<Storage {'function': 'about', 'body': <cStringI...plications\\\\admin\\\\', 'post_vars': <Storage {}>}>"
p3049
sS'app'
p3050
S"'init'"
p3051
sS'r'
g3029
sS'global apath'
p3052
S'<function apath>'
p3053
sS'global safe_read'
p3054
S'<function safe_read>'
p3055
ssg2993
I862
sg2994
(dp3056
I864
S'    return dict(app=app, about=MARKMIN(about), license=MARKMIN(license),progress=report_progress(app))'
p3057
sI865
S''
sI866
S''
sI857
S''
sI858
S'def about():'
p3058
sI859
S'    """ Read about info """'
p3059
sI860
S'    app = get_app()'
p3060
sI861
S'    # ## check if file is not there'
p3061
sI862
S"    about = safe_read(apath('%s/ABOUT' % app, r=request))"
p3062
sI863
S"    license = safe_read(apath('%s/LICENSE' % app, r=request))"
p3063
ssg3006
S'()'
p3064
sg3008
S'about'
p3065
sa(dp3066
g2985
S'C:\\Users\\admin\\Desktop\\Sathvik\\Tharuni.Org\\applications\\admin\\controllers\\default.py'
p3067
sg2987
(dp3068
S'a'
S"'C:/Users/admin/Desktop/Sathvik/Tharuni.Org/applications/init/ABOUT'"
p3069
sS'safe_file'
p3070
g3029
sS'global safe_open'
p3071
S'<function safe_open>'
p3072
sS'b'
S"'r'"
p3073
ssg2993
I64
sg2994
(dp3074
I64
S'    safe_file = safe_open(a, b)'
p3075
sI65
S'    try:'
p3076
sI66
S'        return safe_file.read()'
p3077
sI67
S'    finally:'
p3078
sI68
S'        safe_file.close()'
p3079
sI59
S'            def write(self,data): pass'
p3080
sI60
S'        return tmp()'
p3081
sI61
S'    return open(a,b)'
p3082
sI62
S''
sI63
S"def safe_read(a, b='r'):"
p3083
ssg3006
S"(a='C:/Users/admin/Desktop/Sathvik/Tharuni.Org/applications/init/ABOUT', b='r')"
p3084
sg3008
S'safe_read'
p3085
sa(dp3086
g2985
S'C:\\Users\\admin\\Desktop\\Sathvik\\Tharuni.Org\\applications\\admin\\controllers\\default.py'
p3087
sg2987
(dp3088
S'a'
S"'C:/Users/admin/Desktop/Sathvik/Tharuni.Org/applications/init/ABOUT'"
p3089
sS'builtinopen'
p3090
S'<built-in function open>'
p3091
sS'b'
S"'r'"
p3092
ssg2993
I61
sg2994
(dp3093
I64
S'    safe_file = safe_open(a, b)'
p3094
sI65
S'    try:'
p3095
sI56
S'def safe_open(a,b):'
p3096
sI57
S"    if DEMO_MODE and ('w' in b or 'a' in b):"
p3097
sI58
S'        class tmp:'
p3098
sI59
S'            def write(self,data): pass'
p3099
sI60
S'        return tmp()'
p3100
sI61
S'    return open(a,b)'
p3101
sI62
S''
sI63
S"def safe_read(a, b='r'):"
p3102
ssg3006
S"(a='C:/Users/admin/Desktop/Sathvik/Tharuni.Org/applications/init/ABOUT', b='r')"
p3103
sg3008
S'safe_open'
p3104
sasS'pyver'
p3105
S'Python 2.7.3: C:\\Python27\\python.exe'
p3106
sS'session'
p3107
g62
(g63
g64
NtRp3108
(dp3109
g67
(dp3110
sg69
(lp3111
g62
(g71
g64
NtRp3112
(dp3113
g67
(dp3114
g75
I5
ssg76
Nsg69
(lp3115
g62
(g78
g64
NtRp3116
(dp3117
g67
(dp3118
sg76
g3112
sg69
(lp3119
g62
(g83
g64
NtRp3120
(dp3121
g67
(dp3122
g87
g88
ssg76
g3116
sg69
(lp3123
S'authorized'
p3124
asbag62
(g83
g64
NtRp3125
(dp3126
g67
(dp3127
g94
g95
ssg76
g3116
sg69
(lp3128
S':'
asbag62
(g83
g64
NtRp3129
(dp3130
g67
(dp3131
sg76
g3116
sg69
(lp3132
g62
(g63
g64
NtRp3133
(dp3134
g67
(dp3135
g75
I5
ssg76
g3129
sg69
(lp3136
g1576
asbasbasbag62
(g78
g64
NtRp3137
(dp3138
g67
(dp3139
sg76
g3112
sg69
(lp3140
g62
(g83
g64
NtRp3141
(dp3142
g67
(dp3143
g87
g88
ssg76
g3137
sg69
(lp3144
S'check_version'
p3145
asbag62
(g83
g64
NtRp3146
(dp3147
g67
(dp3148
g94
g95
ssg76
g3137
sg69
(lp3149
S':'
asbag62
(g83
g64
NtRp3150
(dp3151
g67
(dp3152
sg76
g3137
sg69
(lp3153
g62
(g63
g64
NtRp3154
(dp3155
g67
(dp3156
g75
I5
ssg76
g3150
sg69
(lp3157
g105
asbasbasbag62
(g78
g64
NtRp3158
(dp3159
g67
(dp3160
sg76
g3112
sg69
(lp3161
g62
(g83
g64
NtRp3162
(dp3163
g67
(dp3164
g87
g88
ssg76
g3158
sg69
(lp3165
S'flash'
p3166
asbag62
(g83
g64
NtRp3167
(dp3168
g67
(dp3169
g94
g95
ssg76
g3158
sg69
(lp3170
S':'
asbag62
(g83
g64
NtRp3171
(dp3172
g67
(dp3173
sg76
g3158
sg69
(lp3174
g62
(g63
g64
NtRp3175
(dp3176
g67
(dp3177
g75
I5
ssg76
g3171
sg69
(lp3178
S'None'
p3179
asbasbasbag62
(g78
g64
NtRp3180
(dp3181
g67
(dp3182
sg76
g3112
sg69
(lp3183
g62
(g83
g64
NtRp3184
(dp3185
g67
(dp3186
g87
g88
ssg76
g3180
sg69
(lp3187
S'last_time'
p3188
asbag62
(g83
g64
NtRp3189
(dp3190
g67
(dp3191
g94
g95
ssg76
g3180
sg69
(lp3192
S':'
asbag62
(g83
g64
NtRp3193
(dp3194
g67
(dp3195
sg76
g3180
sg69
(lp3196
g62
(g63
g64
NtRp3197
(dp3198
g67
(dp3199
g75
I5
ssg76
g3193
sg69
(lp3200
S'1350209463.698'
p3201
asbasbasbag62
(g78
g64
NtRp3202
(dp3203
g67
(dp3204
sg76
g3112
sg69
(lp3205
g62
(g83
g64
NtRp3206
(dp3207
g67
(dp3208
g87
g88
ssg76
g3202
sg69
(lp3209
S'pam_user'
p3210
asbag62
(g83
g64
NtRp3211
(dp3212
g67
(dp3213
g94
g95
ssg76
g3202
sg69
(lp3214
S':'
asbag62
(g83
g64
NtRp3215
(dp3216
g67
(dp3217
sg76
g3202
sg69
(lp3218
g62
(g63
g64
NtRp3219
(dp3220
g67
(dp3221
g75
I5
ssg76
g3215
sg69
(lp3222
S'None'
p3223
asbasbasbag62
(g78
g64
NtRp3224
(dp3225
g67
(dp3226
sg76
g3112
sg69
(lp3227
g62
(g83
g64
NtRp3228
(dp3229
g67
(dp3230
g87
g88
ssg76
g3224
sg69
(lp3231
S'token'
p3232
asbag62
(g83
g64
NtRp3233
(dp3234
g67
(dp3235
g94
g95
ssg76
g3224
sg69
(lp3236
S':'
asbag62
(g83
g64
NtRp3237
(dp3238
g67
(dp3239
sg76
g3224
sg69
(lp3240
g62
(g63
g64
NtRp3241
(dp3242
g67
(dp3243
g75
I5
ssg76
g3237
sg69
(lp3244
S'8c6da387-220b-4126-9b99-e97263d6c223'
p3245
asbasbasbasbasbsS'etype'
p3246
S"<type 'exceptions.IOError'>"
p3247
sS'date'
p3248
S'Sun Oct 14 15:41:03 2012'
p3249
sS'response'
p3250
g62
(g63
g64
NtRp3251
(dp3252
g67
(dp3253
sg69
(lp3254
g62
(g71
g64
NtRp3255
(dp3256
g67
(dp3257
g75
I5
ssg76
Nsg69
(lp3258
g62
(g78
g64
NtRp3259
(dp3260
g67
(dp3261
sg76
g3255
sg69
(lp3262
g62
(g83
g64
NtRp3263
(dp3264
g67
(dp3265
g87
g88
ssg76
g3259
sg69
(lp3266
g173
asbag62
(g83
g64
NtRp3267
(dp3268
g67
(dp3269
g94
g95
ssg76
g3259
sg69
(lp3270
S':'
asbag62
(g83
g64
NtRp3271
(dp3272
g67
(dp3273
sg76
g3259
sg69
(lp3274
g62
(g63
g64
NtRp3275
(dp3276
g67
(dp3277
g75
I5
ssg76
g3271
sg69
(lp3278
S'<cStringIO.StringO object at 0x000000000884C0D8>'
p3279
asbasbasbag62
(g78
g64
NtRp3280
(dp3281
g67
(dp3282
sg76
g3255
sg69
(lp3283
g62
(g83
g64
NtRp3284
(dp3285
g67
(dp3286
g87
g88
ssg76
g3280
sg69
(lp3287
g261
asbag62
(g83
g64
NtRp3288
(dp3289
g67
(dp3290
g94
g95
ssg76
g3280
sg69
(lp3291
S':'
asbag62
(g83
g64
NtRp3292
(dp3293
g67
(dp3294
sg76
g3280
sg69
(lp3295
g62
(g63
g64
NtRp3296
(dp3297
g67
(dp3298
g75
I5
ssg76
g3292
sg69
(lp3299
g62
(g71
g64
NtRp3300
(dp3301
g67
(dp3302
g75
I4
ssg76
Nsg69
(lp3303
g62
(g78
g64
NtRp3304
(dp3305
g67
(dp3306
sg76
g3300
sg69
(lp3307
g62
(g83
g64
NtRp3308
(dp3309
g67
(dp3310
g87
g88
ssg76
g3304
sg69
(lp3311
S'session_id_admin'
p3312
asbag62
(g83
g64
NtRp3313
(dp3314
g67
(dp3315
g94
g95
ssg76
g3304
sg69
(lp3316
S':'
asbag62
(g83
g64
NtRp3317
(dp3318
g67
(dp3319
sg76
g3304
sg69
(lp3320
g62
(g63
g64
NtRp3321
(dp3322
g67
(dp3323
g75
I4
ssg76
g3317
sg69
(lp3324
g299
ag62
(g71
g64
NtRp3325
(dp3326
g67
(dp3327
g75
I3
ssg76
Nsg69
(lp3328
g62
(g78
g64
NtRp3329
(dp3330
g67
(dp3331
sg76
g3325
sg69
(lp3332
g62
(g83
g64
NtRp3333
(dp3334
g67
(dp3335
g87
g88
ssg76
g3329
sg69
(lp3336
g312
asbag62
(g83
g64
NtRp3337
(dp3338
g67
(dp3339
g94
g95
ssg76
g3329
sg69
(lp3340
S':'
asbag62
(g83
g64
NtRp3341
(dp3342
g67
(dp3343
sg76
g3329
sg69
(lp3344
g62
(g63
g64
NtRp3345
(dp3346
g67
(dp3347
g75
I3
ssg76
g3341
sg69
(lp3348
S''
asbasbasbag62
(g78
g64
NtRp3349
(dp3350
g67
(dp3351
sg76
g3325
sg69
(lp3352
g62
(g83
g64
NtRp3353
(dp3354
g67
(dp3355
g87
g88
ssg76
g3349
sg69
(lp3356
g333
asbag62
(g83
g64
NtRp3357
(dp3358
g67
(dp3359
g94
g95
ssg76
g3349
sg69
(lp3360
S':'
asbag62
(g83
g64
NtRp3361
(dp3362
g67
(dp3363
sg76
g3349
sg69
(lp3364
g62
(g63
g64
NtRp3365
(dp3366
g67
(dp3367
g75
I3
ssg76
g3361
sg69
(lp3368
S''
asbasbasbag62
(g78
g64
NtRp3369
(dp3370
g67
(dp3371
sg76
g3325
sg69
(lp3372
g62
(g83
g64
NtRp3373
(dp3374
g67
(dp3375
g87
g88
ssg76
g3369
sg69
(lp3376
g354
asbag62
(g83
g64
NtRp3377
(dp3378
g67
(dp3379
g94
g95
ssg76
g3369
sg69
(lp3380
S':'
asbag62
(g83
g64
NtRp3381
(dp3382
g67
(dp3383
sg76
g3369
sg69
(lp3384
g62
(g63
g64
NtRp3385
(dp3386
g67
(dp3387
g75
I3
ssg76
g3381
sg69
(lp3388
S''
asbasbasbag62
(g78
g64
NtRp3389
(dp3390
g67
(dp3391
sg76
g3325
sg69
(lp3392
g62
(g83
g64
NtRp3393
(dp3394
g67
(dp3395
g87
g88
ssg76
g3389
sg69
(lp3396
g375
asbag62
(g83
g64
NtRp3397
(dp3398
g67
(dp3399
g94
g95
ssg76
g3389
sg69
(lp3400
S':'
asbag62
(g83
g64
NtRp3401
(dp3402
g67
(dp3403
sg76
g3389
sg69
(lp3404
g62
(g63
g64
NtRp3405
(dp3406
g67
(dp3407
g75
I3
ssg76
g3401
sg69
(lp3408
S''
asbasbasbag62
(g78
g64
NtRp3409
(dp3410
g67
(dp3411
sg76
g3325
sg69
(lp3412
g62
(g83
g64
NtRp3413
(dp3414
g67
(dp3415
g87
g88
ssg76
g3409
sg69
(lp3416
g396
asbag62
(g83
g64
NtRp3417
(dp3418
g67
(dp3419
g94
g95
ssg76
g3409
sg69
(lp3420
S':'
asbag62
(g83
g64
NtRp3421
(dp3422
g67
(dp3423
sg76
g3409
sg69
(lp3424
g62
(g63
g64
NtRp3425
(dp3426
g67
(dp3427
g75
I3
ssg76
g3421
sg69
(lp3428
S''
asbasbasbag62
(g78
g64
NtRp3429
(dp3430
g67
(dp3431
sg76
g3325
sg69
(lp3432
g62
(g83
g64
NtRp3433
(dp3434
g67
(dp3435
g87
g88
ssg76
g3429
sg69
(lp3436
g417
asbag62
(g83
g64
NtRp3437
(dp3438
g67
(dp3439
g94
g95
ssg76
g3429
sg69
(lp3440
S':'
asbag62
(g83
g64
NtRp3441
(dp3442
g67
(dp3443
sg76
g3429
sg69
(lp3444
g62
(g63
g64
NtRp3445
(dp3446
g67
(dp3447
g75
I3
ssg76
g3441
sg69
(lp3448
S'/'
asbasbasbag62
(g78
g64
NtRp3449
(dp3450
g67
(dp3451
sg76
g3325
sg69
(lp3452
g62
(g83
g64
NtRp3453
(dp3454
g67
(dp3455
g87
g88
ssg76
g3449
sg69
(lp3456
g438
asbag62
(g83
g64
NtRp3457
(dp3458
g67
(dp3459
g94
g95
ssg76
g3449
sg69
(lp3460
S':'
asbag62
(g83
g64
NtRp3461
(dp3462
g67
(dp3463
sg76
g3449
sg69
(lp3464
g62
(g63
g64
NtRp3465
(dp3466
g67
(dp3467
g75
I3
ssg76
g3461
sg69
(lp3468
S''
asbasbasbag62
(g78
g64
NtRp3469
(dp3470
g67
(dp3471
sg76
g3325
sg69
(lp3472
g62
(g83
g64
NtRp3473
(dp3474
g67
(dp3475
g87
g88
ssg76
g3469
sg69
(lp3476
g459
asbag62
(g83
g64
NtRp3477
(dp3478
g67
(dp3479
g94
g95
ssg76
g3469
sg69
(lp3480
S':'
asbag62
(g83
g64
NtRp3481
(dp3482
g67
(dp3483
sg76
g3469
sg69
(lp3484
g62
(g63
g64
NtRp3485
(dp3486
g67
(dp3487
g75
I3
ssg76
g3481
sg69
(lp3488
S''
asbasbasbasbasbasbasbasbasbasbasbag62
(g78
g64
NtRp3489
(dp3490
g67
(dp3491
sg76
g3255
sg69
(lp3492
g62
(g83
g64
NtRp3493
(dp3494
g67
(dp3495
g87
g88
ssg76
g3489
sg69
(lp3496
S'delimiters'
p3497
asbag62
(g83
g64
NtRp3498
(dp3499
g67
(dp3500
g94
g95
ssg76
g3489
sg69
(lp3501
S':'
asbag62
(g83
g64
NtRp3502
(dp3503
g67
(dp3504
sg76
g3489
sg69
(lp3505
g62
(g63
g64
NtRp3506
(dp3507
g67
(dp3508
g75
I5
ssg76
g3502
sg69
(lp3509
g62
(g71
g64
NtRp3510
(dp3511
g67
(dp3512
g75
I4
ssg76
Nsg69
(lp3513
g62
(g78
g64
NtRp3514
(dp3515
g67
(dp3516
sg76
g3510
sg69
(lp3517
g62
(g83
g64
NtRp3518
(dp3519
g67
(dp3520
sg76
g3514
sg69
(lp3521
g62
(g63
g64
NtRp3522
(dp3523
g67
(dp3524
g75
I4
ssg76
g3518
sg69
(lp3525
S'{{'
p3526
asbasbasbag62
(g78
g64
NtRp3527
(dp3528
g67
(dp3529
sg76
g3510
sg69
(lp3530
g62
(g83
g64
NtRp3531
(dp3532
g67
(dp3533
sg76
g3527
sg69
(lp3534
g62
(g63
g64
NtRp3535
(dp3536
g67
(dp3537
g75
I4
ssg76
g3531
sg69
(lp3538
S'}}'
p3539
asbasbasbasbasbasbasbag62
(g78
g64
NtRp3540
(dp3541
g67
(dp3542
sg76
g3255
sg69
(lp3543
g62
(g83
g64
NtRp3544
(dp3545
g67
(dp3546
g87
g88
ssg76
g3540
sg69
(lp3547
S'files'
p3548
asbag62
(g83
g64
NtRp3549
(dp3550
g67
(dp3551
g94
g95
ssg76
g3540
sg69
(lp3552
S':'
asbag62
(g83
g64
NtRp3553
(dp3554
g67
(dp3555
sg76
g3540
sg69
(lp3556
g62
(g63
g64
NtRp3557
(dp3558
g67
(dp3559
g75
I5
ssg76
g3553
sg69
(lp3560
g62
(g71
g64
NtRp3561
(dp3562
g67
(dp3563
g75
I4
ssg76
Nsg69
(lp3564
g62
(g78
g64
NtRp3565
(dp3566
g67
(dp3567
sg76
g3561
sg69
(lp3568
g62
(g83
g64
NtRp3569
(dp3570
g67
(dp3571
sg76
g3565
sg69
(lp3572
g62
(g63
g64
NtRp3573
(dp3574
g67
(dp3575
g75
I4
ssg76
g3569
sg69
(lp3576
S'/admin/static/plugin_multiselect/jquery.multi-select.js'
p3577
asbasbasbag62
(g78
g64
NtRp3578
(dp3579
g67
(dp3580
sg76
g3561
sg69
(lp3581
g62
(g83
g64
NtRp3582
(dp3583
g67
(dp3584
sg76
g3578
sg69
(lp3585
g62
(g63
g64
NtRp3586
(dp3587
g67
(dp3588
g75
I4
ssg76
g3582
sg69
(lp3589
S'/admin/static/plugin_multiselect/multi-select.css'
p3590
asbasbasbag62
(g78
g64
NtRp3591
(dp3592
g67
(dp3593
sg76
g3561
sg69
(lp3594
g62
(g83
g64
NtRp3595
(dp3596
g67
(dp3597
sg76
g3591
sg69
(lp3598
g62
(g63
g64
NtRp3599
(dp3600
g67
(dp3601
g75
I4
ssg76
g3595
sg69
(lp3602
S'/admin/static/plugin_multiselect/start.js'
p3603
asbasbasbasbasbasbasbag62
(g78
g64
NtRp3604
(dp3605
g67
(dp3606
sg76
g3255
sg69
(lp3607
g62
(g83
g64
NtRp3608
(dp3609
g67
(dp3610
g87
g88
ssg76
g3604
sg69
(lp3611
S'flash'
p3612
asbag62
(g83
g64
NtRp3613
(dp3614
g67
(dp3615
g94
g95
ssg76
g3604
sg69
(lp3616
S':'
asbag62
(g83
g64
NtRp3617
(dp3618
g67
(dp3619
sg76
g3604
sg69
(lp3620
g62
(g63
g64
NtRp3621
(dp3622
g67
(dp3623
g75
I5
ssg76
g3617
sg69
(lp3624
S''
asbasbasbag62
(g78
g64
NtRp3625
(dp3626
g67
(dp3627
sg76
g3255
sg69
(lp3628
g62
(g83
g64
NtRp3629
(dp3630
g67
(dp3631
g87
g88
ssg76
g3625
sg69
(lp3632
S'generic_patterns'
p3633
asbag62
(g83
g64
NtRp3634
(dp3635
g67
(dp3636
g94
g95
ssg76
g3625
sg69
(lp3637
S':'
asbag62
(g83
g64
NtRp3638
(dp3639
g67
(dp3640
sg76
g3625
sg69
(lp3641
g62
(g63
g64
NtRp3642
(dp3643
g67
(dp3644
g75
I5
ssg76
g3638
sg69
(lp3645
g62
(g71
g64
NtRp3646
(dp3647
g67
(dp3648
g75
I4
ssg76
Nsg69
(lp3649
sbasbasbasbag62
(g78
g64
NtRp3650
(dp3651
g67
(dp3652
sg76
g3255
sg69
(lp3653
g62
(g83
g64
NtRp3654
(dp3655
g67
(dp3656
g87
g88
ssg76
g3650
sg69
(lp3657
S'headers'
p3658
asbag62
(g83
g64
NtRp3659
(dp3660
g67
(dp3661
g94
g95
ssg76
g3650
sg69
(lp3662
S':'
asbag62
(g83
g64
NtRp3663
(dp3664
g67
(dp3665
sg76
g3650
sg69
(lp3666
g62
(g63
g64
NtRp3667
(dp3668
g67
(dp3669
g75
I5
ssg76
g3663
sg69
(lp3670
g62
(g71
g64
NtRp3671
(dp3672
g67
(dp3673
g75
I4
ssg76
Nsg69
(lp3674
g62
(g78
g64
NtRp3675
(dp3676
g67
(dp3677
sg76
g3671
sg69
(lp3678
g62
(g83
g64
NtRp3679
(dp3680
g67
(dp3681
g87
g88
ssg76
g3675
sg69
(lp3682
S'X-Powered-By'
p3683
asbag62
(g83
g64
NtRp3684
(dp3685
g67
(dp3686
g94
g95
ssg76
g3675
sg69
(lp3687
S':'
asbag62
(g83
g64
NtRp3688
(dp3689
g67
(dp3690
sg76
g3675
sg69
(lp3691
g62
(g63
g64
NtRp3692
(dp3693
g67
(dp3694
g75
I4
ssg76
g3688
sg69
(lp3695
S'web2py'
p3696
asbasbasbasbasbasbasbag62
(g78
g64
NtRp3697
(dp3698
g67
(dp3699
sg76
g3255
sg69
(lp3700
g62
(g83
g64
NtRp3701
(dp3702
g67
(dp3703
g87
g88
ssg76
g3697
sg69
(lp3704
S'menu'
p3705
asbag62
(g83
g64
NtRp3706
(dp3707
g67
(dp3708
g94
g95
ssg76
g3697
sg69
(lp3709
S':'
asbag62
(g83
g64
NtRp3710
(dp3711
g67
(dp3712
sg76
g3697
sg69
(lp3713
g62
(g63
g64
NtRp3714
(dp3715
g67
(dp3716
g75
I5
ssg76
g3710
sg69
(lp3717
g62
(g71
g64
NtRp3718
(dp3719
g67
(dp3720
g75
I4
ssg76
Nsg69
(lp3721
g62
(g78
g64
NtRp3722
(dp3723
g67
(dp3724
sg76
g3718
sg69
(lp3725
g62
(g83
g64
NtRp3726
(dp3727
g67
(dp3728
sg76
g3722
sg69
(lp3729
g62
(g63
g64
NtRp3730
(dp3731
g67
(dp3732
g75
I4
ssg76
g3726
sg69
(lp3733
g62
(g71
g64
NtRp3734
(dp3735
g67
(dp3736
g75
I3
ssg76
Nsg69
(lp3737
g62
(g78
g64
NtRp3738
(dp3739
g67
(dp3740
sg76
g3734
sg69
(lp3741
g62
(g83
g64
NtRp3742
(dp3743
g67
(dp3744
sg76
g3738
sg69
(lp3745
g62
(g63
g64
NtRp3746
(dp3747
g67
(dp3748
g75
I3
ssg76
g3742
sg69
(lp3749
cgluon.languages
lazyT_unpickle
p3750
(S's\x04\x00\x00\x00Site'
tRp3751
asbasbasbag62
(g78
g64
NtRp3752
(dp3753
g67
(dp3754
sg76
g3734
sg69
(lp3755
g62
(g83
g64
NtRp3756
(dp3757
g67
(dp3758
sg76
g3752
sg69
(lp3759
g62
(g63
g64
NtRp3760
(dp3761
g67
(dp3762
g75
I3
ssg76
g3756
sg69
(lp3763
g105
asbasbasbag62
(g78
g64
NtRp3764
(dp3765
g67
(dp3766
sg76
g3734
sg69
(lp3767
g62
(g83
g64
NtRp3768
(dp3769
g67
(dp3770
sg76
g3764
sg69
(lp3771
g62
(g63
g64
NtRp3772
(dp3773
g67
(dp3774
g75
I3
ssg76
g3768
sg69
(lp3775
S'/admin/default/site'
p3776
asbasbasbasbasbasbasbag62
(g78
g64
NtRp3777
(dp3778
g67
(dp3779
sg76
g3718
sg69
(lp3780
g62
(g83
g64
NtRp3781
(dp3782
g67
(dp3783
sg76
g3777
sg69
(lp3784
g62
(g63
g64
NtRp3785
(dp3786
g67
(dp3787
g75
I4
ssg76
g3781
sg69
(lp3788
g62
(g71
g64
NtRp3789
(dp3790
g67
(dp3791
g75
I3
ssg76
Nsg69
(lp3792
g62
(g78
g64
NtRp3793
(dp3794
g67
(dp3795
sg76
g3789
sg69
(lp3796
g62
(g83
g64
NtRp3797
(dp3798
g67
(dp3799
sg76
g3793
sg69
(lp3800
g62
(g63
g64
NtRp3801
(dp3802
g67
(dp3803
g75
I3
ssg76
g3797
sg69
(lp3804
g3750
(S's\x04\x00\x00\x00Edit'
tRp3805
asbasbasbag62
(g78
g64
NtRp3806
(dp3807
g67
(dp3808
sg76
g3789
sg69
(lp3809
g62
(g83
g64
NtRp3810
(dp3811
g67
(dp3812
sg76
g3806
sg69
(lp3813
g62
(g63
g64
NtRp3814
(dp3815
g67
(dp3816
g75
I3
ssg76
g3810
sg69
(lp3817
g105
asbasbasbag62
(g78
g64
NtRp3818
(dp3819
g67
(dp3820
sg76
g3789
sg69
(lp3821
g62
(g83
g64
NtRp3822
(dp3823
g67
(dp3824
sg76
g3818
sg69
(lp3825
g62
(g63
g64
NtRp3826
(dp3827
g67
(dp3828
g75
I3
ssg76
g3822
sg69
(lp3829
S'/admin/default/design/init'
p3830
asbasbasbasbasbasbasbag62
(g78
g64
NtRp3831
(dp3832
g67
(dp3833
sg76
g3718
sg69
(lp3834
g62
(g83
g64
NtRp3835
(dp3836
g67
(dp3837
sg76
g3831
sg69
(lp3838
g62
(g63
g64
NtRp3839
(dp3840
g67
(dp3841
g75
I4
ssg76
g3835
sg69
(lp3842
g62
(g71
g64
NtRp3843
(dp3844
g67
(dp3845
g75
I3
ssg76
Nsg69
(lp3846
g62
(g78
g64
NtRp3847
(dp3848
g67
(dp3849
sg76
g3843
sg69
(lp3850
g62
(g83
g64
NtRp3851
(dp3852
g67
(dp3853
sg76
g3847
sg69
(lp3854
g62
(g63
g64
NtRp3855
(dp3856
g67
(dp3857
g75
I3
ssg76
g3851
sg69
(lp3858
g3750
(S's\x05\x00\x00\x00About'
tRp3859
asbasbasbag62
(g78
g64
NtRp3860
(dp3861
g67
(dp3862
sg76
g3843
sg69
(lp3863
g62
(g83
g64
NtRp3864
(dp3865
g67
(dp3866
sg76
g3860
sg69
(lp3867
g62
(g63
g64
NtRp3868
(dp3869
g67
(dp3870
g75
I3
ssg76
g3864
sg69
(lp3871
g1576
asbasbasbag62
(g78
g64
NtRp3872
(dp3873
g67
(dp3874
sg76
g3843
sg69
(lp3875
g62
(g83
g64
NtRp3876
(dp3877
g67
(dp3878
sg76
g3872
sg69
(lp3879
g62
(g63
g64
NtRp3880
(dp3881
g67
(dp3882
g75
I3
ssg76
g3876
sg69
(lp3883
S'/admin/default/about/init'
p3884
asbasbasbasbasbasbasbag62
(g78
g64
NtRp3885
(dp3886
g67
(dp3887
sg76
g3718
sg69
(lp3888
g62
(g83
g64
NtRp3889
(dp3890
g67
(dp3891
sg76
g3885
sg69
(lp3892
g62
(g63
g64
NtRp3893
(dp3894
g67
(dp3895
g75
I4
ssg76
g3889
sg69
(lp3896
g62
(g71
g64
NtRp3897
(dp3898
g67
(dp3899
g75
I3
ssg76
Nsg69
(lp3900
g62
(g78
g64
NtRp3901
(dp3902
g67
(dp3903
sg76
g3897
sg69
(lp3904
g62
(g83
g64
NtRp3905
(dp3906
g67
(dp3907
sg76
g3901
sg69
(lp3908
g62
(g63
g64
NtRp3909
(dp3910
g67
(dp3911
g75
I3
ssg76
g3905
sg69
(lp3912
g3750
(S's\x06\x00\x00\x00Errors'
tRp3913
asbasbasbag62
(g78
g64
NtRp3914
(dp3915
g67
(dp3916
sg76
g3897
sg69
(lp3917
g62
(g83
g64
NtRp3918
(dp3919
g67
(dp3920
sg76
g3914
sg69
(lp3921
g62
(g63
g64
NtRp3922
(dp3923
g67
(dp3924
g75
I3
ssg76
g3918
sg69
(lp3925
g105
asbasbasbag62
(g78
g64
NtRp3926
(dp3927
g67
(dp3928
sg76
g3897
sg69
(lp3929
g62
(g83
g64
NtRp3930
(dp3931
g67
(dp3932
sg76
g3926
sg69
(lp3933
g62
(g63
g64
NtRp3934
(dp3935
g67
(dp3936
g75
I3
ssg76
g3930
sg69
(lp3937
S'/admin/default/errors/init'
p3938
asbasbasbasbasbasbasbag62
(g78
g64
NtRp3939
(dp3940
g67
(dp3941
sg76
g3718
sg69
(lp3942
g62
(g83
g64
NtRp3943
(dp3944
g67
(dp3945
sg76
g3939
sg69
(lp3946
g62
(g63
g64
NtRp3947
(dp3948
g67
(dp3949
g75
I4
ssg76
g3943
sg69
(lp3950
g62
(g71
g64
NtRp3951
(dp3952
g67
(dp3953
g75
I3
ssg76
Nsg69
(lp3954
g62
(g78
g64
NtRp3955
(dp3956
g67
(dp3957
sg76
g3951
sg69
(lp3958
g62
(g83
g64
NtRp3959
(dp3960
g67
(dp3961
sg76
g3955
sg69
(lp3962
g62
(g63
g64
NtRp3963
(dp3964
g67
(dp3965
g75
I3
ssg76
g3959
sg69
(lp3966
g3750
(S's\n\x00\x00\x00Versioning'
tRp3967
asbasbasbag62
(g78
g64
NtRp3968
(dp3969
g67
(dp3970
sg76
g3951
sg69
(lp3971
g62
(g83
g64
NtRp3972
(dp3973
g67
(dp3974
sg76
g3968
sg69
(lp3975
g62
(g63
g64
NtRp3976
(dp3977
g67
(dp3978
g75
I3
ssg76
g3972
sg69
(lp3979
g105
asbasbasbag62
(g78
g64
NtRp3980
(dp3981
g67
(dp3982
sg76
g3951
sg69
(lp3983
g62
(g83
g64
NtRp3984
(dp3985
g67
(dp3986
sg76
g3980
sg69
(lp3987
g62
(g63
g64
NtRp3988
(dp3989
g67
(dp3990
g75
I3
ssg76
g3984
sg69
(lp3991
S'/admin/mercurial/commit/init'
p3992
asbasbasbasbasbasbasbag62
(g78
g64
NtRp3993
(dp3994
g67
(dp3995
sg76
g3718
sg69
(lp3996
g62
(g83
g64
NtRp3997
(dp3998
g67
(dp3999
sg76
g3993
sg69
(lp4000
g62
(g63
g64
NtRp4001
(dp4002
g67
(dp4003
g75
I4
ssg76
g3997
sg69
(lp4004
g62
(g71
g64
NtRp4005
(dp4006
g67
(dp4007
g75
I3
ssg76
Nsg69
(lp4008
g62
(g78
g64
NtRp4009
(dp4010
g67
(dp4011
sg76
g4005
sg69
(lp4012
g62
(g83
g64
NtRp4013
(dp4014
g67
(dp4015
sg76
g4009
sg69
(lp4016
g62
(g63
g64
NtRp4017
(dp4018
g67
(dp4019
g75
I3
ssg76
g4013
sg69
(lp4020
g3750
(S's\x06\x00\x00\x00Logout'
tRp4021
asbasbasbag62
(g78
g64
NtRp4022
(dp4023
g67
(dp4024
sg76
g4005
sg69
(lp4025
g62
(g83
g64
NtRp4026
(dp4027
g67
(dp4028
sg76
g4022
sg69
(lp4029
g62
(g63
g64
NtRp4030
(dp4031
g67
(dp4032
g75
I3
ssg76
g4026
sg69
(lp4033
g105
asbasbasbag62
(g78
g64
NtRp4034
(dp4035
g67
(dp4036
sg76
g4005
sg69
(lp4037
g62
(g83
g64
NtRp4038
(dp4039
g67
(dp4040
sg76
g4034
sg69
(lp4041
g62
(g63
g64
NtRp4042
(dp4043
g67
(dp4044
g75
I3
ssg76
g4038
sg69
(lp4045
S'/admin/default/logout'
p4046
asbasbasbasbasbasbasbag62
(g78
g64
NtRp4047
(dp4048
g67
(dp4049
sg76
g3718
sg69
(lp4050
g62
(g83
g64
NtRp4051
(dp4052
g67
(dp4053
sg76
g4047
sg69
(lp4054
g62
(g63
g64
NtRp4055
(dp4056
g67
(dp4057
g75
I4
ssg76
g4051
sg69
(lp4058
g62
(g71
g64
NtRp4059
(dp4060
g67
(dp4061
g75
I3
ssg76
Nsg69
(lp4062
g62
(g78
g64
NtRp4063
(dp4064
g67
(dp4065
sg76
g4059
sg69
(lp4066
g62
(g83
g64
NtRp4067
(dp4068
g67
(dp4069
sg76
g4063
sg69
(lp4070
g62
(g63
g64
NtRp4071
(dp4072
g67
(dp4073
g75
I3
ssg76
g4067
sg69
(lp4074
g3750
(S's\x05\x00\x00\x00Debug'
tRp4075
asbasbasbag62
(g78
g64
NtRp4076
(dp4077
g67
(dp4078
sg76
g4059
sg69
(lp4079
g62
(g83
g64
NtRp4080
(dp4081
g67
(dp4082
sg76
g4076
sg69
(lp4083
g62
(g63
g64
NtRp4084
(dp4085
g67
(dp4086
g75
I3
ssg76
g4080
sg69
(lp4087
g105
asbasbasbag62
(g78
g64
NtRp4088
(dp4089
g67
(dp4090
sg76
g4059
sg69
(lp4091
g62
(g83
g64
NtRp4092
(dp4093
g67
(dp4094
sg76
g4088
sg69
(lp4095
g62
(g63
g64
NtRp4096
(dp4097
g67
(dp4098
g75
I3
ssg76
g4092
sg69
(lp4099
S'/admin/debug/interact'
p4100
asbasbasbasbasbasbasbag62
(g78
g64
NtRp4101
(dp4102
g67
(dp4103
sg76
g3718
sg69
(lp4104
g62
(g83
g64
NtRp4105
(dp4106
g67
(dp4107
sg76
g4101
sg69
(lp4108
g62
(g63
g64
NtRp4109
(dp4110
g67
(dp4111
g75
I4
ssg76
g4105
sg69
(lp4112
g62
(g71
g64
NtRp4113
(dp4114
g67
(dp4115
g75
I3
ssg76
Nsg69
(lp4116
g62
(g78
g64
NtRp4117
(dp4118
g67
(dp4119
sg76
g4113
sg69
(lp4120
g62
(g83
g64
NtRp4121
(dp4122
g67
(dp4123
sg76
g4117
sg69
(lp4124
g62
(g63
g64
NtRp4125
(dp4126
g67
(dp4127
g75
I3
ssg76
g4121
sg69
(lp4128
g3750
(S's\x04\x00\x00\x00Help'
tRp4129
asbasbasbag62
(g78
g64
NtRp4130
(dp4131
g67
(dp4132
sg76
g4113
sg69
(lp4133
g62
(g83
g64
NtRp4134
(dp4135
g67
(dp4136
sg76
g4130
sg69
(lp4137
g62
(g63
g64
NtRp4138
(dp4139
g67
(dp4140
g75
I3
ssg76
g4134
sg69
(lp4141
g105
asbasbasbag62
(g78
g64
NtRp4142
(dp4143
g67
(dp4144
sg76
g4113
sg69
(lp4145
g62
(g83
g64
NtRp4146
(dp4147
g67
(dp4148
sg76
g4142
sg69
(lp4149
g62
(g63
g64
NtRp4150
(dp4151
g67
(dp4152
g75
I3
ssg76
g4146
sg69
(lp4153
S'http://web2py.com/examples'
p4154
asbasbasbasbasbasbasbasbasbasbasbag62
(g78
g64
NtRp4155
(dp4156
g67
(dp4157
sg76
g3255
sg69
(lp4158
g62
(g83
g64
NtRp4159
(dp4160
g67
(dp4161
g87
g88
ssg76
g4155
sg69
(lp4162
S'meta'
p4163
asbag62
(g83
g64
NtRp4164
(dp4165
g67
(dp4166
g94
g95
ssg76
g4155
sg69
(lp4167
S':'
asbag62
(g83
g64
NtRp4168
(dp4169
g67
(dp4170
sg76
g4155
sg69
(lp4171
g62
(g63
g64
NtRp4172
(dp4173
g67
(dp4174
g75
I5
ssg76
g4168
sg69
(lp4175
g62
(g71
g64
NtRp4176
(dp4177
g67
(dp4178
g75
I4
ssg76
Nsg69
(lp4179
sbasbasbasbag62
(g78
g64
NtRp4180
(dp4181
g67
(dp4182
sg76
g3255
sg69
(lp4183
g62
(g83
g64
NtRp4184
(dp4185
g67
(dp4186
g87
g88
ssg76
g4180
sg69
(lp4187
S'models_to_run'
p4188
asbag62
(g83
g64
NtRp4189
(dp4190
g67
(dp4191
g94
g95
ssg76
g4180
sg69
(lp4192
S':'
asbag62
(g83
g64
NtRp4193
(dp4194
g67
(dp4195
sg76
g4180
sg69
(lp4196
g62
(g63
g64
NtRp4197
(dp4198
g67
(dp4199
g75
I5
ssg76
g4193
sg69
(lp4200
g62
(g71
g64
NtRp4201
(dp4202
g67
(dp4203
g75
I4
ssg76
Nsg69
(lp4204
g62
(g78
g64
NtRp4205
(dp4206
g67
(dp4207
sg76
g4201
sg69
(lp4208
g62
(g83
g64
NtRp4209
(dp4210
g67
(dp4211
sg76
g4205
sg69
(lp4212
g62
(g63
g64
NtRp4213
(dp4214
g67
(dp4215
g75
I4
ssg76
g4209
sg69
(lp4216
S'^\\w+\\.py$'
p4217
asbasbasbag62
(g78
g64
NtRp4218
(dp4219
g67
(dp4220
sg76
g4201
sg69
(lp4221
g62
(g83
g64
NtRp4222
(dp4223
g67
(dp4224
sg76
g4218
sg69
(lp4225
g62
(g63
g64
NtRp4226
(dp4227
g67
(dp4228
g75
I4
ssg76
g4222
sg69
(lp4229
S'^default/\\w+\\.py$'
p4230
asbasbasbag62
(g78
g64
NtRp4231
(dp4232
g67
(dp4233
sg76
g4201
sg69
(lp4234
g62
(g83
g64
NtRp4235
(dp4236
g67
(dp4237
sg76
g4231
sg69
(lp4238
g62
(g63
g64
NtRp4239
(dp4240
g67
(dp4241
g75
I4
ssg76
g4235
sg69
(lp4242
S'^default/about/\\w+\\.py$'
p4243
asbasbasbasbasbasbasbag62
(g78
g64
NtRp4244
(dp4245
g67
(dp4246
sg76
g3255
sg69
(lp4247
g62
(g83
g64
NtRp4248
(dp4249
g67
(dp4250
g87
g88
ssg76
g4244
sg69
(lp4251
S'postprocessing'
p4252
asbag62
(g83
g64
NtRp4253
(dp4254
g67
(dp4255
g94
g95
ssg76
g4244
sg69
(lp4256
S':'
asbag62
(g83
g64
NtRp4257
(dp4258
g67
(dp4259
sg76
g4244
sg69
(lp4260
g62
(g63
g64
NtRp4261
(dp4262
g67
(dp4263
g75
I5
ssg76
g4257
sg69
(lp4264
g62
(g71
g64
NtRp4265
(dp4266
g67
(dp4267
g75
I4
ssg76
Nsg69
(lp4268
sbasbasbasbag62
(g78
g64
NtRp4269
(dp4270
g67
(dp4271
sg76
g3255
sg69
(lp4272
g62
(g83
g64
NtRp4273
(dp4274
g67
(dp4275
g87
g88
ssg76
g4269
sg69
(lp4276
S'session_file'
p4277
asbag62
(g83
g64
NtRp4278
(dp4279
g67
(dp4280
g94
g95
ssg76
g4269
sg69
(lp4281
S':'
asbag62
(g83
g64
NtRp4282
(dp4283
g67
(dp4284
sg76
g4269
sg69
(lp4285
g62
(g63
g64
NtRp4286
(dp4287
g67
(dp4288
g75
I5
ssg76
g4282
sg69
(lp4289
S"<open file 'C:\\Users\\admin\\Desktop\\Sathvik\\Tharuni.Org\\applications\\admin\\sessions\\127.0.0.1-b09474c4-74c6-4bff-864d-e3d6c3b6e87e', mode 'rb+' at 0x0000000003D38C00>"
p4290
asbasbasbag62
(g78
g64
NtRp4291
(dp4292
g67
(dp4293
sg76
g3255
sg69
(lp4294
g62
(g83
g64
NtRp4295
(dp4296
g67
(dp4297
g87
g88
ssg76
g4291
sg69
(lp4298
S'session_filename'
p4299
asbag62
(g83
g64
NtRp4300
(dp4301
g67
(dp4302
g94
g95
ssg76
g4291
sg69
(lp4303
S':'
asbag62
(g83
g64
NtRp4304
(dp4305
g67
(dp4306
sg76
g4291
sg69
(lp4307
g62
(g63
g64
NtRp4308
(dp4309
g67
(dp4310
g75
I5
ssg76
g4304
sg69
(lp4311
S'C:\\Users\\admin\\Desktop\\Sathvik\\Tharuni.Org\\applications\\admin\\sessions\\127.0.0.1-b09474c4-74c6-4bff-864d-e3d6c3b6e87e'
p4312
asbasbasbag62
(g78
g64
NtRp4313
(dp4314
g67
(dp4315
sg76
g3255
sg69
(lp4316
g62
(g83
g64
NtRp4317
(dp4318
g67
(dp4319
g87
g88
ssg76
g4313
sg69
(lp4320
S'session_id'
p4321
asbag62
(g83
g64
NtRp4322
(dp4323
g67
(dp4324
g94
g95
ssg76
g4313
sg69
(lp4325
S':'
asbag62
(g83
g64
NtRp4326
(dp4327
g67
(dp4328
sg76
g4313
sg69
(lp4329
g62
(g63
g64
NtRp4330
(dp4331
g67
(dp4332
g75
I5
ssg76
g4326
sg69
(lp4333
g299
asbasbasbag62
(g78
g64
NtRp4334
(dp4335
g67
(dp4336
sg76
g3255
sg69
(lp4337
g62
(g83
g64
NtRp4338
(dp4339
g67
(dp4340
g87
g88
ssg76
g4334
sg69
(lp4341
S'session_id_name'
p4342
asbag62
(g83
g64
NtRp4343
(dp4344
g67
(dp4345
g94
g95
ssg76
g4334
sg69
(lp4346
S':'
asbag62
(g83
g64
NtRp4347
(dp4348
g67
(dp4349
sg76
g4334
sg69
(lp4350
g62
(g63
g64
NtRp4351
(dp4352
g67
(dp4353
g75
I5
ssg76
g4347
sg69
(lp4354
g3312
asbasbasbag62
(g78
g64
NtRp4355
(dp4356
g67
(dp4357
sg76
g3255
sg69
(lp4358
g62
(g83
g64
NtRp4359
(dp4360
g67
(dp4361
g87
g88
ssg76
g4355
sg69
(lp4362
S'session_locked'
p4363
asbag62
(g83
g64
NtRp4364
(dp4365
g67
(dp4366
g94
g95
ssg76
g4355
sg69
(lp4367
S':'
asbag62
(g83
g64
NtRp4368
(dp4369
g67
(dp4370
sg76
g4355
sg69
(lp4371
g62
(g63
g64
NtRp4372
(dp4373
g67
(dp4374
g75
I5
ssg76
g4368
sg69
(lp4375
g1576
asbasbasbag62
(g78
g64
NtRp4376
(dp4377
g67
(dp4378
sg76
g3255
sg69
(lp4379
g62
(g83
g64
NtRp4380
(dp4381
g67
(dp4382
g87
g88
ssg76
g4376
sg69
(lp4383
S'session_new'
p4384
asbag62
(g83
g64
NtRp4385
(dp4386
g67
(dp4387
g94
g95
ssg76
g4376
sg69
(lp4388
S':'
asbag62
(g83
g64
NtRp4389
(dp4390
g67
(dp4391
sg76
g4376
sg69
(lp4392
g62
(g63
g64
NtRp4393
(dp4394
g67
(dp4395
g75
I5
ssg76
g4389
sg69
(lp4396
g105
asbasbasbag62
(g78
g64
NtRp4397
(dp4398
g67
(dp4399
sg76
g3255
sg69
(lp4400
g62
(g83
g64
NtRp4401
(dp4402
g67
(dp4403
g87
g88
ssg76
g4397
sg69
(lp4404
S'status'
p4405
asbag62
(g83
g64
NtRp4406
(dp4407
g67
(dp4408
g94
g95
ssg76
g4397
sg69
(lp4409
S':'
asbag62
(g83
g64
NtRp4410
(dp4411
g67
(dp4412
sg76
g4397
sg69
(lp4413
g62
(g63
g64
NtRp4414
(dp4415
g67
(dp4416
g75
I5
ssg76
g4410
sg69
(lp4417
S'200'
p4418
asbasbasbag62
(g78
g64
NtRp4419
(dp4420
g67
(dp4421
sg76
g3255
sg69
(lp4422
g62
(g83
g64
NtRp4423
(dp4424
g67
(dp4425
g87
g88
ssg76
g4419
sg69
(lp4426
S'subtitle'
p4427
asbag62
(g83
g64
NtRp4428
(dp4429
g67
(dp4430
g94
g95
ssg76
g4419
sg69
(lp4431
S':'
asbag62
(g83
g64
NtRp4432
(dp4433
g67
(dp4434
sg76
g4419
sg69
(lp4435
g62
(g63
g64
NtRp4436
(dp4437
g67
(dp4438
g75
I5
ssg76
g4432
sg69
(lp4439
S'admin'
p4440
asbasbasbag62
(g78
g64
NtRp4441
(dp4442
g67
(dp4443
sg76
g3255
sg69
(lp4444
g62
(g83
g64
NtRp4445
(dp4446
g67
(dp4447
g87
g88
ssg76
g4441
sg69
(lp4448
S'title'
p4449
asbag62
(g83
g64
NtRp4450
(dp4451
g67
(dp4452
g94
g95
ssg76
g4441
sg69
(lp4453
S':'
asbag62
(g83
g64
NtRp4454
(dp4455
g67
(dp4456
sg76
g4441
sg69
(lp4457
g62
(g63
g64
NtRp4458
(dp4459
g67
(dp4460
g75
I5
ssg76
g4454
sg69
(lp4461
S'about init'
p4462
asbasbasbag62
(g78
g64
NtRp4463
(dp4464
g67
(dp4465
sg76
g3255
sg69
(lp4466
g62
(g83
g64
NtRp4467
(dp4468
g67
(dp4469
g87
g88
ssg76
g4463
sg69
(lp4470
S'view'
p4471
asbag62
(g83
g64
NtRp4472
(dp4473
g67
(dp4474
g94
g95
ssg76
g4463
sg69
(lp4475
S':'
asbag62
(g83
g64
NtRp4476
(dp4477
g67
(dp4478
sg76
g4463
sg69
(lp4479
g62
(g63
g64
NtRp4480
(dp4481
g67
(dp4482
g75
I5
ssg76
g4476
sg69
(lp4483
S'default/about.html'
p4484
asbasbasbasbasbsS'locals'
p4485
(dp4486
S'a'
S"'C:/Users/admin/Desktop/Sathvik/Tharuni.Org/applications/init/ABOUT'"
p4487
sS'b'
S"'r'"
p4488
sssS'traceback'
p4489
S'Traceback (most recent call last):\n  File "C:\\Users\\admin\\Desktop\\Sathvik\\Tharuni.Org\\gluon\\restricted.py", line 209, in restricted\n    exec ccode in environment\n  File "C:\\Users\\admin\\Desktop\\Sathvik\\Tharuni.Org\\applications\\admin\\controllers/default.py", line 1702, in <module>\n  File "C:\\Users\\admin\\Desktop\\Sathvik\\Tharuni.Org\\gluon\\globals.py", line 186, in <lambda>\n    self._caller = lambda f: f()\n  File "C:\\Users\\admin\\Desktop\\Sathvik\\Tharuni.Org\\applications\\admin\\controllers/default.py", line 862, in about\n    about = safe_read(apath(\'%s/ABOUT\' % app, r=request))\n  File "C:\\Users\\admin\\Desktop\\Sathvik\\Tharuni.Org\\applications\\admin\\controllers/default.py", line 64, in safe_read\n    safe_file = safe_open(a, b)\n  File "C:\\Users\\admin\\Desktop\\Sathvik\\Tharuni.Org\\applications\\admin\\controllers/default.py", line 61, in safe_open\n    return open(a,b)\nIOError: [Errno 2] No such file or directory: \'C:/Users/admin/Desktop/Sathvik/Tharuni.Org/applications/init/ABOUT\'\n'
p4490
s.