(dp1
S'output'
p2
S"<type 'exceptions.IOError'> [Errno 2] No such file or directory: 'C:\\\\Users\\\\admin\\\\Desktop\\\\Sathvik\\\\Tharuni.Org\\\\applications\\\\admin\\\\..\\\\tharuni\\\\models\\\\db.py'"
p3
sS'layer'
p4
S'C:\\Users\\admin\\Desktop\\Sathvik\\Tharuni.Org\\applications\\admin\\controllers/wizard.py'
p5
sS'code'
p6
S'# -*- coding: utf-8 -*-\n\nimport os, uuid, re, pickle, urllib, glob\nfrom gluon.admin import app_create, plugin_install\nfrom gluon.fileutils import abspath, read_file, write_file\n\ndef reset(session):\n    session.app={\n        \'name\':\'\',\n        \'params\':[(\'title\',\'My New App\'),\n                  (\'subtitle\',\'powered by web2py\'),\n                  (\'author\',\'you\'),\n                  (\'author_email\',\'you@example.com\'),\n                  (\'keywords\',\'\'),\n                  (\'description\',\'\'),\n                  (\'layout_theme\',\'Default\'),\n                  (\'database_uri\',\'sqlite://storage.sqlite\'),\n                  (\'security_key\',str(uuid.uuid4())),\n                  (\'email_server\',\'localhost\'),\n                  (\'email_sender\',\'you@example.com\'),\n                  (\'email_login\',\'\'),\n                  (\'login_method\',\'local\'),\n                  (\'login_config\',\'\'),\n                  (\'plugins\',[])],\n        \'tables\':[\'auth_user\'],\n        \'table_auth_user\':[\'username\',\'first_name\',\n                           \'last_name\',\'email\',\'password\'],\n        \'pages\':[\'index\',\'error\'],\n        \'page_index\':\'# Welcome to my new app\',\n        \'page_error\':\'# Error: the document does not exist\',\n        }\n\nif not session.app: reset(session)\n\ndef listify(x):\n    if not isinstance(x,(list,tuple)):\n        return x and [x] or []\n    return x\n\ndef clean(name):\n    return re.sub(\'\\W+\',\'_\',name.strip().lower())\n\ndef index():\n    response.view=\'wizard/step.html\'\n    reset(session)\n    apps=os.listdir(os.path.join(request.folder,\'..\'))\n    form=SQLFORM.factory(Field(\'name\',requires=[IS_NOT_EMPTY(),\n                                                IS_ALPHANUMERIC()]))\n    if form.accepts(request.vars):\n        app = form.vars.name\n        session.app[\'name\'] = app\n        if MULTI_USER_MODE and db(db.app.name==app)\\\n                (db.app.owner!=auth.user.id).count():\n            session.flash = \'App belongs already to other user\'\n        elif app in apps:\n            meta = os.path.normpath(\\\n                os.path.join(os.path.normpath(request.folder),\n                             \'..\',app,\'wizard.metadata\'))\n            if os.path.exists(meta):\n                try:\n                    metafile = open(meta,\'rb\')\n                    try:\n                        session.app = pickle.load(metafile)\n                    finally:\n                        metafile.close()\n                    session.flash = T("The app exists, was created by wizard, continue to overwrite!")\n                except:\n                    session.flash = T("The app exists, was NOT created by wizard, continue to overwrite!")\n        redirect(URL(\'step1\'))\n    return dict(step=\'Start\',form=form)\n\n\ndef step1():\n    from gluon.contrib.simplejson import loads\n    import urllib\n    if not session.themes:\n        url=LAYOUTS_APP+\'/default/layouts.json\'\n        try:\n            data = urllib.urlopen(url).read()\n            session.themes = [\'Default\'] + loads(data)[\'layouts\']\n        except:\n            session.themes = [\'Default\']\n    themes = session.themes\n    if not session.plugins:\n        url = PLUGINS_APP+\'/default/plugins.json\'\n        try:\n            data = urllib.urlopen(url).read()\n            session.plugins = loads(data)[\'plugins\']\n        except:\n            session.plugins = []\n    plugins = [x.split(\'.\')[2] for x in session.plugins]\n    response.view=\'wizard/step.html\'\n    params = dict(session.app[\'params\'])\n    form=SQLFORM.factory(\n                Field(\'title\',default=params.get(\'title\',None),\n                                      requires=IS_NOT_EMPTY()),\n                Field(\'subtitle\',default=params.get(\'subtitle\',None)),\n                Field(\'author\',default=params.get(\'author\',None)),\n                Field(\'author_email\',default=params.get(\'author_email\',None)),\n                Field(\'keywords\',default=params.get(\'keywords\',None)),\n                Field(\'description\',\'text\',\n                      default=params.get(\'description\',None)),\n                Field(\'layout_theme\',requires=IS_IN_SET(themes),\n                      default=params.get(\'layout_theme\',themes[0])),\n                Field(\'database_uri\',default=params.get(\'database_uri\',None)),\n                Field(\'security_key\',default=params.get(\'security_key\',None)),\n                Field(\'email_server\',default=params.get(\'email_server\',None)),\n                Field(\'email_sender\',default=params.get(\'email_sender\',None)),\n                Field(\'email_login\',default=params.get(\'email_login\',None)),\n                Field(\'login_method\',requires=IS_IN_SET((\'local\',\'janrain\')),\n                      default=params.get(\'login_method\',\'local\')),\n                Field(\'login_config\',default=params.get(\'login_config\',None)),\n                Field(\'plugins\',\'list:string\',requires=IS_IN_SET(plugins,multiple=True)))\n\n    if form.accepts(request.vars):\n        session.app[\'params\']=[(key,form.vars.get(key,None))\n                               for key,value in session.app[\'params\']]\n        redirect(URL(\'step2\'))\n    return dict(step=\'1: Setting Parameters\',form=form)\n\ndef step2():\n    response.view=\'wizard/step.html\'\n    form=SQLFORM.factory(Field(\'table_names\',\'list:string\',\n                               default=session.app[\'tables\']))\n    if form.accepts(request.vars):\n        table_names = [clean(t) for t in listify(form.vars.table_names) \\\n                           if t.strip()]\n        if [t for t in table_names if t.startswith(\'auth_\') and \\\n                not t==\'auth_user\']:\n            form.error.table_names = \\\n                T(\'invalid table names (auth_* tables already defined)\')\n        else:\n            session.app[\'tables\']=table_names\n            for table in session.app[\'tables\']:\n                if not \'table_\'+table in session.app:\n                    session.app[\'table_\'+table]=[\'name\']\n                if not table==\'auth_user\':\n                    name = table+\'_manage\'\n                    if not name in session.app[\'pages\']:\n                        session.app[\'pages\'].append(name)\n                        session.app[\'page_\'+name] = \\\n                            \'## Manage %s\\n\\n{{=form}}\' % (table)\n            if session.app[\'tables\']:\n                redirect(URL(\'step3\',args=0))\n            else:\n                redirect(URL(\'step4\'))\n    return dict(step=\'2: Tables\',form=form)\n\ndef step3():\n    response.view=\'wizard/step.html\'\n    n=int(request.args(0) or 0)\n    m=len(session.app[\'tables\'])\n    if n>=m: redirect(URL(\'step2\'))\n    table=session.app[\'tables\'][n]\n    form=SQLFORM.factory(Field(\'field_names\',\'list:string\',\n                               default=session.app.get(\'table_\'+table,[])))\n    if form.accepts(request.vars) and form.vars.field_names:\n        fields=listify(form.vars.field_names)\n        if table==\'auth_user\':\n            for field in [\'first_name\',\'last_name\',\'username\',\'email\',\'password\']:\n                if not field in fields:\n                    fields.append(field)\n        session.app[\'table_\'+table]=[t.strip().lower()\n                                       for t in listify(form.vars.field_names)\n                                       if t.strip()]\n        try:\n            tables=sort_tables(session.app[\'tables\'])\n        except RuntimeError:\n            response.flash=T(\'invalid circular reference\')\n        else:\n            if n<m-1:\n                redirect(URL(\'step3\',args=n+1))\n            else:\n                redirect(URL(\'step4\'))\n    return dict(step=\'3: Fields for table "%s" (%s of %s)\' \\\n                    % (table,n+1,m),table=table,form=form)\n\ndef step4():\n    response.view=\'wizard/step.html\'\n    form=SQLFORM.factory(Field(\'pages\',\'list:string\',\n                               default=session.app[\'pages\']))\n    if form.accepts(request.vars):\n        session.app[\'pages\']=[clean(t)\n                              for t in listify(form.vars.pages)\n                              if t.strip()]\n        if session.app[\'pages\']:\n            redirect(URL(\'step5\',args=0))\n        else:\n            redirect(URL(\'step6\'))\n    return dict(step=\'4: Pages\',form=form)\n\ndef step5():\n    response.view=\'wizard/step.html\'\n    n=int(request.args(0) or 0)\n    m=len(session.app[\'pages\'])\n    if n>=m: redirect(URL(\'step4\'))\n    page=session.app[\'pages\'][n]\n    markmin_url=\'http://web2py.com/examples/static/markmin.html\'\n    form=SQLFORM.factory(Field(\'content\',\'text\',\n                               default=session.app.get(\'page_\'+page,[]),\n                               comment=A(\'use markmin\',\n                                         _href=markmin_url,_target=\'_blank\')),\n                         formstyle=\'table2cols\')\n    if form.accepts(request.vars):\n        session.app[\'page_\'+page]=form.vars.content\n        if n<m-1:\n            redirect(URL(\'step5\',args=n+1))\n        else:\n            redirect(URL(\'step6\'))\n    return dict(step=\'5: View for page "%s" (%s of %s)\' % (page,n+1,m),form=form)\n\ndef step6():\n    response.view=\'wizard/step.html\'\n    params = dict(session.app[\'params\'])\n    app = session.app[\'name\']\n    form=SQLFORM.factory(\n        Field(\'generate_model\',\'boolean\',default=True),\n        Field(\'generate_controller\',\'boolean\',default=True),\n        Field(\'generate_views\',\'boolean\',default=True),\n        Field(\'generate_menu\',\'boolean\',default=True),\n        Field(\'apply_layout\',\'boolean\',default=True),\n        Field(\'erase_database\',\'boolean\',default=True),\n        Field(\'populate_database\',\'boolean\',default=True))\n    if form.accepts(request.vars):\n        if DEMO_MODE:\n            session.flash = T(\'Application cannot be generated in demo mode\')\n            redirect(URL(\'index\'))\n        create(form.vars)\n        session.flash = \'Application %s created\' % app\n        redirect(URL(\'generated\'))\n    return dict(step=\'6: Generate app "%s"\' % app,form=form)\n\ndef generated():\n    return dict(app=session.app[\'name\'])\n\ndef sort_tables(tables):\n    import re\n    regex = re.compile(\'(%s)\' % \'|\'.join(tables))\n    is_auth_user = \'auth_user\' in tables\n    d={}\n    for table in tables:\n        d[table]=[]\n        for field in session.app[\'table_%s\' % table]:\n            d[table]+=regex.findall(field)\n    tables=[]\n    if is_auth_user:\n        tables.append(\'auth_user\')\n    def append(table,trail=[]):\n        if table in trail:\n            raise RuntimeError\n        for t in d[table]:\n            # if not t==table: (problem, no dropdown for self references)\n            append(t,trail=trail+[table])\n        if not table in tables:\n            tables.append(table)\n    for table in d: append(table)\n    return tables\n\ndef make_table(table,fields):\n    rawtable=table\n    if table!=\'auth_user\': table=\'t_\'+table\n    s=\'\'\n    s+=\'\\n\'+\'#\'*40+\'\\n\'\n    s+="db.define_table(\'%s\',\\n" % table\n    first_field=\'id\'\n    for field in fields:\n        items=[x.lower() for x in field.split()]\n        has = {}\n        keys = []\n        for key in [\'notnull\',\'unique\',\'integer\',\'double\',\'boolean\',\'float\',\n                    \'boolean\', \'date\',\'time\',\'datetime\',\'text\',\'wiki\',\n                    \'html\',\'file\',\'upload\',\'image\',\'true\',\n                    \'hidden\',\'readonly\',\'writeonly\',\'multiple\',\n                    \'notempty\',\'required\']:\n            if key in items[1:]:\n                keys.append(key)\n                has[key] = True\n        tables = session.app[\'tables\']\n        refs = [t for t in tables if t in items]\n        items = items[:1] + [x for x in items[1:] \\\n                                 if not x in keys and not x in tables]\n        barename = name = \'_\'.join(items)\n        if table[:2]==\'t_\': name=\'f_\'+name\n        if first_field==\'id\': first_field=name\n\n        ### determine field type\n        ftype=\'string\'\n        deftypes={\'integer\':\'integer\',\'double\':\'double\',\'boolean\':\'boolean\',\n                  \'float\':\'double\',\'bool\':\'boolean\',\n                  \'date\':\'date\',\'time\':\'time\',\'datetime\':\'datetime\',\n                  \'text\':\'text\',\'file\':\'upload\',\'image\':\'upload\',\n                  \'upload\':\'upload\',\'wiki\':\'text\', \'html\':\'text\'}\n        for key,t in deftypes.items():\n            if key in has:\n                ftype = t\n        if refs:\n            key = refs[0]\n            if not key==\'auth_user\': key=\'t_\'+key\n            if \'multiple\' in has:\n                ftype=\'list:reference %s\' % key\n            else:\n                ftype=\'reference %s\' % key\n        if ftype==\'string\' and \'multiple\' in has:\n            ftype=\'list:string\'\n        elif ftype==\'integer\' and \'multiple\' in has:\n            ftype=\'list:integer\'\n        elif name==\'password\':\n            ftype=\'password\'\n        s+="    Field(\'%s\', type=\'%s\'" % (name, ftype)\n\n        ### determine field attributes\n        if \'notnull\' in has or \'notempty\' in has or \'required\' in has:\n            s+=\', notnull=True\'\n        if \'unique\' in has:\n            s+=\', unique=True\'\n        if ftype==\'boolean\' and \'true\' in has:\n            s+=",\\n          default=True"\n\n        ### determine field representation\n        elif \'wiki\' in has:\n            s+=",\\n          represent=lambda x, row: MARKMIN(x)"\n            s+=",\\n          comment=\'WIKI (markmin)\'"\n        elif \'html\' in has:\n            s+=",\\n          represent=lambda x, row: XML(x,sanitize=True)"\n            s+=",\\n          comment=\'HTML (sanitized)\'"\n        ### determine field access\n        if name==\'password\' or \'writeonly\' in has:\n            s+=",\\n          readable=False"\n        elif \'hidden\' in has:\n            s+=",\\n          writable=False, readable=False"\n        elif \'readonly\' in has:\n            s+=",\\n          writable=False"\n\n        ### make up a label\n        s+=",\\n          label=T(\'%s\')),\\n" % \\\n            \' \'.join(x.capitalize() for x in barename.split(\'_\'))\n    if table==\'auth_user\':\n        s+="    Field(\'created_on\',\'datetime\',default=request.now,\\n"\n        s+="          label=T(\'Created On\'),writable=False,readable=False),\\n"\n        s+="    Field(\'modified_on\',\'datetime\',default=request.now,\\n"\n        s+="          label=T(\'Modified On\'),writable=False,readable=False,\\n"\n        s+="          update=request.now),\\n"\n        s+="    Field(\'registration_key\',default=\'\',\\n"\n        s+="          writable=False,readable=False),\\n"\n        s+="    Field(\'reset_password_key\',default=\'\',\\n"\n        s+="          writable=False,readable=False),\\n"\n        s+="    Field(\'registration_id\',default=\'\',\\n"\n        s+="          writable=False,readable=False),\\n"\n    elif \'auth_user\' in session.app[\'tables\']:\n        s+="    auth.signature,\\n"\n    s+="    format=\'%("+first_field+")s\',\\n"\n    s+="    migrate=settings.migrate)\\n\\n"\n    if table==\'auth_user\':\n        s+="""\ndb.auth_user.first_name.requires = IS_NOT_EMPTY(error_message=auth.messages.is_empty)\ndb.auth_user.last_name.requires = IS_NOT_EMPTY(error_message=auth.messages.is_empty)\ndb.auth_user.password.requires = CRYPT(key=auth.settings.hmac_key, min_length=4)\ndb.auth_user.username.requires = IS_NOT_IN_DB(db, db.auth_user.username)\ndb.auth_user.email.requires = (IS_EMAIL(error_message=auth.messages.invalid_email),\n                               IS_NOT_IN_DB(db, db.auth_user.email))\n"""\n    else:\n        s+="db.define_table(\'%s_archive\',db.%s,Field(\'current_record\',\'reference %s\',readable=False,writable=False))\\n" % (table,table,table)\n    return s\n\ndef fix_db(filename):\n    params = dict(session.app[\'params\'])\n    content = read_file(filename,\'rb\')\n    if \'auth_user\' in session.app[\'tables\']:\n        auth_user = make_table(\'auth_user\',session.app[\'table_auth_user\'])\n        content = content.replace(\'sqlite://storage.sqlite\',\n                                params[\'database_uri\'])\n        content = content.replace(\'auth.define_tables()\',\\\n            auth_user+\'auth.define_tables(migrate = settings.migrate)\')\n    content += """\nmail.settings.server = settings.email_server\nmail.settings.sender = settings.email_sender\nmail.settings.login = settings.email_login\n"""\n    if params[\'login_method\']==\'janrain\':\n        content+="""\nfrom gluon.contrib.login_methods.rpx_account import RPXAccount\nauth.settings.actions_disabled=[\'register\',\'change_password\',\'request_reset_password\']\nauth.settings.login_form = RPXAccount(request,\n    api_key = settings.login_config.split(\':\')[-1],\n    domain = settings.login_config.split(\':\')[0],\n    url = "http://%s/%s/default/user/login" % (request.env.http_host,request.application))\n"""\n    write_file(filename, content, \'wb\')\n\ndef make_menu(pages):\n    s=\'\'\n    s+=\'response.title = settings.title\\n\'\n    s+=\'response.subtitle = settings.subtitle\\n\'\n    s+="response.meta.author = \'%(author)s <%(author_email)s>\' % settings\\n"\n    s+=\'response.meta.keywords = settings.keywords\\n\'\n    s+=\'response.meta.description = settings.description\\n\'\n    s+=\'response.menu = [\\n\'\n    for page in pages:\n        if not page.startswith(\'error\'):\n            if page.endswith(\'_manage\'):\n                page_name = page[:-7]\n            else:\n                page_name = page\n            page_name = \' \'.join(x.capitalize() for x in page_name.split(\'_\'))\n            s+="(T(\'%s\'),URL(\'default\',\'%s\')==URL(),URL(\'default\',\'%s\'),[]),\\n" \\\n                % (page_name,page,page)\n    s+=\']\'\n    return s\n\ndef make_page(page,contents):\n    if \'auth_user\' in session.app[\'tables\'] and not page in (\'index\',\'error\'):\n        s="@auth.requires_login()\\ndef %s():\\n" % page\n    else:\n        s="def %s():\\n" % page\n    items = page.rsplit(\'_\',1)\n    if items[0] in session.app[\'tables\'] and len(items)==2 and items[1]==\'manage\':\n        s+="    form = SQLFORM.smartgrid(db.t_%s,onupdate=auth.archive)\\n" % items[0]\n        s+="    return locals()\\n\\n"\n    else:\n        s+="    return dict()\\n\\n"\n    return s\n\ndef make_view(page,contents):\n    s="{{extend \'layout.html\'}}\\n\\n"\n    s+=str(MARKMIN(contents))\n    return s\n\ndef populate(tables):\n    s = \'from gluon.contrib.populate import populate\\n\'\n    s+= \'if db(db.auth_user).isempty():\\n\'\n    for table in sort_tables(tables):\n        t=table==\'auth_user\' and \'auth_user\' or \'t_\'+table\n        s+="     populate(db.%s,10)\\n" % t\n    return s\n\ndef create(options):\n    if DEMO_MODE:\n        session.flash = T(\'disabled in demo mode\')\n        redirect(URL(\'step6\'))\n    params = dict(session.app[\'params\'])\n    app = session.app[\'name\']\n    if app_create(app,request,force=True,key=params[\'security_key\']):\n        if MULTI_USER_MODE:\n            db.app.insert(name=app,owner=auth.user.id)\n    else:\n        session.flash = \'Failure to create application\'\n        redirect(URL(\'step6\'))\n\n    ### save metadata in newapp/wizard.metadata\n    try:\n        meta = os.path.join(request.folder,\'..\',app,\'wizard.metadata\')\n        file=open(meta,\'wb\')\n        pickle.dump(session.app,file)\n        file.close()\n    except IOError:\n        session.flash = \'Failure to write wizard metadata\'\n        redirect(URL(\'step6\'))\n\n    ### apply theme\n    if options.apply_layout and params[\'layout_theme\']!=\'Default\':\n        try:\n            fn = \'web2py.plugin.layout_%s.w2p\' % params[\'layout_theme\']\n            theme = urllib.urlopen(LAYOUTS_APP+\'/static/plugin_layouts/plugins/\'+fn)\n            plugin_install(app, theme, request, fn)\n        except:\n            session.flash = T("unable to download layout")\n\n    ### apply plugins\n    for plugin in params[\'plugins\']:\n        try:\n            plugin_name = \'web2py.plugin.\'+plugin+\'.w2p\'\n            stream = urllib.urlopen(PLUGINS_APP+\'/static/\'+plugin_name)\n            plugin_install(app, stream, request, plugin_name)\n        except Exception, e:\n            session.flash = T("unable to download plugin: %s" % plugin)\n\n    ### write configuration file into newapp/models/0.py\n    model = os.path.join(request.folder,\'..\',app,\'models\',\'0.py\')\n    file = open(model, \'wb\')\n    try:\n        file.write("from gluon.storage import Storage\\n")\n        file.write("settings = Storage()\\n\\n")\n        file.write("settings.migrate = True\\n")\n        for key,value in session.app[\'params\']:\n            file.write("settings.%s = %s\\n" % (key,repr(value)))\n    finally:\n        file.close()\n\n    ### write configuration file into newapp/models/menu.py\n    if options.generate_menu:\n        model = os.path.join(request.folder,\'..\',app,\'models\',\'menu.py\')\n        file = open(model,\'wb\')\n        try:\n            file.write(make_menu(session.app[\'pages\']))\n        finally:\n            file.close()\n\n    ### customize the auth_user table\n    model = os.path.join(request.folder,\'..\',app,\'models\',\'db.py\')\n    fix_db(model)\n\n    ### create newapp/models/db_wizard.py\n    if options.generate_model:\n        model = os.path.join(request.folder,\'..\',app,\'models\',\'db_wizard.py\')\n        file = open(model,\'wb\')\n        try:\n            file.write(\'### we prepend t_ to tablenames and f_ to fieldnames for disambiguity\\n\\n\')\n            tables = sort_tables(session.app[\'tables\'])\n            for table in tables:\n                if table==\'auth_user\': continue\n                file.write(make_table(table,session.app[\'table_\'+table]))\n        finally:\n            file.close()\n\n    model = os.path.join(request.folder,\'..\',app,\n                         \'models\',\'db_wizard_populate.py\')\n    if os.path.exists(model): os.unlink(model)\n    if options.populate_database and session.app[\'tables\']:\n        file = open(model,\'wb\')\n        try:\n            file.write(populate(session.app[\'tables\']))\n        finally:\n            file.close()\n\n    ### create newapp/controllers/default.py\n    if options.generate_controller:\n        controller = os.path.join(request.folder,\'..\',app,\'controllers\',\'default.py\')\n        file = open(controller,\'wb\')\n        try:\n            file.write("""# -*- coding: utf-8 -*-\n### required - do no delete\ndef user(): return dict(form=auth())\ndef download(): return response.download(request,db)\ndef call(): return service()\n### end requires\n""")\n            for page in session.app[\'pages\']:\n                file.write(make_page(page,session.app.get(\'page_\'+page,\'\')))\n        finally:\n            file.close()\n\n    ### create newapp/views/default/*.html\n    if options.generate_views:\n        for page in session.app[\'pages\']:\n            view = os.path.join(request.folder,\'..\',app,\'views\',\'default\',page+\'.html\')\n            file = open(view,\'wb\')\n            try:\n                file.write(make_view(page,session.app.get(\'page_\'+page,\'\')))\n            finally:\n                file.close()\n\n    if options.erase_database:\n        path = os.path.join(request.folder,\'..\',app,\'databases\',\'*\')\n        for file in glob.glob(path):\n            os.unlink(file)\n\n\n\nresponse._vars=response._caller(step6)\n'
p7
sS'snapshot'
p8
(dp9
S'exception'
p10
(dp11
S'__getslice__'
p12
S"<method-wrapper '__getslice__' of exceptions.IOError object>"
p13
sS'__str__'
p14
S"<method-wrapper '__str__' of exceptions.IOError object>"
p15
sS'__reduce__'
p16
S'<built-in method __reduce__ of exceptions.IOError object>'
p17
sS'__dict__'
p18
S'{}'
p19
sS'__sizeof__'
p20
S'<built-in method __sizeof__ of exceptions.IOError object>'
p21
sS'__init__'
p22
S"<method-wrapper '__init__' of exceptions.IOError object>"
p23
sS'__setattr__'
p24
S"<method-wrapper '__setattr__' of exceptions.IOError object>"
p25
sS'__reduce_ex__'
p26
S'<built-in method __reduce_ex__ of exceptions.IOError object>'
p27
sS'__new__'
p28
S'<built-in method __new__ of type object>'
p29
sS'errno'
p30
S'2'
sS'__format__'
p31
S'<built-in method __format__ of exceptions.IOError object>'
p32
sS'__class__'
p33
S"<type 'exceptions.IOError'>"
p34
sS'filename'
p35
S"r'C:\\Users\\admin\\Desktop\\Sathvik\\Tharuni.Org\\applications\\admin\\..\\tharuni\\models\\db.py'"
p36
sS'__doc__'
p37
S"'I/O operation failed.'"
p38
sS'__getitem__'
p39
S"<method-wrapper '__getitem__' of exceptions.IOError object>"
p40
sS'__setstate__'
p41
S'<built-in method __setstate__ of exceptions.IOError object>'
p42
sS'__getattribute__'
p43
S"<method-wrapper '__getattribute__' of exceptions.IOError object>"
p44
sS'args'
p45
S"(2, 'No such file or directory')"
p46
sS'__subclasshook__'
p47
S'<built-in method __subclasshook__ of type object>'
p48
sS'__unicode__'
p49
S'<built-in method __unicode__ of exceptions.IOError object>'
p50
sS'strerror'
p51
S"'No such file or directory'"
p52
sS'__delattr__'
p53
S"<method-wrapper '__delattr__' of exceptions.IOError object>"
p54
sS'__repr__'
p55
S"<method-wrapper '__repr__' of exceptions.IOError object>"
p56
sS'__hash__'
p57
S"<method-wrapper '__hash__' of exceptions.IOError object>"
p58
ssS'evalue'
p59
S"[Errno 2] No such file or directory: 'C:\\\\Users\\\\admin\\\\Desktop\\\\Sathvik\\\\Tharuni.Org\\\\applications\\\\admin\\\\..\\\\tharuni\\\\models\\\\db.py'"
p60
sS'request'
p61
ccopy_reg
_reconstructor
p62
(cgluon.html
BEAUTIFY
p63
c__builtin__
object
p64
NtRp65
(dp66
S'attributes'
p67
(dp68
sS'components'
p69
(lp70
g62
(cgluon.html
TABLE
p71
g64
NtRp72
(dp73
g67
(dp74
S'level'
p75
I5
ssS'parent'
p76
Nsg69
(lp77
g62
(cgluon.html
TR
p78
g64
NtRp79
(dp80
g67
(dp81
sg76
g72
sg69
(lp82
g62
(cgluon.html
TD
p83
g64
NtRp84
(dp85
g67
(dp86
S'_style'
p87
S'font-weight:bold;vertical-align:top'
p88
ssg76
g79
sg69
(lp89
S'ajax'
p90
asbag62
(g83
g64
NtRp91
(dp92
g67
(dp93
S'_valign'
p94
S'top'
p95
ssg76
g79
sg69
(lp96
S':'
asbag62
(g83
g64
NtRp97
(dp98
g67
(dp99
sg76
g79
sg69
(lp100
g62
(g63
g64
NtRp101
(dp102
g67
(dp103
g75
I5
ssg76
g97
sg69
(lp104
S'False'
p105
asbasbasbag62
(g78
g64
NtRp106
(dp107
g67
(dp108
sg76
g72
sg69
(lp109
g62
(g83
g64
NtRp110
(dp111
g67
(dp112
g87
g88
ssg76
g106
sg69
(lp113
S'application'
p114
asbag62
(g83
g64
NtRp115
(dp116
g67
(dp117
g94
g95
ssg76
g106
sg69
(lp118
S':'
asbag62
(g83
g64
NtRp119
(dp120
g67
(dp121
sg76
g106
sg69
(lp122
g62
(g63
g64
NtRp123
(dp124
g67
(dp125
g75
I5
ssg76
g119
sg69
(lp126
S'admin'
p127
asbasbasbag62
(g78
g64
NtRp128
(dp129
g67
(dp130
sg76
g72
sg69
(lp131
g62
(g83
g64
NtRp132
(dp133
g67
(dp134
g87
g88
ssg76
g128
sg69
(lp135
g45
asbag62
(g83
g64
NtRp136
(dp137
g67
(dp138
g94
g95
ssg76
g128
sg69
(lp139
S':'
asbag62
(g83
g64
NtRp140
(dp141
g67
(dp142
sg76
g128
sg69
(lp143
g62
(g63
g64
NtRp144
(dp145
g67
(dp146
g75
I5
ssg76
g140
sg69
(lp147
g62
(g71
g64
NtRp148
(dp149
g67
(dp150
g75
I4
ssg76
Nsg69
(lp151
sbasbasbasbag62
(g78
g64
NtRp152
(dp153
g67
(dp154
sg76
g72
sg69
(lp155
g62
(g83
g64
NtRp156
(dp157
g67
(dp158
g87
g88
ssg76
g152
sg69
(lp159
S'body'
p160
asbag62
(g83
g64
NtRp161
(dp162
g67
(dp163
g94
g95
ssg76
g152
sg69
(lp164
S':'
asbag62
(g83
g64
NtRp165
(dp166
g67
(dp167
sg76
g152
sg69
(lp168
g62
(g63
g64
NtRp169
(dp170
g67
(dp171
g75
I5
ssg76
g165
sg69
(lp172
S"<open file '<fdopen>', mode 'w+b' at 0x0000000008724780>"
p173
asbasbasbag62
(g78
g64
NtRp174
(dp175
g67
(dp176
sg76
g72
sg69
(lp177
g62
(g83
g64
NtRp178
(dp179
g67
(dp180
g87
g88
ssg76
g174
sg69
(lp181
S'cid'
p182
asbag62
(g83
g64
NtRp183
(dp184
g67
(dp185
g94
g95
ssg76
g174
sg69
(lp186
S':'
asbag62
(g83
g64
NtRp187
(dp188
g67
(dp189
sg76
g174
sg69
(lp190
g62
(g63
g64
NtRp191
(dp192
g67
(dp193
g75
I5
ssg76
g187
sg69
(lp194
S'None'
p195
asbasbasbag62
(g78
g64
NtRp196
(dp197
g67
(dp198
sg76
g72
sg69
(lp199
g62
(g83
g64
NtRp200
(dp201
g67
(dp202
g87
g88
ssg76
g196
sg69
(lp203
S'client'
p204
asbag62
(g83
g64
NtRp205
(dp206
g67
(dp207
g94
g95
ssg76
g196
sg69
(lp208
S':'
asbag62
(g83
g64
NtRp209
(dp210
g67
(dp211
sg76
g196
sg69
(lp212
g62
(g63
g64
NtRp213
(dp214
g67
(dp215
g75
I5
ssg76
g209
sg69
(lp216
S'127.0.0.1'
p217
asbasbasbag62
(g78
g64
NtRp218
(dp219
g67
(dp220
sg76
g72
sg69
(lp221
g62
(g83
g64
NtRp222
(dp223
g67
(dp224
g87
g88
ssg76
g218
sg69
(lp225
S'controller'
p226
asbag62
(g83
g64
NtRp227
(dp228
g67
(dp229
g94
g95
ssg76
g218
sg69
(lp230
S':'
asbag62
(g83
g64
NtRp231
(dp232
g67
(dp233
sg76
g218
sg69
(lp234
g62
(g63
g64
NtRp235
(dp236
g67
(dp237
g75
I5
ssg76
g231
sg69
(lp238
S'wizard'
p239
asbasbasbag62
(g78
g64
NtRp240
(dp241
g67
(dp242
sg76
g72
sg69
(lp243
g62
(g83
g64
NtRp244
(dp245
g67
(dp246
g87
g88
ssg76
g240
sg69
(lp247
S'cookies'
p248
asbag62
(g83
g64
NtRp249
(dp250
g67
(dp251
g94
g95
ssg76
g240
sg69
(lp252
S':'
asbag62
(g83
g64
NtRp253
(dp254
g67
(dp255
sg76
g240
sg69
(lp256
g62
(g63
g64
NtRp257
(dp258
g67
(dp259
g75
I5
ssg76
g253
sg69
(lp260
g62
(g71
g64
NtRp261
(dp262
g67
(dp263
g75
I4
ssg76
Nsg69
(lp264
g62
(g78
g64
NtRp265
(dp266
g67
(dp267
sg76
g261
sg69
(lp268
g62
(g83
g64
NtRp269
(dp270
g67
(dp271
g87
g88
ssg76
g265
sg69
(lp272
S'session_id_admin'
p273
asbag62
(g83
g64
NtRp274
(dp275
g67
(dp276
g94
g95
ssg76
g265
sg69
(lp277
S':'
asbag62
(g83
g64
NtRp278
(dp279
g67
(dp280
sg76
g265
sg69
(lp281
g62
(g63
g64
NtRp282
(dp283
g67
(dp284
g75
I4
ssg76
g278
sg69
(lp285
S'127.0.0.1-b09474c4-74c6-4bff-864d-e3d6c3b6e87e'
p286
ag62
(g71
g64
NtRp287
(dp288
g67
(dp289
g75
I3
ssg76
Nsg69
(lp290
g62
(g78
g64
NtRp291
(dp292
g67
(dp293
sg76
g287
sg69
(lp294
g62
(g83
g64
NtRp295
(dp296
g67
(dp297
g87
g88
ssg76
g291
sg69
(lp298
S'comment'
p299
asbag62
(g83
g64
NtRp300
(dp301
g67
(dp302
g94
g95
ssg76
g291
sg69
(lp303
S':'
asbag62
(g83
g64
NtRp304
(dp305
g67
(dp306
sg76
g291
sg69
(lp307
g62
(g63
g64
NtRp308
(dp309
g67
(dp310
g75
I3
ssg76
g304
sg69
(lp311
S''
asbasbasbag62
(g78
g64
NtRp312
(dp313
g67
(dp314
sg76
g287
sg69
(lp315
g62
(g83
g64
NtRp316
(dp317
g67
(dp318
g87
g88
ssg76
g312
sg69
(lp319
S'domain'
p320
asbag62
(g83
g64
NtRp321
(dp322
g67
(dp323
g94
g95
ssg76
g312
sg69
(lp324
S':'
asbag62
(g83
g64
NtRp325
(dp326
g67
(dp327
sg76
g312
sg69
(lp328
g62
(g63
g64
NtRp329
(dp330
g67
(dp331
g75
I3
ssg76
g325
sg69
(lp332
S''
asbasbasbag62
(g78
g64
NtRp333
(dp334
g67
(dp335
sg76
g287
sg69
(lp336
g62
(g83
g64
NtRp337
(dp338
g67
(dp339
g87
g88
ssg76
g333
sg69
(lp340
S'expires'
p341
asbag62
(g83
g64
NtRp342
(dp343
g67
(dp344
g94
g95
ssg76
g333
sg69
(lp345
S':'
asbag62
(g83
g64
NtRp346
(dp347
g67
(dp348
sg76
g333
sg69
(lp349
g62
(g63
g64
NtRp350
(dp351
g67
(dp352
g75
I3
ssg76
g346
sg69
(lp353
S''
asbasbasbag62
(g78
g64
NtRp354
(dp355
g67
(dp356
sg76
g287
sg69
(lp357
g62
(g83
g64
NtRp358
(dp359
g67
(dp360
g87
g88
ssg76
g354
sg69
(lp361
S'httponly'
p362
asbag62
(g83
g64
NtRp363
(dp364
g67
(dp365
g94
g95
ssg76
g354
sg69
(lp366
S':'
asbag62
(g83
g64
NtRp367
(dp368
g67
(dp369
sg76
g354
sg69
(lp370
g62
(g63
g64
NtRp371
(dp372
g67
(dp373
g75
I3
ssg76
g367
sg69
(lp374
S''
asbasbasbag62
(g78
g64
NtRp375
(dp376
g67
(dp377
sg76
g287
sg69
(lp378
g62
(g83
g64
NtRp379
(dp380
g67
(dp381
g87
g88
ssg76
g375
sg69
(lp382
S'max-age'
p383
asbag62
(g83
g64
NtRp384
(dp385
g67
(dp386
g94
g95
ssg76
g375
sg69
(lp387
S':'
asbag62
(g83
g64
NtRp388
(dp389
g67
(dp390
sg76
g375
sg69
(lp391
g62
(g63
g64
NtRp392
(dp393
g67
(dp394
g75
I3
ssg76
g388
sg69
(lp395
S''
asbasbasbag62
(g78
g64
NtRp396
(dp397
g67
(dp398
sg76
g287
sg69
(lp399
g62
(g83
g64
NtRp400
(dp401
g67
(dp402
g87
g88
ssg76
g396
sg69
(lp403
S'path'
p404
asbag62
(g83
g64
NtRp405
(dp406
g67
(dp407
g94
g95
ssg76
g396
sg69
(lp408
S':'
asbag62
(g83
g64
NtRp409
(dp410
g67
(dp411
sg76
g396
sg69
(lp412
g62
(g63
g64
NtRp413
(dp414
g67
(dp415
g75
I3
ssg76
g409
sg69
(lp416
S''
asbasbasbag62
(g78
g64
NtRp417
(dp418
g67
(dp419
sg76
g287
sg69
(lp420
g62
(g83
g64
NtRp421
(dp422
g67
(dp423
g87
g88
ssg76
g417
sg69
(lp424
S'secure'
p425
asbag62
(g83
g64
NtRp426
(dp427
g67
(dp428
g94
g95
ssg76
g417
sg69
(lp429
S':'
asbag62
(g83
g64
NtRp430
(dp431
g67
(dp432
sg76
g417
sg69
(lp433
g62
(g63
g64
NtRp434
(dp435
g67
(dp436
g75
I3
ssg76
g430
sg69
(lp437
S''
asbasbasbag62
(g78
g64
NtRp438
(dp439
g67
(dp440
sg76
g287
sg69
(lp441
g62
(g83
g64
NtRp442
(dp443
g67
(dp444
g87
g88
ssg76
g438
sg69
(lp445
S'version'
p446
asbag62
(g83
g64
NtRp447
(dp448
g67
(dp449
g94
g95
ssg76
g438
sg69
(lp450
S':'
asbag62
(g83
g64
NtRp451
(dp452
g67
(dp453
sg76
g438
sg69
(lp454
g62
(g63
g64
NtRp455
(dp456
g67
(dp457
g75
I3
ssg76
g451
sg69
(lp458
S''
asbasbasbasbasbasbasbag62
(g78
g64
NtRp459
(dp460
g67
(dp461
sg76
g261
sg69
(lp462
g62
(g83
g64
NtRp463
(dp464
g67
(dp465
g87
g88
ssg76
g459
sg69
(lp466
S'session_id_init'
p467
asbag62
(g83
g64
NtRp468
(dp469
g67
(dp470
g94
g95
ssg76
g459
sg69
(lp471
S':'
asbag62
(g83
g64
NtRp472
(dp473
g67
(dp474
sg76
g459
sg69
(lp475
g62
(g63
g64
NtRp476
(dp477
g67
(dp478
g75
I4
ssg76
g472
sg69
(lp479
S'127.0.0.1-6078939d-922f-428b-b405-987576949430'
p480
ag62
(g71
g64
NtRp481
(dp482
g67
(dp483
g75
I3
ssg76
Nsg69
(lp484
g62
(g78
g64
NtRp485
(dp486
g67
(dp487
sg76
g481
sg69
(lp488
g62
(g83
g64
NtRp489
(dp490
g67
(dp491
g87
g88
ssg76
g485
sg69
(lp492
g299
asbag62
(g83
g64
NtRp493
(dp494
g67
(dp495
g94
g95
ssg76
g485
sg69
(lp496
S':'
asbag62
(g83
g64
NtRp497
(dp498
g67
(dp499
sg76
g485
sg69
(lp500
g62
(g63
g64
NtRp501
(dp502
g67
(dp503
g75
I3
ssg76
g497
sg69
(lp504
S''
asbasbasbag62
(g78
g64
NtRp505
(dp506
g67
(dp507
sg76
g481
sg69
(lp508
g62
(g83
g64
NtRp509
(dp510
g67
(dp511
g87
g88
ssg76
g505
sg69
(lp512
g320
asbag62
(g83
g64
NtRp513
(dp514
g67
(dp515
g94
g95
ssg76
g505
sg69
(lp516
S':'
asbag62
(g83
g64
NtRp517
(dp518
g67
(dp519
sg76
g505
sg69
(lp520
g62
(g63
g64
NtRp521
(dp522
g67
(dp523
g75
I3
ssg76
g517
sg69
(lp524
S''
asbasbasbag62
(g78
g64
NtRp525
(dp526
g67
(dp527
sg76
g481
sg69
(lp528
g62
(g83
g64
NtRp529
(dp530
g67
(dp531
g87
g88
ssg76
g525
sg69
(lp532
g341
asbag62
(g83
g64
NtRp533
(dp534
g67
(dp535
g94
g95
ssg76
g525
sg69
(lp536
S':'
asbag62
(g83
g64
NtRp537
(dp538
g67
(dp539
sg76
g525
sg69
(lp540
g62
(g63
g64
NtRp541
(dp542
g67
(dp543
g75
I3
ssg76
g537
sg69
(lp544
S''
asbasbasbag62
(g78
g64
NtRp545
(dp546
g67
(dp547
sg76
g481
sg69
(lp548
g62
(g83
g64
NtRp549
(dp550
g67
(dp551
g87
g88
ssg76
g545
sg69
(lp552
g362
asbag62
(g83
g64
NtRp553
(dp554
g67
(dp555
g94
g95
ssg76
g545
sg69
(lp556
S':'
asbag62
(g83
g64
NtRp557
(dp558
g67
(dp559
sg76
g545
sg69
(lp560
g62
(g63
g64
NtRp561
(dp562
g67
(dp563
g75
I3
ssg76
g557
sg69
(lp564
S''
asbasbasbag62
(g78
g64
NtRp565
(dp566
g67
(dp567
sg76
g481
sg69
(lp568
g62
(g83
g64
NtRp569
(dp570
g67
(dp571
g87
g88
ssg76
g565
sg69
(lp572
g383
asbag62
(g83
g64
NtRp573
(dp574
g67
(dp575
g94
g95
ssg76
g565
sg69
(lp576
S':'
asbag62
(g83
g64
NtRp577
(dp578
g67
(dp579
sg76
g565
sg69
(lp580
g62
(g63
g64
NtRp581
(dp582
g67
(dp583
g75
I3
ssg76
g577
sg69
(lp584
S''
asbasbasbag62
(g78
g64
NtRp585
(dp586
g67
(dp587
sg76
g481
sg69
(lp588
g62
(g83
g64
NtRp589
(dp590
g67
(dp591
g87
g88
ssg76
g585
sg69
(lp592
g404
asbag62
(g83
g64
NtRp593
(dp594
g67
(dp595
g94
g95
ssg76
g585
sg69
(lp596
S':'
asbag62
(g83
g64
NtRp597
(dp598
g67
(dp599
sg76
g585
sg69
(lp600
g62
(g63
g64
NtRp601
(dp602
g67
(dp603
g75
I3
ssg76
g597
sg69
(lp604
S''
asbasbasbag62
(g78
g64
NtRp605
(dp606
g67
(dp607
sg76
g481
sg69
(lp608
g62
(g83
g64
NtRp609
(dp610
g67
(dp611
g87
g88
ssg76
g605
sg69
(lp612
g425
asbag62
(g83
g64
NtRp613
(dp614
g67
(dp615
g94
g95
ssg76
g605
sg69
(lp616
S':'
asbag62
(g83
g64
NtRp617
(dp618
g67
(dp619
sg76
g605
sg69
(lp620
g62
(g63
g64
NtRp621
(dp622
g67
(dp623
g75
I3
ssg76
g617
sg69
(lp624
S''
asbasbasbag62
(g78
g64
NtRp625
(dp626
g67
(dp627
sg76
g481
sg69
(lp628
g62
(g83
g64
NtRp629
(dp630
g67
(dp631
g87
g88
ssg76
g625
sg69
(lp632
g446
asbag62
(g83
g64
NtRp633
(dp634
g67
(dp635
g94
g95
ssg76
g625
sg69
(lp636
S':'
asbag62
(g83
g64
NtRp637
(dp638
g67
(dp639
sg76
g625
sg69
(lp640
g62
(g63
g64
NtRp641
(dp642
g67
(dp643
g75
I3
ssg76
g637
sg69
(lp644
S''
asbasbasbasbasbasbasbasbasbasbasbag62
(g78
g64
NtRp645
(dp646
g67
(dp647
sg76
g72
sg69
(lp648
g62
(g83
g64
NtRp649
(dp650
g67
(dp651
g87
g88
ssg76
g645
sg69
(lp652
S'env'
p653
asbag62
(g83
g64
NtRp654
(dp655
g67
(dp656
g94
g95
ssg76
g645
sg69
(lp657
S':'
asbag62
(g83
g64
NtRp658
(dp659
g67
(dp660
sg76
g645
sg69
(lp661
g62
(g63
g64
NtRp662
(dp663
g67
(dp664
g75
I5
ssg76
g658
sg69
(lp665
g62
(g71
g64
NtRp666
(dp667
g67
(dp668
g75
I4
ssg76
Nsg69
(lp669
g62
(g78
g64
NtRp670
(dp671
g67
(dp672
sg76
g666
sg69
(lp673
g62
(g83
g64
NtRp674
(dp675
g67
(dp676
g87
g88
ssg76
g670
sg69
(lp677
S'app_folders'
p678
asbag62
(g83
g64
NtRp679
(dp680
g67
(dp681
g94
g95
ssg76
g670
sg69
(lp682
S':'
asbag62
(g83
g64
NtRp683
(dp684
g67
(dp685
sg76
g670
sg69
(lp686
g62
(g63
g64
NtRp687
(dp688
g67
(dp689
g75
I4
ssg76
g683
sg69
(lp690
S"set(['C:\\\\Users\\\\admin\\\\Desktop\\\\Sathvik\\\\Tharuni.Org\\\\applications\\\\init\\\\', 'C:\\\\Users\\\\admin\\\\Desktop\\\\Sathvik\\\\Tharuni.Org\\\\applications\\\\admin\\\\'])"
p691
asbasbasbag62
(g78
g64
NtRp692
(dp693
g67
(dp694
sg76
g666
sg69
(lp695
g62
(g83
g64
NtRp696
(dp697
g67
(dp698
g87
g88
ssg76
g692
sg69
(lp699
S'applications_parent'
p700
asbag62
(g83
g64
NtRp701
(dp702
g67
(dp703
g94
g95
ssg76
g692
sg69
(lp704
S':'
asbag62
(g83
g64
NtRp705
(dp706
g67
(dp707
sg76
g692
sg69
(lp708
g62
(g63
g64
NtRp709
(dp710
g67
(dp711
g75
I4
ssg76
g705
sg69
(lp712
S'C:\\Users\\admin\\Desktop\\Sathvik\\Tharuni.Org'
p713
asbasbasbag62
(g78
g64
NtRp714
(dp715
g67
(dp716
sg76
g666
sg69
(lp717
g62
(g83
g64
NtRp718
(dp719
g67
(dp720
g87
g88
ssg76
g714
sg69
(lp721
S'cmd_args'
p722
asbag62
(g83
g64
NtRp723
(dp724
g67
(dp725
g94
g95
ssg76
g714
sg69
(lp726
S':'
asbag62
(g83
g64
NtRp727
(dp728
g67
(dp729
sg76
g714
sg69
(lp730
g62
(g63
g64
NtRp731
(dp732
g67
(dp733
g75
I4
ssg76
g727
sg69
(lp734
g62
(g71
g64
NtRp735
(dp736
g67
(dp737
g75
I3
ssg76
Nsg69
(lp738
sbasbasbasbag62
(g78
g64
NtRp739
(dp740
g67
(dp741
sg76
g666
sg69
(lp742
g62
(g83
g64
NtRp743
(dp744
g67
(dp745
g87
g88
ssg76
g739
sg69
(lp746
S'cmd_options'
p747
asbag62
(g83
g64
NtRp748
(dp749
g67
(dp750
g94
g95
ssg76
g739
sg69
(lp751
S':'
asbag62
(g83
g64
NtRp752
(dp753
g67
(dp754
sg76
g739
sg69
(lp755
g62
(g63
g64
NtRp756
(dp757
g67
(dp758
g75
I4
ssg76
g752
sg69
(lp759
S"<Values at 0x36b4188: {'verbose': False, 'ip': '127.0.0.1', 'with_scheduler': False, 'ips': ['10.8.4.49', '192.168.1.132', '192.168.56.1', '192.168.166.1', '169.254.251.64'], 'shutdown_timeout': 5, 'taskbar': False, 'port': 8000, 'maxthreads': None, 'softcron': False, 'server_name': 'LP-US-002', 'bpython': False, 'nogui': False, 'nocron': False, 'extcron': False, 'run_system_tests': False, 'test': None, 'folder': 'C:\\\\Users\\\\admin\\\\Desktop\\\\Sathvik\\\\Tharuni.Org', 'config': '', 'import_models': False, 'winservice': '', 'shell': None, 'run': '', 'log_filename': 'httpserver.log', 'debuglevel': 30, 'args': [''], 'socket_timeout': 5, 'ssl_ca_certificate': None, 'scheduler': None, 'profiler_filename': None, 'ssl_private_key': '', 'scheduler_groups': None, 'password': '<ask>', 'request_queue_size': 5, 'ssl_certificate': '', 'cronjob': False, 'numthreads': None, 'quiet': False, 'interfaces': None, 'minthreads': None, 'timeout': 10, 'plain': False, 'nobanner': False, 'pid_filename': 'httpserver.pid'}>"
p760
asbasbasbag62
(g78
g64
NtRp761
(dp762
g67
(dp763
sg76
g666
sg69
(lp764
g62
(g83
g64
NtRp765
(dp766
g67
(dp767
g87
g88
ssg76
g761
sg69
(lp768
S'content_length'
p769
asbag62
(g83
g64
NtRp770
(dp771
g67
(dp772
g94
g95
ssg76
g761
sg69
(lp773
S':'
asbag62
(g83
g64
NtRp774
(dp775
g67
(dp776
sg76
g761
sg69
(lp777
g62
(g63
g64
NtRp778
(dp779
g67
(dp780
g75
I4
ssg76
g774
sg69
(lp781
S'155'
p782
asbasbasbag62
(g78
g64
NtRp783
(dp784
g67
(dp785
sg76
g666
sg69
(lp786
g62
(g83
g64
NtRp787
(dp788
g67
(dp789
g87
g88
ssg76
g783
sg69
(lp790
S'content_type'
p791
asbag62
(g83
g64
NtRp792
(dp793
g67
(dp794
g94
g95
ssg76
g783
sg69
(lp795
S':'
asbag62
(g83
g64
NtRp796
(dp797
g67
(dp798
sg76
g783
sg69
(lp799
g62
(g63
g64
NtRp800
(dp801
g67
(dp802
g75
I4
ssg76
g796
sg69
(lp803
S'multipart/form-data; boundary=----WebKitFormBoundaryUtLdvBORB0rcfBKY'
p804
asbasbasbag62
(g78
g64
NtRp805
(dp806
g67
(dp807
sg76
g666
sg69
(lp808
g62
(g83
g64
NtRp809
(dp810
g67
(dp811
g87
g88
ssg76
g805
sg69
(lp812
S'db_sessions'
p813
asbag62
(g83
g64
NtRp814
(dp815
g67
(dp816
g94
g95
ssg76
g805
sg69
(lp817
S':'
asbag62
(g83
g64
NtRp818
(dp819
g67
(dp820
sg76
g805
sg69
(lp821
g62
(g63
g64
NtRp822
(dp823
g67
(dp824
g75
I4
ssg76
g818
sg69
(lp825
S'set([])'
p826
asbasbasbag62
(g78
g64
NtRp827
(dp828
g67
(dp829
sg76
g666
sg69
(lp830
g62
(g83
g64
NtRp831
(dp832
g67
(dp833
g87
g88
ssg76
g827
sg69
(lp834
S'debugging'
p835
asbag62
(g83
g64
NtRp836
(dp837
g67
(dp838
g94
g95
ssg76
g827
sg69
(lp839
S':'
asbag62
(g83
g64
NtRp840
(dp841
g67
(dp842
sg76
g827
sg69
(lp843
g62
(g63
g64
NtRp844
(dp845
g67
(dp846
g75
I4
ssg76
g840
sg69
(lp847
g105
asbasbasbag62
(g78
g64
NtRp848
(dp849
g67
(dp850
sg76
g666
sg69
(lp851
g62
(g83
g64
NtRp852
(dp853
g67
(dp854
g87
g88
ssg76
g848
sg69
(lp855
S'gluon_parent'
p856
asbag62
(g83
g64
NtRp857
(dp858
g67
(dp859
g94
g95
ssg76
g848
sg69
(lp860
S':'
asbag62
(g83
g64
NtRp861
(dp862
g67
(dp863
sg76
g848
sg69
(lp864
g62
(g63
g64
NtRp865
(dp866
g67
(dp867
g75
I4
ssg76
g861
sg69
(lp868
S'C:\\Users\\admin\\Desktop\\Sathvik\\Tharuni.Org'
p869
asbasbasbag62
(g78
g64
NtRp870
(dp871
g67
(dp872
sg76
g666
sg69
(lp873
g62
(g83
g64
NtRp874
(dp875
g67
(dp876
g87
g88
ssg76
g870
sg69
(lp877
S'http_accept'
p878
asbag62
(g83
g64
NtRp879
(dp880
g67
(dp881
g94
g95
ssg76
g870
sg69
(lp882
S':'
asbag62
(g83
g64
NtRp883
(dp884
g67
(dp885
sg76
g870
sg69
(lp886
g62
(g63
g64
NtRp887
(dp888
g67
(dp889
g75
I4
ssg76
g883
sg69
(lp890
S'text/html,application/xhtml+xml,application/xml;q=0.9,*/*;q=0.8'
p891
asbasbasbag62
(g78
g64
NtRp892
(dp893
g67
(dp894
sg76
g666
sg69
(lp895
g62
(g83
g64
NtRp896
(dp897
g67
(dp898
g87
g88
ssg76
g892
sg69
(lp899
S'http_accept_charset'
p900
asbag62
(g83
g64
NtRp901
(dp902
g67
(dp903
g94
g95
ssg76
g892
sg69
(lp904
S':'
asbag62
(g83
g64
NtRp905
(dp906
g67
(dp907
sg76
g892
sg69
(lp908
g62
(g63
g64
NtRp909
(dp910
g67
(dp911
g75
I4
ssg76
g905
sg69
(lp912
S'ISO-8859-1,utf-8;q=0.7,*;q=0.3'
p913
asbasbasbag62
(g78
g64
NtRp914
(dp915
g67
(dp916
sg76
g666
sg69
(lp917
g62
(g83
g64
NtRp918
(dp919
g67
(dp920
g87
g88
ssg76
g914
sg69
(lp921
S'http_accept_encoding'
p922
asbag62
(g83
g64
NtRp923
(dp924
g67
(dp925
g94
g95
ssg76
g914
sg69
(lp926
S':'
asbag62
(g83
g64
NtRp927
(dp928
g67
(dp929
sg76
g914
sg69
(lp930
g62
(g63
g64
NtRp931
(dp932
g67
(dp933
g75
I4
ssg76
g927
sg69
(lp934
S'gzip,deflate,sdch'
p935
asbasbasbag62
(g78
g64
NtRp936
(dp937
g67
(dp938
sg76
g666
sg69
(lp939
g62
(g83
g64
NtRp940
(dp941
g67
(dp942
g87
g88
ssg76
g936
sg69
(lp943
S'http_accept_language'
p944
asbag62
(g83
g64
NtRp945
(dp946
g67
(dp947
g94
g95
ssg76
g936
sg69
(lp948
S':'
asbag62
(g83
g64
NtRp949
(dp950
g67
(dp951
sg76
g936
sg69
(lp952
g62
(g63
g64
NtRp953
(dp954
g67
(dp955
g75
I4
ssg76
g949
sg69
(lp956
S'en-US,en;q=0.8'
p957
asbasbasbag62
(g78
g64
NtRp958
(dp959
g67
(dp960
sg76
g666
sg69
(lp961
g62
(g83
g64
NtRp962
(dp963
g67
(dp964
g87
g88
ssg76
g958
sg69
(lp965
S'http_cache_control'
p966
asbag62
(g83
g64
NtRp967
(dp968
g67
(dp969
g94
g95
ssg76
g958
sg69
(lp970
S':'
asbag62
(g83
g64
NtRp971
(dp972
g67
(dp973
sg76
g958
sg69
(lp974
g62
(g63
g64
NtRp975
(dp976
g67
(dp977
g75
I4
ssg76
g971
sg69
(lp978
S'max-age=0'
p979
asbasbasbag62
(g78
g64
NtRp980
(dp981
g67
(dp982
sg76
g666
sg69
(lp983
g62
(g83
g64
NtRp984
(dp985
g67
(dp986
g87
g88
ssg76
g980
sg69
(lp987
S'http_connection'
p988
asbag62
(g83
g64
NtRp989
(dp990
g67
(dp991
g94
g95
ssg76
g980
sg69
(lp992
S':'
asbag62
(g83
g64
NtRp993
(dp994
g67
(dp995
sg76
g980
sg69
(lp996
g62
(g63
g64
NtRp997
(dp998
g67
(dp999
g75
I4
ssg76
g993
sg69
(lp1000
S'keep-alive'
p1001
asbasbasbag62
(g78
g64
NtRp1002
(dp1003
g67
(dp1004
sg76
g666
sg69
(lp1005
g62
(g83
g64
NtRp1006
(dp1007
g67
(dp1008
g87
g88
ssg76
g1002
sg69
(lp1009
S'http_content_length'
p1010
asbag62
(g83
g64
NtRp1011
(dp1012
g67
(dp1013
g94
g95
ssg76
g1002
sg69
(lp1014
S':'
asbag62
(g83
g64
NtRp1015
(dp1016
g67
(dp1017
sg76
g1002
sg69
(lp1018
g62
(g63
g64
NtRp1019
(dp1020
g67
(dp1021
g75
I4
ssg76
g1015
sg69
(lp1022
g782
asbasbasbag62
(g78
g64
NtRp1023
(dp1024
g67
(dp1025
sg76
g666
sg69
(lp1026
g62
(g83
g64
NtRp1027
(dp1028
g67
(dp1029
g87
g88
ssg76
g1023
sg69
(lp1030
S'http_content_type'
p1031
asbag62
(g83
g64
NtRp1032
(dp1033
g67
(dp1034
g94
g95
ssg76
g1023
sg69
(lp1035
S':'
asbag62
(g83
g64
NtRp1036
(dp1037
g67
(dp1038
sg76
g1023
sg69
(lp1039
g62
(g63
g64
NtRp1040
(dp1041
g67
(dp1042
g75
I4
ssg76
g1036
sg69
(lp1043
g804
asbasbasbag62
(g78
g64
NtRp1044
(dp1045
g67
(dp1046
sg76
g666
sg69
(lp1047
g62
(g83
g64
NtRp1048
(dp1049
g67
(dp1050
g87
g88
ssg76
g1044
sg69
(lp1051
S'http_cookie'
p1052
asbag62
(g83
g64
NtRp1053
(dp1054
g67
(dp1055
g94
g95
ssg76
g1044
sg69
(lp1056
S':'
asbag62
(g83
g64
NtRp1057
(dp1058
g67
(dp1059
sg76
g1044
sg69
(lp1060
g62
(g63
g64
NtRp1061
(dp1062
g67
(dp1063
g75
I4
ssg76
g1057
sg69
(lp1064
S'session_id_init=127.0.0.1-6078939d-922f-428b-b405-987576949430; __utma=96992031.1435691907.1350205259.1350205259.1350208853.2; __utmb=96992031.14.10.1350208853; __utmc=96992031; __utmz=96992031.1350205259.1.1.utmcsr=(direct)|utmccn=(direct)|utmcmd=(none); session_id_admin=127.0.0.1-b09474c4-74c6-4bff-864d-e3d6c3b6e87e'
p1065
asbasbasbag62
(g78
g64
NtRp1066
(dp1067
g67
(dp1068
sg76
g666
sg69
(lp1069
g62
(g83
g64
NtRp1070
(dp1071
g67
(dp1072
g87
g88
ssg76
g1066
sg69
(lp1073
S'http_host'
p1074
asbag62
(g83
g64
NtRp1075
(dp1076
g67
(dp1077
g94
g95
ssg76
g1066
sg69
(lp1078
S':'
asbag62
(g83
g64
NtRp1079
(dp1080
g67
(dp1081
sg76
g1066
sg69
(lp1082
g62
(g63
g64
NtRp1083
(dp1084
g67
(dp1085
g75
I4
ssg76
g1079
sg69
(lp1086
S'127.0.0.1:8000'
p1087
asbasbasbag62
(g78
g64
NtRp1088
(dp1089
g67
(dp1090
sg76
g666
sg69
(lp1091
g62
(g83
g64
NtRp1092
(dp1093
g67
(dp1094
g87
g88
ssg76
g1088
sg69
(lp1095
S'http_origin'
p1096
asbag62
(g83
g64
NtRp1097
(dp1098
g67
(dp1099
g94
g95
ssg76
g1088
sg69
(lp1100
S':'
asbag62
(g83
g64
NtRp1101
(dp1102
g67
(dp1103
sg76
g1088
sg69
(lp1104
g62
(g63
g64
NtRp1105
(dp1106
g67
(dp1107
g75
I4
ssg76
g1101
sg69
(lp1108
S'http://127.0.0.1:8000'
p1109
asbasbasbag62
(g78
g64
NtRp1110
(dp1111
g67
(dp1112
sg76
g666
sg69
(lp1113
g62
(g83
g64
NtRp1114
(dp1115
g67
(dp1116
g87
g88
ssg76
g1110
sg69
(lp1117
S'http_referer'
p1118
asbag62
(g83
g64
NtRp1119
(dp1120
g67
(dp1121
g94
g95
ssg76
g1110
sg69
(lp1122
S':'
asbag62
(g83
g64
NtRp1123
(dp1124
g67
(dp1125
sg76
g1110
sg69
(lp1126
g62
(g63
g64
NtRp1127
(dp1128
g67
(dp1129
g75
I4
ssg76
g1123
sg69
(lp1130
S'http://127.0.0.1:8000/admin/wizard/step6'
p1131
asbasbasbag62
(g78
g64
NtRp1132
(dp1133
g67
(dp1134
sg76
g666
sg69
(lp1135
g62
(g83
g64
NtRp1136
(dp1137
g67
(dp1138
g87
g88
ssg76
g1132
sg69
(lp1139
S'http_user_agent'
p1140
asbag62
(g83
g64
NtRp1141
(dp1142
g67
(dp1143
g94
g95
ssg76
g1132
sg69
(lp1144
S':'
asbag62
(g83
g64
NtRp1145
(dp1146
g67
(dp1147
sg76
g1132
sg69
(lp1148
g62
(g63
g64
NtRp1149
(dp1150
g67
(dp1151
g75
I4
ssg76
g1145
sg69
(lp1152
S'Mozilla/5.0 (Windows NT 6.1; WOW64) AppleWebKit/537.4 (KHTML, like Gecko) Chrome/22.0.1229.91 Safari/537.4'
p1153
asbasbasbag62
(g78
g64
NtRp1154
(dp1155
g67
(dp1156
sg76
g666
sg69
(lp1157
g62
(g83
g64
NtRp1158
(dp1159
g67
(dp1160
g87
g88
ssg76
g1154
sg69
(lp1161
S'is_jython'
p1162
asbag62
(g83
g64
NtRp1163
(dp1164
g67
(dp1165
g94
g95
ssg76
g1154
sg69
(lp1166
S':'
asbag62
(g83
g64
NtRp1167
(dp1168
g67
(dp1169
sg76
g1154
sg69
(lp1170
g62
(g63
g64
NtRp1171
(dp1172
g67
(dp1173
g75
I4
ssg76
g1167
sg69
(lp1174
g105
asbasbasbag62
(g78
g64
NtRp1175
(dp1176
g67
(dp1177
sg76
g666
sg69
(lp1178
g62
(g83
g64
NtRp1179
(dp1180
g67
(dp1181
g87
g88
ssg76
g1175
sg69
(lp1182
S'is_pypy'
p1183
asbag62
(g83
g64
NtRp1184
(dp1185
g67
(dp1186
g94
g95
ssg76
g1175
sg69
(lp1187
S':'
asbag62
(g83
g64
NtRp1188
(dp1189
g67
(dp1190
sg76
g1175
sg69
(lp1191
g62
(g63
g64
NtRp1192
(dp1193
g67
(dp1194
g75
I4
ssg76
g1188
sg69
(lp1195
g105
asbasbasbag62
(g78
g64
NtRp1196
(dp1197
g67
(dp1198
sg76
g666
sg69
(lp1199
g62
(g83
g64
NtRp1200
(dp1201
g67
(dp1202
g87
g88
ssg76
g1196
sg69
(lp1203
S'path_info'
p1204
asbag62
(g83
g64
NtRp1205
(dp1206
g67
(dp1207
g94
g95
ssg76
g1196
sg69
(lp1208
S':'
asbag62
(g83
g64
NtRp1209
(dp1210
g67
(dp1211
sg76
g1196
sg69
(lp1212
g62
(g63
g64
NtRp1213
(dp1214
g67
(dp1215
g75
I4
ssg76
g1209
sg69
(lp1216
S'/admin/wizard/step6'
p1217
asbasbasbag62
(g78
g64
NtRp1218
(dp1219
g67
(dp1220
sg76
g666
sg69
(lp1221
g62
(g83
g64
NtRp1222
(dp1223
g67
(dp1224
g87
g88
ssg76
g1218
sg69
(lp1225
S'query_string'
p1226
asbag62
(g83
g64
NtRp1227
(dp1228
g67
(dp1229
g94
g95
ssg76
g1218
sg69
(lp1230
S':'
asbag62
(g83
g64
NtRp1231
(dp1232
g67
(dp1233
sg76
g1218
sg69
(lp1234
g62
(g63
g64
NtRp1235
(dp1236
g67
(dp1237
g75
I4
ssg76
g1231
sg69
(lp1238
S''
asbasbasbag62
(g78
g64
NtRp1239
(dp1240
g67
(dp1241
sg76
g666
sg69
(lp1242
g62
(g83
g64
NtRp1243
(dp1244
g67
(dp1245
g87
g88
ssg76
g1239
sg69
(lp1246
S'remote_addr'
p1247
asbag62
(g83
g64
NtRp1248
(dp1249
g67
(dp1250
g94
g95
ssg76
g1239
sg69
(lp1251
S':'
asbag62
(g83
g64
NtRp1252
(dp1253
g67
(dp1254
sg76
g1239
sg69
(lp1255
g62
(g63
g64
NtRp1256
(dp1257
g67
(dp1258
g75
I4
ssg76
g1252
sg69
(lp1259
g217
asbasbasbag62
(g78
g64
NtRp1260
(dp1261
g67
(dp1262
sg76
g666
sg69
(lp1263
g62
(g83
g64
NtRp1264
(dp1265
g67
(dp1266
g87
g88
ssg76
g1260
sg69
(lp1267
S'remote_port'
p1268
asbag62
(g83
g64
NtRp1269
(dp1270
g67
(dp1271
g94
g95
ssg76
g1260
sg69
(lp1272
S':'
asbag62
(g83
g64
NtRp1273
(dp1274
g67
(dp1275
sg76
g1260
sg69
(lp1276
g62
(g63
g64
NtRp1277
(dp1278
g67
(dp1279
g75
I4
ssg76
g1273
sg69
(lp1280
S'51779'
p1281
asbasbasbag62
(g78
g64
NtRp1282
(dp1283
g67
(dp1284
sg76
g666
sg69
(lp1285
g62
(g83
g64
NtRp1286
(dp1287
g67
(dp1288
g87
g88
ssg76
g1282
sg69
(lp1289
S'request_method'
p1290
asbag62
(g83
g64
NtRp1291
(dp1292
g67
(dp1293
g94
g95
ssg76
g1282
sg69
(lp1294
S':'
asbag62
(g83
g64
NtRp1295
(dp1296
g67
(dp1297
sg76
g1282
sg69
(lp1298
g62
(g63
g64
NtRp1299
(dp1300
g67
(dp1301
g75
I4
ssg76
g1295
sg69
(lp1302
S'POST'
p1303
asbasbasbag62
(g78
g64
NtRp1304
(dp1305
g67
(dp1306
sg76
g666
sg69
(lp1307
g62
(g83
g64
NtRp1308
(dp1309
g67
(dp1310
g87
g88
ssg76
g1304
sg69
(lp1311
S'request_uri'
p1312
asbag62
(g83
g64
NtRp1313
(dp1314
g67
(dp1315
g94
g95
ssg76
g1304
sg69
(lp1316
S':'
asbag62
(g83
g64
NtRp1317
(dp1318
g67
(dp1319
sg76
g1304
sg69
(lp1320
g62
(g63
g64
NtRp1321
(dp1322
g67
(dp1323
g75
I4
ssg76
g1317
sg69
(lp1324
g1217
asbasbasbag62
(g78
g64
NtRp1325
(dp1326
g67
(dp1327
sg76
g666
sg69
(lp1328
g62
(g83
g64
NtRp1329
(dp1330
g67
(dp1331
g87
g88
ssg76
g1325
sg69
(lp1332
S'script_name'
p1333
asbag62
(g83
g64
NtRp1334
(dp1335
g67
(dp1336
g94
g95
ssg76
g1325
sg69
(lp1337
S':'
asbag62
(g83
g64
NtRp1338
(dp1339
g67
(dp1340
sg76
g1325
sg69
(lp1341
g62
(g63
g64
NtRp1342
(dp1343
g67
(dp1344
g75
I4
ssg76
g1338
sg69
(lp1345
S''
asbasbasbag62
(g78
g64
NtRp1346
(dp1347
g67
(dp1348
sg76
g666
sg69
(lp1349
g62
(g83
g64
NtRp1350
(dp1351
g67
(dp1352
g87
g88
ssg76
g1346
sg69
(lp1353
S'server_name'
p1354
asbag62
(g83
g64
NtRp1355
(dp1356
g67
(dp1357
g94
g95
ssg76
g1346
sg69
(lp1358
S':'
asbag62
(g83
g64
NtRp1359
(dp1360
g67
(dp1361
sg76
g1346
sg69
(lp1362
g62
(g63
g64
NtRp1363
(dp1364
g67
(dp1365
g75
I4
ssg76
g1359
sg69
(lp1366
S'LP-US-002'
p1367
asbasbasbag62
(g78
g64
NtRp1368
(dp1369
g67
(dp1370
sg76
g666
sg69
(lp1371
g62
(g83
g64
NtRp1372
(dp1373
g67
(dp1374
g87
g88
ssg76
g1368
sg69
(lp1375
S'server_port'
p1376
asbag62
(g83
g64
NtRp1377
(dp1378
g67
(dp1379
g94
g95
ssg76
g1368
sg69
(lp1380
S':'
asbag62
(g83
g64
NtRp1381
(dp1382
g67
(dp1383
sg76
g1368
sg69
(lp1384
g62
(g63
g64
NtRp1385
(dp1386
g67
(dp1387
g75
I4
ssg76
g1381
sg69
(lp1388
S'8000'
p1389
asbasbasbag62
(g78
g64
NtRp1390
(dp1391
g67
(dp1392
sg76
g666
sg69
(lp1393
g62
(g83
g64
NtRp1394
(dp1395
g67
(dp1396
g87
g88
ssg76
g1390
sg69
(lp1397
S'server_protocol'
p1398
asbag62
(g83
g64
NtRp1399
(dp1400
g67
(dp1401
g94
g95
ssg76
g1390
sg69
(lp1402
S':'
asbag62
(g83
g64
NtRp1403
(dp1404
g67
(dp1405
sg76
g1390
sg69
(lp1406
g62
(g63
g64
NtRp1407
(dp1408
g67
(dp1409
g75
I4
ssg76
g1403
sg69
(lp1410
S'HTTP/1.1'
p1411
asbasbasbag62
(g78
g64
NtRp1412
(dp1413
g67
(dp1414
sg76
g666
sg69
(lp1415
g62
(g83
g64
NtRp1416
(dp1417
g67
(dp1418
g87
g88
ssg76
g1412
sg69
(lp1419
S'server_software'
p1420
asbag62
(g83
g64
NtRp1421
(dp1422
g67
(dp1423
g94
g95
ssg76
g1412
sg69
(lp1424
S':'
asbag62
(g83
g64
NtRp1425
(dp1426
g67
(dp1427
sg76
g1412
sg69
(lp1428
g62
(g63
g64
NtRp1429
(dp1430
g67
(dp1431
g75
I4
ssg76
g1425
sg69
(lp1432
S'Rocket 1.2.4'
p1433
asbasbasbag62
(g78
g64
NtRp1434
(dp1435
g67
(dp1436
sg76
g666
sg69
(lp1437
g62
(g83
g64
NtRp1438
(dp1439
g67
(dp1440
g87
g88
ssg76
g1434
sg69
(lp1441
S'web2py_crontype'
p1442
asbag62
(g83
g64
NtRp1443
(dp1444
g67
(dp1445
g94
g95
ssg76
g1434
sg69
(lp1446
S':'
asbag62
(g83
g64
NtRp1447
(dp1448
g67
(dp1449
sg76
g1434
sg69
(lp1450
g62
(g63
g64
NtRp1451
(dp1452
g67
(dp1453
g75
I4
ssg76
g1447
sg69
(lp1454
S'hard'
p1455
asbasbasbag62
(g78
g64
NtRp1456
(dp1457
g67
(dp1458
sg76
g666
sg69
(lp1459
g62
(g83
g64
NtRp1460
(dp1461
g67
(dp1462
g87
g88
ssg76
g1456
sg69
(lp1463
S'web2py_original_uri'
p1464
asbag62
(g83
g64
NtRp1465
(dp1466
g67
(dp1467
g94
g95
ssg76
g1456
sg69
(lp1468
S':'
asbag62
(g83
g64
NtRp1469
(dp1470
g67
(dp1471
sg76
g1456
sg69
(lp1472
g62
(g63
g64
NtRp1473
(dp1474
g67
(dp1475
g75
I4
ssg76
g1469
sg69
(lp1476
g1217
asbasbasbag62
(g78
g64
NtRp1477
(dp1478
g67
(dp1479
sg76
g666
sg69
(lp1480
g62
(g83
g64
NtRp1481
(dp1482
g67
(dp1483
g87
g88
ssg76
g1477
sg69
(lp1484
S'web2py_path'
p1485
asbag62
(g83
g64
NtRp1486
(dp1487
g67
(dp1488
g94
g95
ssg76
g1477
sg69
(lp1489
S':'
asbag62
(g83
g64
NtRp1490
(dp1491
g67
(dp1492
sg76
g1477
sg69
(lp1493
g62
(g63
g64
NtRp1494
(dp1495
g67
(dp1496
g75
I4
ssg76
g1490
sg69
(lp1497
g713
asbasbasbag62
(g78
g64
NtRp1498
(dp1499
g67
(dp1500
sg76
g666
sg69
(lp1501
g62
(g83
g64
NtRp1502
(dp1503
g67
(dp1504
g87
g88
ssg76
g1498
sg69
(lp1505
S'web2py_version'
p1506
asbag62
(g83
g64
NtRp1507
(dp1508
g67
(dp1509
g94
g95
ssg76
g1498
sg69
(lp1510
S':'
asbag62
(g83
g64
NtRp1511
(dp1512
g67
(dp1513
sg76
g1498
sg69
(lp1514
g62
(g63
g64
NtRp1515
(dp1516
g67
(dp1517
g75
I4
ssg76
g1511
sg69
(lp1518
g62
(g71
g64
NtRp1519
(dp1520
g67
(dp1521
g75
I3
ssg76
Nsg69
(lp1522
g62
(g78
g64
NtRp1523
(dp1524
g67
(dp1525
sg76
g1519
sg69
(lp1526
g62
(g83
g64
NtRp1527
(dp1528
g67
(dp1529
sg76
g1523
sg69
(lp1530
g62
(g63
g64
NtRp1531
(dp1532
g67
(dp1533
g75
I3
ssg76
g1527
sg69
(lp1534
S'2'
asbasbasbag62
(g78
g64
NtRp1535
(dp1536
g67
(dp1537
sg76
g1519
sg69
(lp1538
g62
(g83
g64
NtRp1539
(dp1540
g67
(dp1541
sg76
g1535
sg69
(lp1542
g62
(g63
g64
NtRp1543
(dp1544
g67
(dp1545
g75
I3
ssg76
g1539
sg69
(lp1546
S'0'
asbasbasbag62
(g78
g64
NtRp1547
(dp1548
g67
(dp1549
sg76
g1519
sg69
(lp1550
g62
(g83
g64
NtRp1551
(dp1552
g67
(dp1553
sg76
g1547
sg69
(lp1554
g62
(g63
g64
NtRp1555
(dp1556
g67
(dp1557
g75
I3
ssg76
g1551
sg69
(lp1558
S'9'
asbasbasbag62
(g78
g64
NtRp1559
(dp1560
g67
(dp1561
sg76
g1519
sg69
(lp1562
g62
(g83
g64
NtRp1563
(dp1564
g67
(dp1565
sg76
g1559
sg69
(lp1566
g62
(g63
g64
NtRp1567
(dp1568
g67
(dp1569
g75
I3
ssg76
g1563
sg69
(lp1570
S'datetime.datetime(2012, 9, 13, 23, 51, 30)'
p1571
asbasbasbag62
(g78
g64
NtRp1572
(dp1573
g67
(dp1574
sg76
g1519
sg69
(lp1575
g62
(g83
g64
NtRp1576
(dp1577
g67
(dp1578
sg76
g1572
sg69
(lp1579
g62
(g63
g64
NtRp1580
(dp1581
g67
(dp1582
g75
I3
ssg76
g1576
sg69
(lp1583
S'stable'
p1584
asbasbasbasbasbasbasbag62
(g78
g64
NtRp1585
(dp1586
g67
(dp1587
sg76
g666
sg69
(lp1588
g62
(g83
g64
NtRp1589
(dp1590
g67
(dp1591
g87
g88
ssg76
g1585
sg69
(lp1592
S'wsgi_errors'
p1593
asbag62
(g83
g64
NtRp1594
(dp1595
g67
(dp1596
g94
g95
ssg76
g1585
sg69
(lp1597
S':'
asbag62
(g83
g64
NtRp1598
(dp1599
g67
(dp1600
sg76
g1585
sg69
(lp1601
g62
(g63
g64
NtRp1602
(dp1603
g67
(dp1604
g75
I4
ssg76
g1598
sg69
(lp1605
S"<open file '<stderr>', mode 'w' at 0x0000000001DDE1E0>"
p1606
asbasbasbag62
(g78
g64
NtRp1607
(dp1608
g67
(dp1609
sg76
g666
sg69
(lp1610
g62
(g83
g64
NtRp1611
(dp1612
g67
(dp1613
g87
g88
ssg76
g1607
sg69
(lp1614
S'wsgi_file_wrapper'
p1615
asbag62
(g83
g64
NtRp1616
(dp1617
g67
(dp1618
g94
g95
ssg76
g1607
sg69
(lp1619
S':'
asbag62
(g83
g64
NtRp1620
(dp1621
g67
(dp1622
sg76
g1607
sg69
(lp1623
g62
(g63
g64
NtRp1624
(dp1625
g67
(dp1626
g75
I4
ssg76
g1620
sg69
(lp1627
S'<class wsgiref.util.FileWrapper at 0x00000000041E25E8>'
p1628
asbasbasbag62
(g78
g64
NtRp1629
(dp1630
g67
(dp1631
sg76
g666
sg69
(lp1632
g62
(g83
g64
NtRp1633
(dp1634
g67
(dp1635
g87
g88
ssg76
g1629
sg69
(lp1636
S'wsgi_input'
p1637
asbag62
(g83
g64
NtRp1638
(dp1639
g67
(dp1640
g94
g95
ssg76
g1629
sg69
(lp1641
S':'
asbag62
(g83
g64
NtRp1642
(dp1643
g67
(dp1644
sg76
g1629
sg69
(lp1645
g62
(g63
g64
NtRp1646
(dp1647
g67
(dp1648
g75
I4
ssg76
g1642
sg69
(lp1649
S'<socket._fileobject object at 0x00000000086D8750>'
p1650
asbasbasbag62
(g78
g64
NtRp1651
(dp1652
g67
(dp1653
sg76
g666
sg69
(lp1654
g62
(g83
g64
NtRp1655
(dp1656
g67
(dp1657
g87
g88
ssg76
g1651
sg69
(lp1658
S'wsgi_multiprocess'
p1659
asbag62
(g83
g64
NtRp1660
(dp1661
g67
(dp1662
g94
g95
ssg76
g1651
sg69
(lp1663
S':'
asbag62
(g83
g64
NtRp1664
(dp1665
g67
(dp1666
sg76
g1651
sg69
(lp1667
g62
(g63
g64
NtRp1668
(dp1669
g67
(dp1670
g75
I4
ssg76
g1664
sg69
(lp1671
g105
asbasbasbag62
(g78
g64
NtRp1672
(dp1673
g67
(dp1674
sg76
g666
sg69
(lp1675
g62
(g83
g64
NtRp1676
(dp1677
g67
(dp1678
g87
g88
ssg76
g1672
sg69
(lp1679
S'wsgi_multithread'
p1680
asbag62
(g83
g64
NtRp1681
(dp1682
g67
(dp1683
g94
g95
ssg76
g1672
sg69
(lp1684
S':'
asbag62
(g83
g64
NtRp1685
(dp1686
g67
(dp1687
sg76
g1672
sg69
(lp1688
g62
(g63
g64
NtRp1689
(dp1690
g67
(dp1691
g75
I4
ssg76
g1685
sg69
(lp1692
S'True'
p1693
asbasbasbag62
(g78
g64
NtRp1694
(dp1695
g67
(dp1696
sg76
g666
sg69
(lp1697
g62
(g83
g64
NtRp1698
(dp1699
g67
(dp1700
g87
g88
ssg76
g1694
sg69
(lp1701
S'wsgi_run_once'
p1702
asbag62
(g83
g64
NtRp1703
(dp1704
g67
(dp1705
g94
g95
ssg76
g1694
sg69
(lp1706
S':'
asbag62
(g83
g64
NtRp1707
(dp1708
g67
(dp1709
sg76
g1694
sg69
(lp1710
g62
(g63
g64
NtRp1711
(dp1712
g67
(dp1713
g75
I4
ssg76
g1707
sg69
(lp1714
g105
asbasbasbag62
(g78
g64
NtRp1715
(dp1716
g67
(dp1717
sg76
g666
sg69
(lp1718
g62
(g83
g64
NtRp1719
(dp1720
g67
(dp1721
g87
g88
ssg76
g1715
sg69
(lp1722
S'wsgi_url_scheme'
p1723
asbag62
(g83
g64
NtRp1724
(dp1725
g67
(dp1726
g94
g95
ssg76
g1715
sg69
(lp1727
S':'
asbag62
(g83
g64
NtRp1728
(dp1729
g67
(dp1730
sg76
g1715
sg69
(lp1731
g62
(g63
g64
NtRp1732
(dp1733
g67
(dp1734
g75
I4
ssg76
g1728
sg69
(lp1735
S'http'
p1736
asbasbasbag62
(g78
g64
NtRp1737
(dp1738
g67
(dp1739
sg76
g666
sg69
(lp1740
g62
(g83
g64
NtRp1741
(dp1742
g67
(dp1743
g87
g88
ssg76
g1737
sg69
(lp1744
S'wsgi_version'
p1745
asbag62
(g83
g64
NtRp1746
(dp1747
g67
(dp1748
g94
g95
ssg76
g1737
sg69
(lp1749
S':'
asbag62
(g83
g64
NtRp1750
(dp1751
g67
(dp1752
sg76
g1737
sg69
(lp1753
g62
(g63
g64
NtRp1754
(dp1755
g67
(dp1756
g75
I4
ssg76
g1750
sg69
(lp1757
g62
(g71
g64
NtRp1758
(dp1759
g67
(dp1760
g75
I3
ssg76
Nsg69
(lp1761
g62
(g78
g64
NtRp1762
(dp1763
g67
(dp1764
sg76
g1758
sg69
(lp1765
g62
(g83
g64
NtRp1766
(dp1767
g67
(dp1768
sg76
g1762
sg69
(lp1769
g62
(g63
g64
NtRp1770
(dp1771
g67
(dp1772
g75
I3
ssg76
g1766
sg69
(lp1773
S'1'
asbasbasbag62
(g78
g64
NtRp1774
(dp1775
g67
(dp1776
sg76
g1758
sg69
(lp1777
g62
(g83
g64
NtRp1778
(dp1779
g67
(dp1780
sg76
g1774
sg69
(lp1781
g62
(g63
g64
NtRp1782
(dp1783
g67
(dp1784
g75
I3
ssg76
g1778
sg69
(lp1785
S'0'
asbasbasbasbasbasbasbasbasbasbasbag62
(g78
g64
NtRp1786
(dp1787
g67
(dp1788
sg76
g72
sg69
(lp1789
g62
(g83
g64
NtRp1790
(dp1791
g67
(dp1792
g87
g88
ssg76
g1786
sg69
(lp1793
S'extension'
p1794
asbag62
(g83
g64
NtRp1795
(dp1796
g67
(dp1797
g94
g95
ssg76
g1786
sg69
(lp1798
S':'
asbag62
(g83
g64
NtRp1799
(dp1800
g67
(dp1801
sg76
g1786
sg69
(lp1802
g62
(g63
g64
NtRp1803
(dp1804
g67
(dp1805
g75
I5
ssg76
g1799
sg69
(lp1806
S'html'
p1807
asbasbasbag62
(g78
g64
NtRp1808
(dp1809
g67
(dp1810
sg76
g72
sg69
(lp1811
g62
(g83
g64
NtRp1812
(dp1813
g67
(dp1814
g87
g88
ssg76
g1808
sg69
(lp1815
S'folder'
p1816
asbag62
(g83
g64
NtRp1817
(dp1818
g67
(dp1819
g94
g95
ssg76
g1808
sg69
(lp1820
S':'
asbag62
(g83
g64
NtRp1821
(dp1822
g67
(dp1823
sg76
g1808
sg69
(lp1824
g62
(g63
g64
NtRp1825
(dp1826
g67
(dp1827
g75
I5
ssg76
g1821
sg69
(lp1828
S'C:\\Users\\admin\\Desktop\\Sathvik\\Tharuni.Org\\applications\\admin\\'
p1829
asbasbasbag62
(g78
g64
NtRp1830
(dp1831
g67
(dp1832
sg76
g72
sg69
(lp1833
g62
(g83
g64
NtRp1834
(dp1835
g67
(dp1836
g87
g88
ssg76
g1830
sg69
(lp1837
S'function'
p1838
asbag62
(g83
g64
NtRp1839
(dp1840
g67
(dp1841
g94
g95
ssg76
g1830
sg69
(lp1842
S':'
asbag62
(g83
g64
NtRp1843
(dp1844
g67
(dp1845
sg76
g1830
sg69
(lp1846
g62
(g63
g64
NtRp1847
(dp1848
g67
(dp1849
g75
I5
ssg76
g1843
sg69
(lp1850
S'step6'
p1851
asbasbasbag62
(g78
g64
NtRp1852
(dp1853
g67
(dp1854
sg76
g72
sg69
(lp1855
g62
(g83
g64
NtRp1856
(dp1857
g67
(dp1858
g87
g88
ssg76
g1852
sg69
(lp1859
S'get_vars'
p1860
asbag62
(g83
g64
NtRp1861
(dp1862
g67
(dp1863
g94
g95
ssg76
g1852
sg69
(lp1864
S':'
asbag62
(g83
g64
NtRp1865
(dp1866
g67
(dp1867
sg76
g1852
sg69
(lp1868
g62
(g63
g64
NtRp1869
(dp1870
g67
(dp1871
g75
I5
ssg76
g1865
sg69
(lp1872
g62
(g71
g64
NtRp1873
(dp1874
g67
(dp1875
g75
I4
ssg76
Nsg69
(lp1876
sbasbasbasbag62
(g78
g64
NtRp1877
(dp1878
g67
(dp1879
sg76
g72
sg69
(lp1880
g62
(g83
g64
NtRp1881
(dp1882
g67
(dp1883
g87
g88
ssg76
g1877
sg69
(lp1884
S'global_settings'
p1885
asbag62
(g83
g64
NtRp1886
(dp1887
g67
(dp1888
g94
g95
ssg76
g1877
sg69
(lp1889
S':'
asbag62
(g83
g64
NtRp1890
(dp1891
g67
(dp1892
sg76
g1877
sg69
(lp1893
g62
(g63
g64
NtRp1894
(dp1895
g67
(dp1896
g75
I5
ssg76
g1890
sg69
(lp1897
g62
(g71
g64
NtRp1898
(dp1899
g67
(dp1900
g75
I4
ssg76
Nsg69
(lp1901
g62
(g78
g64
NtRp1902
(dp1903
g67
(dp1904
sg76
g1898
sg69
(lp1905
g62
(g83
g64
NtRp1906
(dp1907
g67
(dp1908
g87
g88
ssg76
g1902
sg69
(lp1909
g678
asbag62
(g83
g64
NtRp1910
(dp1911
g67
(dp1912
g94
g95
ssg76
g1902
sg69
(lp1913
S':'
asbag62
(g83
g64
NtRp1914
(dp1915
g67
(dp1916
sg76
g1902
sg69
(lp1917
g62
(g63
g64
NtRp1918
(dp1919
g67
(dp1920
g75
I4
ssg76
g1914
sg69
(lp1921
S"set(['C:\\\\Users\\\\admin\\\\Desktop\\\\Sathvik\\\\Tharuni.Org\\\\applications\\\\init\\\\', 'C:\\\\Users\\\\admin\\\\Desktop\\\\Sathvik\\\\Tharuni.Org\\\\applications\\\\admin\\\\'])"
p1922
asbasbasbag62
(g78
g64
NtRp1923
(dp1924
g67
(dp1925
sg76
g1898
sg69
(lp1926
g62
(g83
g64
NtRp1927
(dp1928
g67
(dp1929
g87
g88
ssg76
g1923
sg69
(lp1930
g700
asbag62
(g83
g64
NtRp1931
(dp1932
g67
(dp1933
g94
g95
ssg76
g1923
sg69
(lp1934
S':'
asbag62
(g83
g64
NtRp1935
(dp1936
g67
(dp1937
sg76
g1923
sg69
(lp1938
g62
(g63
g64
NtRp1939
(dp1940
g67
(dp1941
g75
I4
ssg76
g1935
sg69
(lp1942
g713
asbasbasbag62
(g78
g64
NtRp1943
(dp1944
g67
(dp1945
sg76
g1898
sg69
(lp1946
g62
(g83
g64
NtRp1947
(dp1948
g67
(dp1949
g87
g88
ssg76
g1943
sg69
(lp1950
g722
asbag62
(g83
g64
NtRp1951
(dp1952
g67
(dp1953
g94
g95
ssg76
g1943
sg69
(lp1954
S':'
asbag62
(g83
g64
NtRp1955
(dp1956
g67
(dp1957
sg76
g1943
sg69
(lp1958
g62
(g63
g64
NtRp1959
(dp1960
g67
(dp1961
g75
I4
ssg76
g1955
sg69
(lp1962
g62
(g71
g64
NtRp1963
(dp1964
g67
(dp1965
g75
I3
ssg76
Nsg69
(lp1966
sbasbasbasbag62
(g78
g64
NtRp1967
(dp1968
g67
(dp1969
sg76
g1898
sg69
(lp1970
g62
(g83
g64
NtRp1971
(dp1972
g67
(dp1973
g87
g88
ssg76
g1967
sg69
(lp1974
g747
asbag62
(g83
g64
NtRp1975
(dp1976
g67
(dp1977
g94
g95
ssg76
g1967
sg69
(lp1978
S':'
asbag62
(g83
g64
NtRp1979
(dp1980
g67
(dp1981
sg76
g1967
sg69
(lp1982
g62
(g63
g64
NtRp1983
(dp1984
g67
(dp1985
g75
I4
ssg76
g1979
sg69
(lp1986
S"<Values at 0x36b4188: {'verbose': False, 'ip': '127.0.0.1', 'with_scheduler': False, 'ips': ['10.8.4.49', '192.168.1.132', '192.168.56.1', '192.168.166.1', '169.254.251.64'], 'shutdown_timeout': 5, 'taskbar': False, 'port': 8000, 'maxthreads': None, 'softcron': False, 'server_name': 'LP-US-002', 'bpython': False, 'nogui': False, 'nocron': False, 'extcron': False, 'run_system_tests': False, 'test': None, 'folder': 'C:\\\\Users\\\\admin\\\\Desktop\\\\Sathvik\\\\Tharuni.Org', 'config': '', 'import_models': False, 'winservice': '', 'shell': None, 'run': '', 'log_filename': 'httpserver.log', 'debuglevel': 30, 'args': [''], 'socket_timeout': 5, 'ssl_ca_certificate': None, 'scheduler': None, 'profiler_filename': None, 'ssl_private_key': '', 'scheduler_groups': None, 'password': '<ask>', 'request_queue_size': 5, 'ssl_certificate': '', 'cronjob': False, 'numthreads': None, 'quiet': False, 'interfaces': None, 'minthreads': None, 'timeout': 10, 'plain': False, 'nobanner': False, 'pid_filename': 'httpserver.pid'}>"
p1987
asbasbasbag62
(g78
g64
NtRp1988
(dp1989
g67
(dp1990
sg76
g1898
sg69
(lp1991
g62
(g83
g64
NtRp1992
(dp1993
g67
(dp1994
g87
g88
ssg76
g1988
sg69
(lp1995
g813
asbag62
(g83
g64
NtRp1996
(dp1997
g67
(dp1998
g94
g95
ssg76
g1988
sg69
(lp1999
S':'
asbag62
(g83
g64
NtRp2000
(dp2001
g67
(dp2002
sg76
g1988
sg69
(lp2003
g62
(g63
g64
NtRp2004
(dp2005
g67
(dp2006
g75
I4
ssg76
g2000
sg69
(lp2007
S'set([])'
p2008
asbasbasbag62
(g78
g64
NtRp2009
(dp2010
g67
(dp2011
sg76
g1898
sg69
(lp2012
g62
(g83
g64
NtRp2013
(dp2014
g67
(dp2015
g87
g88
ssg76
g2009
sg69
(lp2016
g835
asbag62
(g83
g64
NtRp2017
(dp2018
g67
(dp2019
g94
g95
ssg76
g2009
sg69
(lp2020
S':'
asbag62
(g83
g64
NtRp2021
(dp2022
g67
(dp2023
sg76
g2009
sg69
(lp2024
g62
(g63
g64
NtRp2025
(dp2026
g67
(dp2027
g75
I4
ssg76
g2021
sg69
(lp2028
g105
asbasbasbag62
(g78
g64
NtRp2029
(dp2030
g67
(dp2031
sg76
g1898
sg69
(lp2032
g62
(g83
g64
NtRp2033
(dp2034
g67
(dp2035
g87
g88
ssg76
g2029
sg69
(lp2036
g856
asbag62
(g83
g64
NtRp2037
(dp2038
g67
(dp2039
g94
g95
ssg76
g2029
sg69
(lp2040
S':'
asbag62
(g83
g64
NtRp2041
(dp2042
g67
(dp2043
sg76
g2029
sg69
(lp2044
g62
(g63
g64
NtRp2045
(dp2046
g67
(dp2047
g75
I4
ssg76
g2041
sg69
(lp2048
g869
asbasbasbag62
(g78
g64
NtRp2049
(dp2050
g67
(dp2051
sg76
g1898
sg69
(lp2052
g62
(g83
g64
NtRp2053
(dp2054
g67
(dp2055
g87
g88
ssg76
g2049
sg69
(lp2056
g1162
asbag62
(g83
g64
NtRp2057
(dp2058
g67
(dp2059
g94
g95
ssg76
g2049
sg69
(lp2060
S':'
asbag62
(g83
g64
NtRp2061
(dp2062
g67
(dp2063
sg76
g2049
sg69
(lp2064
g62
(g63
g64
NtRp2065
(dp2066
g67
(dp2067
g75
I4
ssg76
g2061
sg69
(lp2068
g105
asbasbasbag62
(g78
g64
NtRp2069
(dp2070
g67
(dp2071
sg76
g1898
sg69
(lp2072
g62
(g83
g64
NtRp2073
(dp2074
g67
(dp2075
g87
g88
ssg76
g2069
sg69
(lp2076
g1183
asbag62
(g83
g64
NtRp2077
(dp2078
g67
(dp2079
g94
g95
ssg76
g2069
sg69
(lp2080
S':'
asbag62
(g83
g64
NtRp2081
(dp2082
g67
(dp2083
sg76
g2069
sg69
(lp2084
g62
(g63
g64
NtRp2085
(dp2086
g67
(dp2087
g75
I4
ssg76
g2081
sg69
(lp2088
g105
asbasbasbag62
(g78
g64
NtRp2089
(dp2090
g67
(dp2091
sg76
g1898
sg69
(lp2092
g62
(g83
g64
NtRp2093
(dp2094
g67
(dp2095
g87
g88
ssg76
g2089
sg69
(lp2096
g1442
asbag62
(g83
g64
NtRp2097
(dp2098
g67
(dp2099
g94
g95
ssg76
g2089
sg69
(lp2100
S':'
asbag62
(g83
g64
NtRp2101
(dp2102
g67
(dp2103
sg76
g2089
sg69
(lp2104
g62
(g63
g64
NtRp2105
(dp2106
g67
(dp2107
g75
I4
ssg76
g2101
sg69
(lp2108
g1455
asbasbasbag62
(g78
g64
NtRp2109
(dp2110
g67
(dp2111
sg76
g1898
sg69
(lp2112
g62
(g83
g64
NtRp2113
(dp2114
g67
(dp2115
g87
g88
ssg76
g2109
sg69
(lp2116
g1506
asbag62
(g83
g64
NtRp2117
(dp2118
g67
(dp2119
g94
g95
ssg76
g2109
sg69
(lp2120
S':'
asbag62
(g83
g64
NtRp2121
(dp2122
g67
(dp2123
sg76
g2109
sg69
(lp2124
g62
(g63
g64
NtRp2125
(dp2126
g67
(dp2127
g75
I4
ssg76
g2121
sg69
(lp2128
g62
(g71
g64
NtRp2129
(dp2130
g67
(dp2131
g75
I3
ssg76
Nsg69
(lp2132
g62
(g78
g64
NtRp2133
(dp2134
g67
(dp2135
sg76
g2129
sg69
(lp2136
g62
(g83
g64
NtRp2137
(dp2138
g67
(dp2139
sg76
g2133
sg69
(lp2140
g62
(g63
g64
NtRp2141
(dp2142
g67
(dp2143
g75
I3
ssg76
g2137
sg69
(lp2144
S'2'
asbasbasbag62
(g78
g64
NtRp2145
(dp2146
g67
(dp2147
sg76
g2129
sg69
(lp2148
g62
(g83
g64
NtRp2149
(dp2150
g67
(dp2151
sg76
g2145
sg69
(lp2152
g62
(g63
g64
NtRp2153
(dp2154
g67
(dp2155
g75
I3
ssg76
g2149
sg69
(lp2156
S'0'
asbasbasbag62
(g78
g64
NtRp2157
(dp2158
g67
(dp2159
sg76
g2129
sg69
(lp2160
g62
(g83
g64
NtRp2161
(dp2162
g67
(dp2163
sg76
g2157
sg69
(lp2164
g62
(g63
g64
NtRp2165
(dp2166
g67
(dp2167
g75
I3
ssg76
g2161
sg69
(lp2168
S'9'
asbasbasbag62
(g78
g64
NtRp2169
(dp2170
g67
(dp2171
sg76
g2129
sg69
(lp2172
g62
(g83
g64
NtRp2173
(dp2174
g67
(dp2175
sg76
g2169
sg69
(lp2176
g62
(g63
g64
NtRp2177
(dp2178
g67
(dp2179
g75
I3
ssg76
g2173
sg69
(lp2180
S'datetime.datetime(2012, 9, 13, 23, 51, 30)'
p2181
asbasbasbag62
(g78
g64
NtRp2182
(dp2183
g67
(dp2184
sg76
g2129
sg69
(lp2185
g62
(g83
g64
NtRp2186
(dp2187
g67
(dp2188
sg76
g2182
sg69
(lp2189
g62
(g63
g64
NtRp2190
(dp2191
g67
(dp2192
g75
I3
ssg76
g2186
sg69
(lp2193
g1584
asbasbasbasbasbasbasbasbasbasbasbag62
(g78
g64
NtRp2194
(dp2195
g67
(dp2196
sg76
g72
sg69
(lp2197
g62
(g83
g64
NtRp2198
(dp2199
g67
(dp2200
g87
g88
ssg76
g2194
sg69
(lp2201
S'is_https'
p2202
asbag62
(g83
g64
NtRp2203
(dp2204
g67
(dp2205
g94
g95
ssg76
g2194
sg69
(lp2206
S':'
asbag62
(g83
g64
NtRp2207
(dp2208
g67
(dp2209
sg76
g2194
sg69
(lp2210
g62
(g63
g64
NtRp2211
(dp2212
g67
(dp2213
g75
I5
ssg76
g2207
sg69
(lp2214
g105
asbasbasbag62
(g78
g64
NtRp2215
(dp2216
g67
(dp2217
sg76
g72
sg69
(lp2218
g62
(g83
g64
NtRp2219
(dp2220
g67
(dp2221
g87
g88
ssg76
g2215
sg69
(lp2222
S'is_local'
p2223
asbag62
(g83
g64
NtRp2224
(dp2225
g67
(dp2226
g94
g95
ssg76
g2215
sg69
(lp2227
S':'
asbag62
(g83
g64
NtRp2228
(dp2229
g67
(dp2230
sg76
g2215
sg69
(lp2231
g62
(g63
g64
NtRp2232
(dp2233
g67
(dp2234
g75
I5
ssg76
g2228
sg69
(lp2235
g1693
asbasbasbag62
(g78
g64
NtRp2236
(dp2237
g67
(dp2238
sg76
g72
sg69
(lp2239
g62
(g83
g64
NtRp2240
(dp2241
g67
(dp2242
g87
g88
ssg76
g2236
sg69
(lp2243
S'is_restful'
p2244
asbag62
(g83
g64
NtRp2245
(dp2246
g67
(dp2247
g94
g95
ssg76
g2236
sg69
(lp2248
S':'
asbag62
(g83
g64
NtRp2249
(dp2250
g67
(dp2251
sg76
g2236
sg69
(lp2252
g62
(g63
g64
NtRp2253
(dp2254
g67
(dp2255
g75
I5
ssg76
g2249
sg69
(lp2256
g105
asbasbasbag62
(g78
g64
NtRp2257
(dp2258
g67
(dp2259
sg76
g72
sg69
(lp2260
g62
(g83
g64
NtRp2261
(dp2262
g67
(dp2263
g87
g88
ssg76
g2257
sg69
(lp2264
S'now'
p2265
asbag62
(g83
g64
NtRp2266
(dp2267
g67
(dp2268
g94
g95
ssg76
g2257
sg69
(lp2269
S':'
asbag62
(g83
g64
NtRp2270
(dp2271
g67
(dp2272
sg76
g2257
sg69
(lp2273
g62
(g63
g64
NtRp2274
(dp2275
g67
(dp2276
g75
I5
ssg76
g2270
sg69
(lp2277
S'datetime.datetime(2012, 10, 14, 15, 56, 19, 959000)'
p2278
asbasbasbag62
(g78
g64
NtRp2279
(dp2280
g67
(dp2281
sg76
g72
sg69
(lp2282
g62
(g83
g64
NtRp2283
(dp2284
g67
(dp2285
g87
g88
ssg76
g2279
sg69
(lp2286
S'post_vars'
p2287
asbag62
(g83
g64
NtRp2288
(dp2289
g67
(dp2290
g94
g95
ssg76
g2279
sg69
(lp2291
S':'
asbag62
(g83
g64
NtRp2292
(dp2293
g67
(dp2294
sg76
g2279
sg69
(lp2295
g62
(g63
g64
NtRp2296
(dp2297
g67
(dp2298
g75
I5
ssg76
g2292
sg69
(lp2299
g62
(g71
g64
NtRp2300
(dp2301
g67
(dp2302
g75
I4
ssg76
Nsg69
(lp2303
sbasbasbasbag62
(g78
g64
NtRp2304
(dp2305
g67
(dp2306
sg76
g72
sg69
(lp2307
g62
(g83
g64
NtRp2308
(dp2309
g67
(dp2310
g87
g88
ssg76
g2304
sg69
(lp2311
S'raw_args'
p2312
asbag62
(g83
g64
NtRp2313
(dp2314
g67
(dp2315
g94
g95
ssg76
g2304
sg69
(lp2316
S':'
asbag62
(g83
g64
NtRp2317
(dp2318
g67
(dp2319
sg76
g2304
sg69
(lp2320
g62
(g63
g64
NtRp2321
(dp2322
g67
(dp2323
g75
I5
ssg76
g2317
sg69
(lp2324
S'None'
p2325
asbasbasbag62
(g78
g64
NtRp2326
(dp2327
g67
(dp2328
sg76
g72
sg69
(lp2329
g62
(g83
g64
NtRp2330
(dp2331
g67
(dp2332
g87
g88
ssg76
g2326
sg69
(lp2333
S'raw_extension'
p2334
asbag62
(g83
g64
NtRp2335
(dp2336
g67
(dp2337
g94
g95
ssg76
g2326
sg69
(lp2338
S':'
asbag62
(g83
g64
NtRp2339
(dp2340
g67
(dp2341
sg76
g2326
sg69
(lp2342
g62
(g63
g64
NtRp2343
(dp2344
g67
(dp2345
g75
I5
ssg76
g2339
sg69
(lp2346
S'None'
p2347
asbasbasbag62
(g78
g64
NtRp2348
(dp2349
g67
(dp2350
sg76
g72
sg69
(lp2351
g62
(g83
g64
NtRp2352
(dp2353
g67
(dp2354
g87
g88
ssg76
g2348
sg69
(lp2355
S'url'
p2356
asbag62
(g83
g64
NtRp2357
(dp2358
g67
(dp2359
g94
g95
ssg76
g2348
sg69
(lp2360
S':'
asbag62
(g83
g64
NtRp2361
(dp2362
g67
(dp2363
sg76
g2348
sg69
(lp2364
g62
(g63
g64
NtRp2365
(dp2366
g67
(dp2367
g75
I5
ssg76
g2361
sg69
(lp2368
g1217
asbasbasbag62
(g78
g64
NtRp2369
(dp2370
g67
(dp2371
sg76
g72
sg69
(lp2372
g62
(g83
g64
NtRp2373
(dp2374
g67
(dp2375
g87
g88
ssg76
g2369
sg69
(lp2376
S'utcnow'
p2377
asbag62
(g83
g64
NtRp2378
(dp2379
g67
(dp2380
g94
g95
ssg76
g2369
sg69
(lp2381
S':'
asbag62
(g83
g64
NtRp2382
(dp2383
g67
(dp2384
sg76
g2369
sg69
(lp2385
g62
(g63
g64
NtRp2386
(dp2387
g67
(dp2388
g75
I5
ssg76
g2382
sg69
(lp2389
S'datetime.datetime(2012, 10, 14, 10, 26, 19, 959000)'
p2390
asbasbasbag62
(g78
g64
NtRp2391
(dp2392
g67
(dp2393
sg76
g72
sg69
(lp2394
g62
(g83
g64
NtRp2395
(dp2396
g67
(dp2397
g87
g88
ssg76
g2391
sg69
(lp2398
S'uuid'
p2399
asbag62
(g83
g64
NtRp2400
(dp2401
g67
(dp2402
g94
g95
ssg76
g2391
sg69
(lp2403
S':'
asbag62
(g83
g64
NtRp2404
(dp2405
g67
(dp2406
sg76
g2391
sg69
(lp2407
g62
(g63
g64
NtRp2408
(dp2409
g67
(dp2410
g75
I5
ssg76
g2404
sg69
(lp2411
S'admin/127.0.0.1.2012-10-14.15-56-19.7daac87b-7abd-4d0a-881c-0873a9f41bbd'
p2412
asbasbasbag62
(g78
g64
NtRp2413
(dp2414
g67
(dp2415
sg76
g72
sg69
(lp2416
g62
(g83
g64
NtRp2417
(dp2418
g67
(dp2419
g87
g88
ssg76
g2413
sg69
(lp2420
S'vars'
p2421
asbag62
(g83
g64
NtRp2422
(dp2423
g67
(dp2424
g94
g95
ssg76
g2413
sg69
(lp2425
S':'
asbag62
(g83
g64
NtRp2426
(dp2427
g67
(dp2428
sg76
g2413
sg69
(lp2429
g62
(g63
g64
NtRp2430
(dp2431
g67
(dp2432
g75
I5
ssg76
g2426
sg69
(lp2433
g62
(g71
g64
NtRp2434
(dp2435
g67
(dp2436
g75
I4
ssg76
Nsg69
(lp2437
sbasbasbasbag62
(g78
g64
NtRp2438
(dp2439
g67
(dp2440
sg76
g72
sg69
(lp2441
g62
(g83
g64
NtRp2442
(dp2443
g67
(dp2444
g87
g88
ssg76
g2438
sg69
(lp2445
S'wsgi'
p2446
asbag62
(g83
g64
NtRp2447
(dp2448
g67
(dp2449
g94
g95
ssg76
g2438
sg69
(lp2450
S':'
asbag62
(g83
g64
NtRp2451
(dp2452
g67
(dp2453
sg76
g2438
sg69
(lp2454
g62
(g63
g64
NtRp2455
(dp2456
g67
(dp2457
g75
I5
ssg76
g2451
sg69
(lp2458
g62
(g71
g64
NtRp2459
(dp2460
g67
(dp2461
g75
I4
ssg76
Nsg69
(lp2462
g62
(g78
g64
NtRp2463
(dp2464
g67
(dp2465
sg76
g2459
sg69
(lp2466
g62
(g83
g64
NtRp2467
(dp2468
g67
(dp2469
g87
g88
ssg76
g2463
sg69
(lp2470
S'environ'
p2471
asbag62
(g83
g64
NtRp2472
(dp2473
g67
(dp2474
g94
g95
ssg76
g2463
sg69
(lp2475
S':'
asbag62
(g83
g64
NtRp2476
(dp2477
g67
(dp2478
sg76
g2463
sg69
(lp2479
g62
(g63
g64
NtRp2480
(dp2481
g67
(dp2482
g75
I4
ssg76
g2476
sg69
(lp2483
g62
(g71
g64
NtRp2484
(dp2485
g67
(dp2486
g75
I3
ssg76
Nsg69
(lp2487
g62
(g78
g64
NtRp2488
(dp2489
g67
(dp2490
sg76
g2484
sg69
(lp2491
g62
(g83
g64
NtRp2492
(dp2493
g67
(dp2494
g87
g88
ssg76
g2488
sg69
(lp2495
S'CONTENT_LENGTH'
p2496
asbag62
(g83
g64
NtRp2497
(dp2498
g67
(dp2499
g94
g95
ssg76
g2488
sg69
(lp2500
S':'
asbag62
(g83
g64
NtRp2501
(dp2502
g67
(dp2503
sg76
g2488
sg69
(lp2504
g62
(g63
g64
NtRp2505
(dp2506
g67
(dp2507
g75
I3
ssg76
g2501
sg69
(lp2508
g782
asbasbasbag62
(g78
g64
NtRp2509
(dp2510
g67
(dp2511
sg76
g2484
sg69
(lp2512
g62
(g83
g64
NtRp2513
(dp2514
g67
(dp2515
g87
g88
ssg76
g2509
sg69
(lp2516
S'CONTENT_TYPE'
p2517
asbag62
(g83
g64
NtRp2518
(dp2519
g67
(dp2520
g94
g95
ssg76
g2509
sg69
(lp2521
S':'
asbag62
(g83
g64
NtRp2522
(dp2523
g67
(dp2524
sg76
g2509
sg69
(lp2525
g62
(g63
g64
NtRp2526
(dp2527
g67
(dp2528
g75
I3
ssg76
g2522
sg69
(lp2529
g804
asbasbasbag62
(g78
g64
NtRp2530
(dp2531
g67
(dp2532
sg76
g2484
sg69
(lp2533
g62
(g83
g64
NtRp2534
(dp2535
g67
(dp2536
g87
g88
ssg76
g2530
sg69
(lp2537
S'HTTP_ACCEPT'
p2538
asbag62
(g83
g64
NtRp2539
(dp2540
g67
(dp2541
g94
g95
ssg76
g2530
sg69
(lp2542
S':'
asbag62
(g83
g64
NtRp2543
(dp2544
g67
(dp2545
sg76
g2530
sg69
(lp2546
g62
(g63
g64
NtRp2547
(dp2548
g67
(dp2549
g75
I3
ssg76
g2543
sg69
(lp2550
g891
asbasbasbag62
(g78
g64
NtRp2551
(dp2552
g67
(dp2553
sg76
g2484
sg69
(lp2554
g62
(g83
g64
NtRp2555
(dp2556
g67
(dp2557
g87
g88
ssg76
g2551
sg69
(lp2558
S'HTTP_ACCEPT_CHARSET'
p2559
asbag62
(g83
g64
NtRp2560
(dp2561
g67
(dp2562
g94
g95
ssg76
g2551
sg69
(lp2563
S':'
asbag62
(g83
g64
NtRp2564
(dp2565
g67
(dp2566
sg76
g2551
sg69
(lp2567
g62
(g63
g64
NtRp2568
(dp2569
g67
(dp2570
g75
I3
ssg76
g2564
sg69
(lp2571
g913
asbasbasbag62
(g78
g64
NtRp2572
(dp2573
g67
(dp2574
sg76
g2484
sg69
(lp2575
g62
(g83
g64
NtRp2576
(dp2577
g67
(dp2578
g87
g88
ssg76
g2572
sg69
(lp2579
S'HTTP_ACCEPT_ENCODING'
p2580
asbag62
(g83
g64
NtRp2581
(dp2582
g67
(dp2583
g94
g95
ssg76
g2572
sg69
(lp2584
S':'
asbag62
(g83
g64
NtRp2585
(dp2586
g67
(dp2587
sg76
g2572
sg69
(lp2588
g62
(g63
g64
NtRp2589
(dp2590
g67
(dp2591
g75
I3
ssg76
g2585
sg69
(lp2592
g935
asbasbasbag62
(g78
g64
NtRp2593
(dp2594
g67
(dp2595
sg76
g2484
sg69
(lp2596
g62
(g83
g64
NtRp2597
(dp2598
g67
(dp2599
g87
g88
ssg76
g2593
sg69
(lp2600
S'HTTP_ACCEPT_LANGUAGE'
p2601
asbag62
(g83
g64
NtRp2602
(dp2603
g67
(dp2604
g94
g95
ssg76
g2593
sg69
(lp2605
S':'
asbag62
(g83
g64
NtRp2606
(dp2607
g67
(dp2608
sg76
g2593
sg69
(lp2609
g62
(g63
g64
NtRp2610
(dp2611
g67
(dp2612
g75
I3
ssg76
g2606
sg69
(lp2613
g957
asbasbasbag62
(g78
g64
NtRp2614
(dp2615
g67
(dp2616
sg76
g2484
sg69
(lp2617
g62
(g83
g64
NtRp2618
(dp2619
g67
(dp2620
g87
g88
ssg76
g2614
sg69
(lp2621
S'HTTP_CACHE_CONTROL'
p2622
asbag62
(g83
g64
NtRp2623
(dp2624
g67
(dp2625
g94
g95
ssg76
g2614
sg69
(lp2626
S':'
asbag62
(g83
g64
NtRp2627
(dp2628
g67
(dp2629
sg76
g2614
sg69
(lp2630
g62
(g63
g64
NtRp2631
(dp2632
g67
(dp2633
g75
I3
ssg76
g2627
sg69
(lp2634
g979
asbasbasbag62
(g78
g64
NtRp2635
(dp2636
g67
(dp2637
sg76
g2484
sg69
(lp2638
g62
(g83
g64
NtRp2639
(dp2640
g67
(dp2641
g87
g88
ssg76
g2635
sg69
(lp2642
S'HTTP_CONNECTION'
p2643
asbag62
(g83
g64
NtRp2644
(dp2645
g67
(dp2646
g94
g95
ssg76
g2635
sg69
(lp2647
S':'
asbag62
(g83
g64
NtRp2648
(dp2649
g67
(dp2650
sg76
g2635
sg69
(lp2651
g62
(g63
g64
NtRp2652
(dp2653
g67
(dp2654
g75
I3
ssg76
g2648
sg69
(lp2655
g1001
asbasbasbag62
(g78
g64
NtRp2656
(dp2657
g67
(dp2658
sg76
g2484
sg69
(lp2659
g62
(g83
g64
NtRp2660
(dp2661
g67
(dp2662
g87
g88
ssg76
g2656
sg69
(lp2663
S'HTTP_CONTENT_LENGTH'
p2664
asbag62
(g83
g64
NtRp2665
(dp2666
g67
(dp2667
g94
g95
ssg76
g2656
sg69
(lp2668
S':'
asbag62
(g83
g64
NtRp2669
(dp2670
g67
(dp2671
sg76
g2656
sg69
(lp2672
g62
(g63
g64
NtRp2673
(dp2674
g67
(dp2675
g75
I3
ssg76
g2669
sg69
(lp2676
g782
asbasbasbag62
(g78
g64
NtRp2677
(dp2678
g67
(dp2679
sg76
g2484
sg69
(lp2680
g62
(g83
g64
NtRp2681
(dp2682
g67
(dp2683
g87
g88
ssg76
g2677
sg69
(lp2684
S'HTTP_CONTENT_TYPE'
p2685
asbag62
(g83
g64
NtRp2686
(dp2687
g67
(dp2688
g94
g95
ssg76
g2677
sg69
(lp2689
S':'
asbag62
(g83
g64
NtRp2690
(dp2691
g67
(dp2692
sg76
g2677
sg69
(lp2693
g62
(g63
g64
NtRp2694
(dp2695
g67
(dp2696
g75
I3
ssg76
g2690
sg69
(lp2697
g804
asbasbasbag62
(g78
g64
NtRp2698
(dp2699
g67
(dp2700
sg76
g2484
sg69
(lp2701
g62
(g83
g64
NtRp2702
(dp2703
g67
(dp2704
g87
g88
ssg76
g2698
sg69
(lp2705
S'HTTP_COOKIE'
p2706
asbag62
(g83
g64
NtRp2707
(dp2708
g67
(dp2709
g94
g95
ssg76
g2698
sg69
(lp2710
S':'
asbag62
(g83
g64
NtRp2711
(dp2712
g67
(dp2713
sg76
g2698
sg69
(lp2714
g62
(g63
g64
NtRp2715
(dp2716
g67
(dp2717
g75
I3
ssg76
g2711
sg69
(lp2718
g1065
asbasbasbag62
(g78
g64
NtRp2719
(dp2720
g67
(dp2721
sg76
g2484
sg69
(lp2722
g62
(g83
g64
NtRp2723
(dp2724
g67
(dp2725
g87
g88
ssg76
g2719
sg69
(lp2726
S'HTTP_HOST'
p2727
asbag62
(g83
g64
NtRp2728
(dp2729
g67
(dp2730
g94
g95
ssg76
g2719
sg69
(lp2731
S':'
asbag62
(g83
g64
NtRp2732
(dp2733
g67
(dp2734
sg76
g2719
sg69
(lp2735
g62
(g63
g64
NtRp2736
(dp2737
g67
(dp2738
g75
I3
ssg76
g2732
sg69
(lp2739
g1087
asbasbasbag62
(g78
g64
NtRp2740
(dp2741
g67
(dp2742
sg76
g2484
sg69
(lp2743
g62
(g83
g64
NtRp2744
(dp2745
g67
(dp2746
g87
g88
ssg76
g2740
sg69
(lp2747
S'HTTP_ORIGIN'
p2748
asbag62
(g83
g64
NtRp2749
(dp2750
g67
(dp2751
g94
g95
ssg76
g2740
sg69
(lp2752
S':'
asbag62
(g83
g64
NtRp2753
(dp2754
g67
(dp2755
sg76
g2740
sg69
(lp2756
g62
(g63
g64
NtRp2757
(dp2758
g67
(dp2759
g75
I3
ssg76
g2753
sg69
(lp2760
g1109
asbasbasbag62
(g78
g64
NtRp2761
(dp2762
g67
(dp2763
sg76
g2484
sg69
(lp2764
g62
(g83
g64
NtRp2765
(dp2766
g67
(dp2767
g87
g88
ssg76
g2761
sg69
(lp2768
S'HTTP_REFERER'
p2769
asbag62
(g83
g64
NtRp2770
(dp2771
g67
(dp2772
g94
g95
ssg76
g2761
sg69
(lp2773
S':'
asbag62
(g83
g64
NtRp2774
(dp2775
g67
(dp2776
sg76
g2761
sg69
(lp2777
g62
(g63
g64
NtRp2778
(dp2779
g67
(dp2780
g75
I3
ssg76
g2774
sg69
(lp2781
g1131
asbasbasbag62
(g78
g64
NtRp2782
(dp2783
g67
(dp2784
sg76
g2484
sg69
(lp2785
g62
(g83
g64
NtRp2786
(dp2787
g67
(dp2788
g87
g88
ssg76
g2782
sg69
(lp2789
S'HTTP_USER_AGENT'
p2790
asbag62
(g83
g64
NtRp2791
(dp2792
g67
(dp2793
g94
g95
ssg76
g2782
sg69
(lp2794
S':'
asbag62
(g83
g64
NtRp2795
(dp2796
g67
(dp2797
sg76
g2782
sg69
(lp2798
g62
(g63
g64
NtRp2799
(dp2800
g67
(dp2801
g75
I3
ssg76
g2795
sg69
(lp2802
g1153
asbasbasbag62
(g78
g64
NtRp2803
(dp2804
g67
(dp2805
sg76
g2484
sg69
(lp2806
g62
(g83
g64
NtRp2807
(dp2808
g67
(dp2809
g87
g88
ssg76
g2803
sg69
(lp2810
S'PATH_INFO'
p2811
asbag62
(g83
g64
NtRp2812
(dp2813
g67
(dp2814
g94
g95
ssg76
g2803
sg69
(lp2815
S':'
asbag62
(g83
g64
NtRp2816
(dp2817
g67
(dp2818
sg76
g2803
sg69
(lp2819
g62
(g63
g64
NtRp2820
(dp2821
g67
(dp2822
g75
I3
ssg76
g2816
sg69
(lp2823
g1217
asbasbasbag62
(g78
g64
NtRp2824
(dp2825
g67
(dp2826
sg76
g2484
sg69
(lp2827
g62
(g83
g64
NtRp2828
(dp2829
g67
(dp2830
g87
g88
ssg76
g2824
sg69
(lp2831
S'QUERY_STRING'
p2832
asbag62
(g83
g64
NtRp2833
(dp2834
g67
(dp2835
g94
g95
ssg76
g2824
sg69
(lp2836
S':'
asbag62
(g83
g64
NtRp2837
(dp2838
g67
(dp2839
sg76
g2824
sg69
(lp2840
g62
(g63
g64
NtRp2841
(dp2842
g67
(dp2843
g75
I3
ssg76
g2837
sg69
(lp2844
S''
asbasbasbag62
(g78
g64
NtRp2845
(dp2846
g67
(dp2847
sg76
g2484
sg69
(lp2848
g62
(g83
g64
NtRp2849
(dp2850
g67
(dp2851
g87
g88
ssg76
g2845
sg69
(lp2852
S'REMOTE_ADDR'
p2853
asbag62
(g83
g64
NtRp2854
(dp2855
g67
(dp2856
g94
g95
ssg76
g2845
sg69
(lp2857
S':'
asbag62
(g83
g64
NtRp2858
(dp2859
g67
(dp2860
sg76
g2845
sg69
(lp2861
g62
(g63
g64
NtRp2862
(dp2863
g67
(dp2864
g75
I3
ssg76
g2858
sg69
(lp2865
g217
asbasbasbag62
(g78
g64
NtRp2866
(dp2867
g67
(dp2868
sg76
g2484
sg69
(lp2869
g62
(g83
g64
NtRp2870
(dp2871
g67
(dp2872
g87
g88
ssg76
g2866
sg69
(lp2873
S'REMOTE_PORT'
p2874
asbag62
(g83
g64
NtRp2875
(dp2876
g67
(dp2877
g94
g95
ssg76
g2866
sg69
(lp2878
S':'
asbag62
(g83
g64
NtRp2879
(dp2880
g67
(dp2881
sg76
g2866
sg69
(lp2882
g62
(g63
g64
NtRp2883
(dp2884
g67
(dp2885
g75
I3
ssg76
g2879
sg69
(lp2886
g1281
asbasbasbag62
(g78
g64
NtRp2887
(dp2888
g67
(dp2889
sg76
g2484
sg69
(lp2890
g62
(g83
g64
NtRp2891
(dp2892
g67
(dp2893
g87
g88
ssg76
g2887
sg69
(lp2894
S'REQUEST_METHOD'
p2895
asbag62
(g83
g64
NtRp2896
(dp2897
g67
(dp2898
g94
g95
ssg76
g2887
sg69
(lp2899
S':'
asbag62
(g83
g64
NtRp2900
(dp2901
g67
(dp2902
sg76
g2887
sg69
(lp2903
g62
(g63
g64
NtRp2904
(dp2905
g67
(dp2906
g75
I3
ssg76
g2900
sg69
(lp2907
g1303
asbasbasbag62
(g78
g64
NtRp2908
(dp2909
g67
(dp2910
sg76
g2484
sg69
(lp2911
g62
(g83
g64
NtRp2912
(dp2913
g67
(dp2914
g87
g88
ssg76
g2908
sg69
(lp2915
S'REQUEST_URI'
p2916
asbag62
(g83
g64
NtRp2917
(dp2918
g67
(dp2919
g94
g95
ssg76
g2908
sg69
(lp2920
S':'
asbag62
(g83
g64
NtRp2921
(dp2922
g67
(dp2923
sg76
g2908
sg69
(lp2924
g62
(g63
g64
NtRp2925
(dp2926
g67
(dp2927
g75
I3
ssg76
g2921
sg69
(lp2928
g1217
asbasbasbag62
(g78
g64
NtRp2929
(dp2930
g67
(dp2931
sg76
g2484
sg69
(lp2932
g62
(g83
g64
NtRp2933
(dp2934
g67
(dp2935
g87
g88
ssg76
g2929
sg69
(lp2936
S'SCRIPT_NAME'
p2937
asbag62
(g83
g64
NtRp2938
(dp2939
g67
(dp2940
g94
g95
ssg76
g2929
sg69
(lp2941
S':'
asbag62
(g83
g64
NtRp2942
(dp2943
g67
(dp2944
sg76
g2929
sg69
(lp2945
g62
(g63
g64
NtRp2946
(dp2947
g67
(dp2948
g75
I3
ssg76
g2942
sg69
(lp2949
S''
asbasbasbag62
(g78
g64
NtRp2950
(dp2951
g67
(dp2952
sg76
g2484
sg69
(lp2953
g62
(g83
g64
NtRp2954
(dp2955
g67
(dp2956
g87
g88
ssg76
g2950
sg69
(lp2957
S'SERVER_NAME'
p2958
asbag62
(g83
g64
NtRp2959
(dp2960
g67
(dp2961
g94
g95
ssg76
g2950
sg69
(lp2962
S':'
asbag62
(g83
g64
NtRp2963
(dp2964
g67
(dp2965
sg76
g2950
sg69
(lp2966
g62
(g63
g64
NtRp2967
(dp2968
g67
(dp2969
g75
I3
ssg76
g2963
sg69
(lp2970
g1367
asbasbasbag62
(g78
g64
NtRp2971
(dp2972
g67
(dp2973
sg76
g2484
sg69
(lp2974
g62
(g83
g64
NtRp2975
(dp2976
g67
(dp2977
g87
g88
ssg76
g2971
sg69
(lp2978
S'SERVER_PORT'
p2979
asbag62
(g83
g64
NtRp2980
(dp2981
g67
(dp2982
g94
g95
ssg76
g2971
sg69
(lp2983
S':'
asbag62
(g83
g64
NtRp2984
(dp2985
g67
(dp2986
sg76
g2971
sg69
(lp2987
g62
(g63
g64
NtRp2988
(dp2989
g67
(dp2990
g75
I3
ssg76
g2984
sg69
(lp2991
g1389
asbasbasbag62
(g78
g64
NtRp2992
(dp2993
g67
(dp2994
sg76
g2484
sg69
(lp2995
g62
(g83
g64
NtRp2996
(dp2997
g67
(dp2998
g87
g88
ssg76
g2992
sg69
(lp2999
S'SERVER_PROTOCOL'
p3000
asbag62
(g83
g64
NtRp3001
(dp3002
g67
(dp3003
g94
g95
ssg76
g2992
sg69
(lp3004
S':'
asbag62
(g83
g64
NtRp3005
(dp3006
g67
(dp3007
sg76
g2992
sg69
(lp3008
g62
(g63
g64
NtRp3009
(dp3010
g67
(dp3011
g75
I3
ssg76
g3005
sg69
(lp3012
g1411
asbasbasbag62
(g78
g64
NtRp3013
(dp3014
g67
(dp3015
sg76
g2484
sg69
(lp3016
g62
(g83
g64
NtRp3017
(dp3018
g67
(dp3019
g87
g88
ssg76
g3013
sg69
(lp3020
S'SERVER_SOFTWARE'
p3021
asbag62
(g83
g64
NtRp3022
(dp3023
g67
(dp3024
g94
g95
ssg76
g3013
sg69
(lp3025
S':'
asbag62
(g83
g64
NtRp3026
(dp3027
g67
(dp3028
sg76
g3013
sg69
(lp3029
g62
(g63
g64
NtRp3030
(dp3031
g67
(dp3032
g75
I3
ssg76
g3026
sg69
(lp3033
g1433
asbasbasbag62
(g78
g64
NtRp3034
(dp3035
g67
(dp3036
sg76
g2484
sg69
(lp3037
g62
(g83
g64
NtRp3038
(dp3039
g67
(dp3040
g87
g88
ssg76
g3034
sg69
(lp3041
S'WEB2PY_ORIGINAL_URI'
p3042
asbag62
(g83
g64
NtRp3043
(dp3044
g67
(dp3045
g94
g95
ssg76
g3034
sg69
(lp3046
S':'
asbag62
(g83
g64
NtRp3047
(dp3048
g67
(dp3049
sg76
g3034
sg69
(lp3050
g62
(g63
g64
NtRp3051
(dp3052
g67
(dp3053
g75
I3
ssg76
g3047
sg69
(lp3054
g1217
asbasbasbag62
(g78
g64
NtRp3055
(dp3056
g67
(dp3057
sg76
g2484
sg69
(lp3058
g62
(g83
g64
NtRp3059
(dp3060
g67
(dp3061
g87
g88
ssg76
g3055
sg69
(lp3062
S'wsgi.errors'
p3063
asbag62
(g83
g64
NtRp3064
(dp3065
g67
(dp3066
g94
g95
ssg76
g3055
sg69
(lp3067
S':'
asbag62
(g83
g64
NtRp3068
(dp3069
g67
(dp3070
sg76
g3055
sg69
(lp3071
g62
(g63
g64
NtRp3072
(dp3073
g67
(dp3074
g75
I3
ssg76
g3068
sg69
(lp3075
S"<open file '<stderr>', mode 'w' at 0x0000000001DDE1E0>"
p3076
asbasbasbag62
(g78
g64
NtRp3077
(dp3078
g67
(dp3079
sg76
g2484
sg69
(lp3080
g62
(g83
g64
NtRp3081
(dp3082
g67
(dp3083
g87
g88
ssg76
g3077
sg69
(lp3084
S'wsgi.file_wrapper'
p3085
asbag62
(g83
g64
NtRp3086
(dp3087
g67
(dp3088
g94
g95
ssg76
g3077
sg69
(lp3089
S':'
asbag62
(g83
g64
NtRp3090
(dp3091
g67
(dp3092
sg76
g3077
sg69
(lp3093
g62
(g63
g64
NtRp3094
(dp3095
g67
(dp3096
g75
I3
ssg76
g3090
sg69
(lp3097
S'<class wsgiref.util.FileWrapper at 0x00000000041E25E8>'
p3098
asbasbasbag62
(g78
g64
NtRp3099
(dp3100
g67
(dp3101
sg76
g2484
sg69
(lp3102
g62
(g83
g64
NtRp3103
(dp3104
g67
(dp3105
g87
g88
ssg76
g3099
sg69
(lp3106
S'wsgi.input'
p3107
asbag62
(g83
g64
NtRp3108
(dp3109
g67
(dp3110
g94
g95
ssg76
g3099
sg69
(lp3111
S':'
asbag62
(g83
g64
NtRp3112
(dp3113
g67
(dp3114
sg76
g3099
sg69
(lp3115
g62
(g63
g64
NtRp3116
(dp3117
g67
(dp3118
g75
I3
ssg76
g3112
sg69
(lp3119
S"<open file '<fdopen>', mode 'w+b' at 0x0000000008724780>"
p3120
asbasbasbag62
(g78
g64
NtRp3121
(dp3122
g67
(dp3123
sg76
g2484
sg69
(lp3124
g62
(g83
g64
NtRp3125
(dp3126
g67
(dp3127
g87
g88
ssg76
g3121
sg69
(lp3128
S'wsgi.multiprocess'
p3129
asbag62
(g83
g64
NtRp3130
(dp3131
g67
(dp3132
g94
g95
ssg76
g3121
sg69
(lp3133
S':'
asbag62
(g83
g64
NtRp3134
(dp3135
g67
(dp3136
sg76
g3121
sg69
(lp3137
g62
(g63
g64
NtRp3138
(dp3139
g67
(dp3140
g75
I3
ssg76
g3134
sg69
(lp3141
g105
asbasbasbag62
(g78
g64
NtRp3142
(dp3143
g67
(dp3144
sg76
g2484
sg69
(lp3145
g62
(g83
g64
NtRp3146
(dp3147
g67
(dp3148
g87
g88
ssg76
g3142
sg69
(lp3149
S'wsgi.multithread'
p3150
asbag62
(g83
g64
NtRp3151
(dp3152
g67
(dp3153
g94
g95
ssg76
g3142
sg69
(lp3154
S':'
asbag62
(g83
g64
NtRp3155
(dp3156
g67
(dp3157
sg76
g3142
sg69
(lp3158
g62
(g63
g64
NtRp3159
(dp3160
g67
(dp3161
g75
I3
ssg76
g3155
sg69
(lp3162
g1693
asbasbasbag62
(g78
g64
NtRp3163
(dp3164
g67
(dp3165
sg76
g2484
sg69
(lp3166
g62
(g83
g64
NtRp3167
(dp3168
g67
(dp3169
g87
g88
ssg76
g3163
sg69
(lp3170
S'wsgi.run_once'
p3171
asbag62
(g83
g64
NtRp3172
(dp3173
g67
(dp3174
g94
g95
ssg76
g3163
sg69
(lp3175
S':'
asbag62
(g83
g64
NtRp3176
(dp3177
g67
(dp3178
sg76
g3163
sg69
(lp3179
g62
(g63
g64
NtRp3180
(dp3181
g67
(dp3182
g75
I3
ssg76
g3176
sg69
(lp3183
g105
asbasbasbag62
(g78
g64
NtRp3184
(dp3185
g67
(dp3186
sg76
g2484
sg69
(lp3187
g62
(g83
g64
NtRp3188
(dp3189
g67
(dp3190
g87
g88
ssg76
g3184
sg69
(lp3191
S'wsgi.url_scheme'
p3192
asbag62
(g83
g64
NtRp3193
(dp3194
g67
(dp3195
g94
g95
ssg76
g3184
sg69
(lp3196
S':'
asbag62
(g83
g64
NtRp3197
(dp3198
g67
(dp3199
sg76
g3184
sg69
(lp3200
g62
(g63
g64
NtRp3201
(dp3202
g67
(dp3203
g75
I3
ssg76
g3197
sg69
(lp3204
g1736
asbasbasbag62
(g78
g64
NtRp3205
(dp3206
g67
(dp3207
sg76
g2484
sg69
(lp3208
g62
(g83
g64
NtRp3209
(dp3210
g67
(dp3211
g87
g88
ssg76
g3205
sg69
(lp3212
S'wsgi.version'
p3213
asbag62
(g83
g64
NtRp3214
(dp3215
g67
(dp3216
g94
g95
ssg76
g3205
sg69
(lp3217
S':'
asbag62
(g83
g64
NtRp3218
(dp3219
g67
(dp3220
sg76
g3205
sg69
(lp3221
g62
(g63
g64
NtRp3222
(dp3223
g67
(dp3224
g75
I3
ssg76
g3218
sg69
(lp3225
S'1'
asbasbasbasbasbasbasbasbasbasbasbasbasbsS'frames'
p3226
(lp3227
(dp3228
S'file'
p3229
S'C:\\Users\\admin\\Desktop\\Sathvik\\Tharuni.Org\\gluon\\restricted.py'
p3230
sS'dump'
p3231
(dp3232
S'environment'
p3233
S"{'A': <class 'gluon.html.A'>, 'ALLOW_TOGGLE': 'true', 'A_button': <function A_button>, 'B': <class 'gluon.html.B'>, 'BEAUTIFY': <class 'gluon.html.BEAUTIFY'>, 'BODY': <class 'gluon.html.BODY'>, 'BR': <class 'gluon.html.BR'>, 'BUTTON': <class 'gluon.html.BUTTON'>, 'CAT': <class 'gluon.html.CAT'>, 'CENTER': <class 'gluon.html.CENTER'>, ...}"
p3234
sS'ccode'
p3235
S'<code object <module> at 0000000003958130, file ...pplications\\admin\\controllers/wizard.py", line 3>'
p3236
ssS'lnum'
p3237
I209
sS'lines'
p3238
(dp3239
I204
S'    try:'
p3240
sI205
S'        if type(code) == types.CodeType:'
p3241
sI206
S'            ccode = code'
p3242
sI207
S'        else:'
p3243
sI208
S'            ccode = compile2(code,layer)'
p3244
sI209
S'        exec ccode in environment'
p3245
sI210
S'    except HTTP:'
p3246
sI211
S'        raise'
p3247
sI212
S'    except RestrictedError:'
p3248
sI213
S'        # do not encapsulate (obfuscate) the original RestrictedError'
p3249
ssS'call'
p3250
S"(code='# -*- coding: utf-8 -*-\\n\\nimport os, uuid, re, pi...(file)\\n\\n\\n\\nresponse._vars=response._caller(step6)\\n', environment={'A': <class 'gluon.html.A'>, 'ALLOW_TOGGLE': 'true', 'A_button': <function A_button>, 'B': <class 'gluon.html.B'>, 'BEAUTIFY': <class 'gluon.html.BEAUTIFY'>, 'BODY': <class 'gluon.html.BODY'>, 'BR': <class 'gluon.html.BR'>, 'BUTTON': <class 'gluon.html.BUTTON'>, 'CAT': <class 'gluon.html.CAT'>, 'CENTER': <class 'gluon.html.CENTER'>, ...}, layer=r'C:\\Users\\admin\\Desktop\\Sathvik\\Tharuni.Org\\applications\\admin\\controllers/wizard.py')"
p3251
sS'func'
p3252
S'restricted'
p3253
sa(dp3254
g3229
S'C:\\Users\\admin\\Desktop\\Sathvik\\Tharuni.Org\\applications\\admin\\controllers\\wizard.py'
p3255
sg3231
(dp3256
sg3237
I560
sg3238
(dp3257
I549
S"                file.write(make_view(page,session.app.get('page_'+page,'')))"
p3258
sI550
S'            finally:'
p3259
sI551
S'                file.close()'
p3260
sI552
S''
sI553
S'    if options.erase_database:'
p3261
sI554
S"        path = os.path.join(request.folder,'..',app,'databases','*')"
p3262
sI555
S'        for file in glob.glob(path):'
p3263
sI556
S'            os.unlink(file)'
p3264
sI557
S''
sI558
S''
ssg3250
S'()'
p3265
sg3252
S'<module>'
p3266
sa(dp3267
g3229
S'C:\\Users\\admin\\Desktop\\Sathvik\\Tharuni.Org\\gluon\\globals.py'
p3268
sg3231
(dp3269
S'self'
p3270
S'undefined'
p3271
sS'f'
S'<function step6>'
p3272
ssg3237
I186
sg3238
(dp3273
I181
S'        self.menu = []             # used by the default view layout'
p3274
sI182
S'        self.files = []            # used by web2py_ajax.html'
p3275
sI183
S'        self.generic_patterns = [] # patterns to allow generic views'
p3276
sI184
S"        self.delimiters = ('{{','}}')"
p3277
sI185
S'        self._vars = None'
p3278
sI186
S'        self._caller = lambda f: f()'
p3279
sI187
S'        self._view_environment = None'
p3280
sI188
S'        self._custom_commit = None'
p3281
sI189
S'        self._custom_rollback = None'
p3282
sI190
S''
ssg3250
S'(f=<function step6>)'
p3283
sg3252
S'<lambda>'
p3284
sa(dp3285
g3229
S'C:\\Users\\admin\\Desktop\\Sathvik\\Tharuni.Org\\applications\\admin\\controllers\\wizard.py'
p3286
sg3231
(dp3287
S'global create'
p3288
S'<function create>'
p3289
sS'form.vars'
p3290
S"<Storage {'generate_menu': False, 'apply_layout'...: False, 'id': None, 'populate_database': False}>"
p3291
sS'form'
p3292
S'<gluon.sqlhtml.SQLFORM object>'
p3293
ssg3237
I228
sg3238
(dp3294
I224
S'    if form.accepts(request.vars):'
p3295
sI225
S'        if DEMO_MODE:'
p3296
sI226
S"            session.flash = T('Application cannot be generated in demo mode')"
p3297
sI227
S"            redirect(URL('index'))"
p3298
sI228
S'        create(form.vars)'
p3299
sI229
S"        session.flash = 'Application %s created' % app"
p3300
sI230
S"        redirect(URL('generated'))"
p3301
sI231
S'    return dict(step=\'6: Generate app "%s"\' % app,form=form)'
p3302
sI232
S''
sI223
S"        Field('populate_database','boolean',default=True))"
p3303
ssg3250
S'()'
p3304
sg3252
S'step6'
p3305
sa(dp3306
g3229
S'C:\\Users\\admin\\Desktop\\Sathvik\\Tharuni.Org\\applications\\admin\\controllers\\wizard.py'
p3307
sg3231
(dp3308
S'model'
p3309
S"r'C:\\Users\\admin\\Desktop\\Sathvik\\Tharuni.Org\\applications\\admin\\..\\tharuni\\models\\db.py'"
p3310
sS'global fix_db'
p3311
S'<function fix_db>'
p3312
ssg3237
I501
sg3238
(dp3313
I496
S'        finally:'
p3314
sI497
S'            file.close()'
p3315
sI498
S''
sI499
S'    ### customize the auth_user table'
p3316
sI500
S"    model = os.path.join(request.folder,'..',app,'models','db.py')"
p3317
sI501
S'    fix_db(model)'
p3318
sI502
S''
sI503
S'    ### create newapp/models/db_wizard.py'
p3319
sI504
S'    if options.generate_model:'
p3320
sI505
S"        model = os.path.join(request.folder,'..',app,'models','db_wizard.py')"
p3321
ssg3250
S"(options=<Storage {'generate_menu': False, 'apply_layout'...: False, 'id': None, 'populate_database': False}>)"
p3322
sg3252
S'create'
p3323
sa(dp3324
g3229
S'C:\\Users\\admin\\Desktop\\Sathvik\\Tharuni.Org\\applications\\admin\\controllers\\wizard.py'
p3325
sg3231
(dp3326
S'content'
p3327
g3271
sS'global read_file'
p3328
S'<function read_file>'
p3329
sS'filename'
p3330
S"r'C:\\Users\\admin\\Desktop\\Sathvik\\Tharuni.Org\\applications\\admin\\..\\tharuni\\models\\db.py'"
p3331
ssg3237
I368
sg3238
(dp3332
I363
S'        s+="db.define_table(\'%s_archive\',db.%s,Field(\'current_record\',\'reference %s\',readable=False,writable=False))\\n" % (table,table,table)'
p3333
sI364
S'    return s'
p3334
sI365
S''
sI366
S'def fix_db(filename):'
p3335
sI367
S"    params = dict(session.app['params'])"
p3336
sI368
S"    content = read_file(filename,'rb')"
p3337
sI369
S"    if 'auth_user' in session.app['tables']:"
p3338
sI370
S"        auth_user = make_table('auth_user',session.app['table_auth_user'])"
p3339
sI371
S"        content = content.replace('sqlite://storage.sqlite',"
p3340
sI372
S"                                params['database_uri'])"
p3341
ssg3250
S"(filename=r'C:\\Users\\admin\\Desktop\\Sathvik\\Tharuni.Org\\applications\\admin\\..\\tharuni\\models\\db.py')"
p3342
sg3252
S'fix_db'
p3343
sa(dp3344
g3229
S'C:\\Users\\admin\\Desktop\\Sathvik\\Tharuni.Org\\gluon\\fileutils.py'
p3345
sg3231
(dp3346
S'builtinopen'
p3347
S'<built-in function open>'
p3348
sS'filename'
p3349
S"r'C:\\Users\\admin\\Desktop\\Sathvik\\Tharuni.Org\\applications\\admin\\..\\tharuni\\models\\db.py'"
p3350
sS'mode'
p3351
S"'rb'"
p3352
sS'f'
g3271
ssg3237
I55
sg3238
(dp3353
I50
S"    d = datetime.datetime.strptime(m.group('datetime'),'%Y-%m-%d %H:%M:%S')"
p3354
sI51
S'    return (a,b,c,d,s)'
p3355
sI52
S''
sI53
S"def read_file(filename, mode='r'):"
p3356
sI54
S'    "returns content from filename, making sure to close the file explicitly on exit."'
p3357
sI55
S'    f = open(filename, mode)'
p3358
sI56
S'    try:'
p3359
sI57
S'        return f.read()'
p3360
sI58
S'    finally:'
p3361
sI59
S'        f.close()'
p3362
ssg3250
S"(filename=r'C:\\Users\\admin\\Desktop\\Sathvik\\Tharuni.Org\\applications\\admin\\..\\tharuni\\models\\db.py', mode='rb')"
p3363
sg3252
S'read_file'
p3364
sasS'pyver'
p3365
S'Python 2.7.3: C:\\Python27\\python.exe'
p3366
sS'session'
p3367
g62
(g63
g64
NtRp3368
(dp3369
g67
(dp3370
sg69
(lp3371
g62
(g71
g64
NtRp3372
(dp3373
g67
(dp3374
g75
I5
ssg76
Nsg69
(lp3375
g62
(g78
g64
NtRp3376
(dp3377
g67
(dp3378
sg76
g3372
sg69
(lp3379
g62
(g83
g64
NtRp3380
(dp3381
g67
(dp3382
g87
g88
ssg76
g3376
sg69
(lp3383
S'app'
p3384
asbag62
(g83
g64
NtRp3385
(dp3386
g67
(dp3387
g94
g95
ssg76
g3376
sg69
(lp3388
S':'
asbag62
(g83
g64
NtRp3389
(dp3390
g67
(dp3391
sg76
g3376
sg69
(lp3392
g62
(g63
g64
NtRp3393
(dp3394
g67
(dp3395
g75
I5
ssg76
g3389
sg69
(lp3396
g62
(g71
g64
NtRp3397
(dp3398
g67
(dp3399
g75
I4
ssg76
Nsg69
(lp3400
g62
(g78
g64
NtRp3401
(dp3402
g67
(dp3403
sg76
g3397
sg69
(lp3404
g62
(g83
g64
NtRp3405
(dp3406
g67
(dp3407
g87
g88
ssg76
g3401
sg69
(lp3408
S'name'
p3409
asbag62
(g83
g64
NtRp3410
(dp3411
g67
(dp3412
g94
g95
ssg76
g3401
sg69
(lp3413
S':'
asbag62
(g83
g64
NtRp3414
(dp3415
g67
(dp3416
sg76
g3401
sg69
(lp3417
g62
(g63
g64
NtRp3418
(dp3419
g67
(dp3420
g75
I4
ssg76
g3414
sg69
(lp3421
S'tharuni'
p3422
asbasbasbag62
(g78
g64
NtRp3423
(dp3424
g67
(dp3425
sg76
g3397
sg69
(lp3426
g62
(g83
g64
NtRp3427
(dp3428
g67
(dp3429
g87
g88
ssg76
g3423
sg69
(lp3430
S'page_error'
p3431
asbag62
(g83
g64
NtRp3432
(dp3433
g67
(dp3434
g94
g95
ssg76
g3423
sg69
(lp3435
S':'
asbag62
(g83
g64
NtRp3436
(dp3437
g67
(dp3438
sg76
g3423
sg69
(lp3439
g62
(g63
g64
NtRp3440
(dp3441
g67
(dp3442
g75
I4
ssg76
g3436
sg69
(lp3443
S'# Error: the document does not exist'
p3444
asbasbasbag62
(g78
g64
NtRp3445
(dp3446
g67
(dp3447
sg76
g3397
sg69
(lp3448
g62
(g83
g64
NtRp3449
(dp3450
g67
(dp3451
g87
g88
ssg76
g3445
sg69
(lp3452
S'page_index'
p3453
asbag62
(g83
g64
NtRp3454
(dp3455
g67
(dp3456
g94
g95
ssg76
g3445
sg69
(lp3457
S':'
asbag62
(g83
g64
NtRp3458
(dp3459
g67
(dp3460
sg76
g3445
sg69
(lp3461
g62
(g63
g64
NtRp3462
(dp3463
g67
(dp3464
g75
I4
ssg76
g3458
sg69
(lp3465
S'# Welcome to my new app'
p3466
asbasbasbag62
(g78
g64
NtRp3467
(dp3468
g67
(dp3469
sg76
g3397
sg69
(lp3470
g62
(g83
g64
NtRp3471
(dp3472
g67
(dp3473
g87
g88
ssg76
g3467
sg69
(lp3474
S'pages'
p3475
asbag62
(g83
g64
NtRp3476
(dp3477
g67
(dp3478
g94
g95
ssg76
g3467
sg69
(lp3479
S':'
asbag62
(g83
g64
NtRp3480
(dp3481
g67
(dp3482
sg76
g3467
sg69
(lp3483
g62
(g63
g64
NtRp3484
(dp3485
g67
(dp3486
g75
I4
ssg76
g3480
sg69
(lp3487
g62
(g71
g64
NtRp3488
(dp3489
g67
(dp3490
g75
I3
ssg76
Nsg69
(lp3491
sbasbasbasbag62
(g78
g64
NtRp3492
(dp3493
g67
(dp3494
sg76
g3397
sg69
(lp3495
g62
(g83
g64
NtRp3496
(dp3497
g67
(dp3498
g87
g88
ssg76
g3492
sg69
(lp3499
S'params'
p3500
asbag62
(g83
g64
NtRp3501
(dp3502
g67
(dp3503
g94
g95
ssg76
g3492
sg69
(lp3504
S':'
asbag62
(g83
g64
NtRp3505
(dp3506
g67
(dp3507
sg76
g3492
sg69
(lp3508
g62
(g63
g64
NtRp3509
(dp3510
g67
(dp3511
g75
I4
ssg76
g3505
sg69
(lp3512
g62
(g71
g64
NtRp3513
(dp3514
g67
(dp3515
g75
I3
ssg76
Nsg69
(lp3516
g62
(g78
g64
NtRp3517
(dp3518
g67
(dp3519
sg76
g3513
sg69
(lp3520
g62
(g83
g64
NtRp3521
(dp3522
g67
(dp3523
sg76
g3517
sg69
(lp3524
g62
(g63
g64
NtRp3525
(dp3526
g67
(dp3527
g75
I3
ssg76
g3521
sg69
(lp3528
g62
(g71
g64
NtRp3529
(dp3530
g67
(dp3531
g75
I2
ssg76
Nsg69
(lp3532
g62
(g78
g64
NtRp3533
(dp3534
g67
(dp3535
sg76
g3529
sg69
(lp3536
g62
(g83
g64
NtRp3537
(dp3538
g67
(dp3539
sg76
g3533
sg69
(lp3540
g62
(g63
g64
NtRp3541
(dp3542
g67
(dp3543
g75
I2
ssg76
g3537
sg69
(lp3544
S'title'
p3545
asbasbasbag62
(g78
g64
NtRp3546
(dp3547
g67
(dp3548
sg76
g3529
sg69
(lp3549
g62
(g83
g64
NtRp3550
(dp3551
g67
(dp3552
sg76
g3546
sg69
(lp3553
g62
(g63
g64
NtRp3554
(dp3555
g67
(dp3556
g75
I2
ssg76
g3550
sg69
(lp3557
S'Tharuni'
p3558
asbasbasbasbasbasbasbag62
(g78
g64
NtRp3559
(dp3560
g67
(dp3561
sg76
g3513
sg69
(lp3562
g62
(g83
g64
NtRp3563
(dp3564
g67
(dp3565
sg76
g3559
sg69
(lp3566
g62
(g63
g64
NtRp3567
(dp3568
g67
(dp3569
g75
I3
ssg76
g3563
sg69
(lp3570
g62
(g71
g64
NtRp3571
(dp3572
g67
(dp3573
g75
I2
ssg76
Nsg69
(lp3574
g62
(g78
g64
NtRp3575
(dp3576
g67
(dp3577
sg76
g3571
sg69
(lp3578
g62
(g83
g64
NtRp3579
(dp3580
g67
(dp3581
sg76
g3575
sg69
(lp3582
g62
(g63
g64
NtRp3583
(dp3584
g67
(dp3585
g75
I2
ssg76
g3579
sg69
(lp3586
S'subtitle'
p3587
asbasbasbag62
(g78
g64
NtRp3588
(dp3589
g67
(dp3590
sg76
g3571
sg69
(lp3591
g62
(g83
g64
NtRp3592
(dp3593
g67
(dp3594
sg76
g3588
sg69
(lp3595
g62
(g63
g64
NtRp3596
(dp3597
g67
(dp3598
g75
I2
ssg76
g3592
sg69
(lp3599
S'Working towards Empowerment of Adolescent Girls Women and the Aged'
p3600
asbasbasbasbasbasbasbag62
(g78
g64
NtRp3601
(dp3602
g67
(dp3603
sg76
g3513
sg69
(lp3604
g62
(g83
g64
NtRp3605
(dp3606
g67
(dp3607
sg76
g3601
sg69
(lp3608
g62
(g63
g64
NtRp3609
(dp3610
g67
(dp3611
g75
I3
ssg76
g3605
sg69
(lp3612
g62
(g71
g64
NtRp3613
(dp3614
g67
(dp3615
g75
I2
ssg76
Nsg69
(lp3616
g62
(g78
g64
NtRp3617
(dp3618
g67
(dp3619
sg76
g3613
sg69
(lp3620
g62
(g83
g64
NtRp3621
(dp3622
g67
(dp3623
sg76
g3617
sg69
(lp3624
g62
(g63
g64
NtRp3625
(dp3626
g67
(dp3627
g75
I2
ssg76
g3621
sg69
(lp3628
S'author'
p3629
asbasbasbag62
(g78
g64
NtRp3630
(dp3631
g67
(dp3632
sg76
g3613
sg69
(lp3633
g62
(g83
g64
NtRp3634
(dp3635
g67
(dp3636
sg76
g3630
sg69
(lp3637
g62
(g63
g64
NtRp3638
(dp3639
g67
(dp3640
g75
I2
ssg76
g3634
sg69
(lp3641
S"Doers' Guild"
p3642
asbasbasbasbasbasbasbag62
(g78
g64
NtRp3643
(dp3644
g67
(dp3645
sg76
g3513
sg69
(lp3646
g62
(g83
g64
NtRp3647
(dp3648
g67
(dp3649
sg76
g3643
sg69
(lp3650
g62
(g63
g64
NtRp3651
(dp3652
g67
(dp3653
g75
I3
ssg76
g3647
sg69
(lp3654
g62
(g71
g64
NtRp3655
(dp3656
g67
(dp3657
g75
I2
ssg76
Nsg69
(lp3658
g62
(g78
g64
NtRp3659
(dp3660
g67
(dp3661
sg76
g3655
sg69
(lp3662
g62
(g83
g64
NtRp3663
(dp3664
g67
(dp3665
sg76
g3659
sg69
(lp3666
g62
(g63
g64
NtRp3667
(dp3668
g67
(dp3669
g75
I2
ssg76
g3663
sg69
(lp3670
S'author_email'
p3671
asbasbasbag62
(g78
g64
NtRp3672
(dp3673
g67
(dp3674
sg76
g3655
sg69
(lp3675
g62
(g83
g64
NtRp3676
(dp3677
g67
(dp3678
sg76
g3672
sg69
(lp3679
g62
(g63
g64
NtRp3680
(dp3681
g67
(dp3682
g75
I2
ssg76
g3676
sg69
(lp3683
S'mail@doersguild.com'
p3684
asbasbasbasbasbasbasbag62
(g78
g64
NtRp3685
(dp3686
g67
(dp3687
sg76
g3513
sg69
(lp3688
g62
(g83
g64
NtRp3689
(dp3690
g67
(dp3691
sg76
g3685
sg69
(lp3692
g62
(g63
g64
NtRp3693
(dp3694
g67
(dp3695
g75
I3
ssg76
g3689
sg69
(lp3696
g62
(g71
g64
NtRp3697
(dp3698
g67
(dp3699
g75
I2
ssg76
Nsg69
(lp3700
g62
(g78
g64
NtRp3701
(dp3702
g67
(dp3703
sg76
g3697
sg69
(lp3704
g62
(g83
g64
NtRp3705
(dp3706
g67
(dp3707
sg76
g3701
sg69
(lp3708
g62
(g63
g64
NtRp3709
(dp3710
g67
(dp3711
g75
I2
ssg76
g3705
sg69
(lp3712
S'keywords'
p3713
asbasbasbag62
(g78
g64
NtRp3714
(dp3715
g67
(dp3716
sg76
g3697
sg69
(lp3717
g62
(g83
g64
NtRp3718
(dp3719
g67
(dp3720
sg76
g3714
sg69
(lp3721
g62
(g63
g64
NtRp3722
(dp3723
g67
(dp3724
g75
I2
ssg76
g3718
sg69
(lp3725
S''
asbasbasbasbasbasbasbag62
(g78
g64
NtRp3726
(dp3727
g67
(dp3728
sg76
g3513
sg69
(lp3729
g62
(g83
g64
NtRp3730
(dp3731
g67
(dp3732
sg76
g3726
sg69
(lp3733
g62
(g63
g64
NtRp3734
(dp3735
g67
(dp3736
g75
I3
ssg76
g3730
sg69
(lp3737
g62
(g71
g64
NtRp3738
(dp3739
g67
(dp3740
g75
I2
ssg76
Nsg69
(lp3741
g62
(g78
g64
NtRp3742
(dp3743
g67
(dp3744
sg76
g3738
sg69
(lp3745
g62
(g83
g64
NtRp3746
(dp3747
g67
(dp3748
sg76
g3742
sg69
(lp3749
g62
(g63
g64
NtRp3750
(dp3751
g67
(dp3752
g75
I2
ssg76
g3746
sg69
(lp3753
S'description'
p3754
asbasbasbag62
(g78
g64
NtRp3755
(dp3756
g67
(dp3757
sg76
g3738
sg69
(lp3758
g62
(g83
g64
NtRp3759
(dp3760
g67
(dp3761
sg76
g3755
sg69
(lp3762
g62
(g63
g64
NtRp3763
(dp3764
g67
(dp3765
g75
I2
ssg76
g3759
sg69
(lp3766
S'A Non-Profit Working towards Empowerment of Adolescent Girls Women and the Aged'
p3767
asbasbasbasbasbasbasbag62
(g78
g64
NtRp3768
(dp3769
g67
(dp3770
sg76
g3513
sg69
(lp3771
g62
(g83
g64
NtRp3772
(dp3773
g67
(dp3774
sg76
g3768
sg69
(lp3775
g62
(g63
g64
NtRp3776
(dp3777
g67
(dp3778
g75
I3
ssg76
g3772
sg69
(lp3779
g62
(g71
g64
NtRp3780
(dp3781
g67
(dp3782
g75
I2
ssg76
Nsg69
(lp3783
g62
(g78
g64
NtRp3784
(dp3785
g67
(dp3786
sg76
g3780
sg69
(lp3787
g62
(g83
g64
NtRp3788
(dp3789
g67
(dp3790
sg76
g3784
sg69
(lp3791
g62
(g63
g64
NtRp3792
(dp3793
g67
(dp3794
g75
I2
ssg76
g3788
sg69
(lp3795
S'layout_theme'
p3796
asbasbasbag62
(g78
g64
NtRp3797
(dp3798
g67
(dp3799
sg76
g3780
sg69
(lp3800
g62
(g83
g64
NtRp3801
(dp3802
g67
(dp3803
sg76
g3797
sg69
(lp3804
g62
(g63
g64
NtRp3805
(dp3806
g67
(dp3807
g75
I2
ssg76
g3801
sg69
(lp3808
S'BlueStatic'
p3809
asbasbasbasbasbasbasbag62
(g78
g64
NtRp3810
(dp3811
g67
(dp3812
sg76
g3513
sg69
(lp3813
g62
(g83
g64
NtRp3814
(dp3815
g67
(dp3816
sg76
g3810
sg69
(lp3817
g62
(g63
g64
NtRp3818
(dp3819
g67
(dp3820
g75
I3
ssg76
g3814
sg69
(lp3821
g62
(g71
g64
NtRp3822
(dp3823
g67
(dp3824
g75
I2
ssg76
Nsg69
(lp3825
g62
(g78
g64
NtRp3826
(dp3827
g67
(dp3828
sg76
g3822
sg69
(lp3829
g62
(g83
g64
NtRp3830
(dp3831
g67
(dp3832
sg76
g3826
sg69
(lp3833
g62
(g63
g64
NtRp3834
(dp3835
g67
(dp3836
g75
I2
ssg76
g3830
sg69
(lp3837
S'database_uri'
p3838
asbasbasbag62
(g78
g64
NtRp3839
(dp3840
g67
(dp3841
sg76
g3822
sg69
(lp3842
g62
(g83
g64
NtRp3843
(dp3844
g67
(dp3845
sg76
g3839
sg69
(lp3846
g62
(g63
g64
NtRp3847
(dp3848
g67
(dp3849
g75
I2
ssg76
g3843
sg69
(lp3850
S'sqlite://storage.sqlite'
p3851
asbasbasbasbasbasbasbag62
(g78
g64
NtRp3852
(dp3853
g67
(dp3854
sg76
g3513
sg69
(lp3855
g62
(g83
g64
NtRp3856
(dp3857
g67
(dp3858
sg76
g3852
sg69
(lp3859
g62
(g63
g64
NtRp3860
(dp3861
g67
(dp3862
g75
I3
ssg76
g3856
sg69
(lp3863
g62
(g71
g64
NtRp3864
(dp3865
g67
(dp3866
g75
I2
ssg76
Nsg69
(lp3867
g62
(g78
g64
NtRp3868
(dp3869
g67
(dp3870
sg76
g3864
sg69
(lp3871
g62
(g83
g64
NtRp3872
(dp3873
g67
(dp3874
sg76
g3868
sg69
(lp3875
g62
(g63
g64
NtRp3876
(dp3877
g67
(dp3878
g75
I2
ssg76
g3872
sg69
(lp3879
S'security_key'
p3880
asbasbasbag62
(g78
g64
NtRp3881
(dp3882
g67
(dp3883
sg76
g3864
sg69
(lp3884
g62
(g83
g64
NtRp3885
(dp3886
g67
(dp3887
sg76
g3881
sg69
(lp3888
g62
(g63
g64
NtRp3889
(dp3890
g67
(dp3891
g75
I2
ssg76
g3885
sg69
(lp3892
S'f6dbea65-c4fd-4fb4-a8ad-aea0d551aee6'
p3893
asbasbasbasbasbasbasbag62
(g78
g64
NtRp3894
(dp3895
g67
(dp3896
sg76
g3513
sg69
(lp3897
g62
(g83
g64
NtRp3898
(dp3899
g67
(dp3900
sg76
g3894
sg69
(lp3901
g62
(g63
g64
NtRp3902
(dp3903
g67
(dp3904
g75
I3
ssg76
g3898
sg69
(lp3905
g62
(g71
g64
NtRp3906
(dp3907
g67
(dp3908
g75
I2
ssg76
Nsg69
(lp3909
g62
(g78
g64
NtRp3910
(dp3911
g67
(dp3912
sg76
g3906
sg69
(lp3913
g62
(g83
g64
NtRp3914
(dp3915
g67
(dp3916
sg76
g3910
sg69
(lp3917
g62
(g63
g64
NtRp3918
(dp3919
g67
(dp3920
g75
I2
ssg76
g3914
sg69
(lp3921
S'email_server'
p3922
asbasbasbag62
(g78
g64
NtRp3923
(dp3924
g67
(dp3925
sg76
g3906
sg69
(lp3926
g62
(g83
g64
NtRp3927
(dp3928
g67
(dp3929
sg76
g3923
sg69
(lp3930
g62
(g63
g64
NtRp3931
(dp3932
g67
(dp3933
g75
I2
ssg76
g3927
sg69
(lp3934
S'localhost'
p3935
asbasbasbasbasbasbasbag62
(g78
g64
NtRp3936
(dp3937
g67
(dp3938
sg76
g3513
sg69
(lp3939
g62
(g83
g64
NtRp3940
(dp3941
g67
(dp3942
sg76
g3936
sg69
(lp3943
g62
(g63
g64
NtRp3944
(dp3945
g67
(dp3946
g75
I3
ssg76
g3940
sg69
(lp3947
g62
(g71
g64
NtRp3948
(dp3949
g67
(dp3950
g75
I2
ssg76
Nsg69
(lp3951
g62
(g78
g64
NtRp3952
(dp3953
g67
(dp3954
sg76
g3948
sg69
(lp3955
g62
(g83
g64
NtRp3956
(dp3957
g67
(dp3958
sg76
g3952
sg69
(lp3959
g62
(g63
g64
NtRp3960
(dp3961
g67
(dp3962
g75
I2
ssg76
g3956
sg69
(lp3963
S'email_sender'
p3964
asbasbasbag62
(g78
g64
NtRp3965
(dp3966
g67
(dp3967
sg76
g3948
sg69
(lp3968
g62
(g83
g64
NtRp3969
(dp3970
g67
(dp3971
sg76
g3965
sg69
(lp3972
g62
(g63
g64
NtRp3973
(dp3974
g67
(dp3975
g75
I2
ssg76
g3969
sg69
(lp3976
S'you@example.com'
p3977
asbasbasbasbasbasbasbag62
(g78
g64
NtRp3978
(dp3979
g67
(dp3980
sg76
g3513
sg69
(lp3981
g62
(g83
g64
NtRp3982
(dp3983
g67
(dp3984
sg76
g3978
sg69
(lp3985
g62
(g63
g64
NtRp3986
(dp3987
g67
(dp3988
g75
I3
ssg76
g3982
sg69
(lp3989
g62
(g71
g64
NtRp3990
(dp3991
g67
(dp3992
g75
I2
ssg76
Nsg69
(lp3993
g62
(g78
g64
NtRp3994
(dp3995
g67
(dp3996
sg76
g3990
sg69
(lp3997
g62
(g83
g64
NtRp3998
(dp3999
g67
(dp4000
sg76
g3994
sg69
(lp4001
g62
(g63
g64
NtRp4002
(dp4003
g67
(dp4004
g75
I2
ssg76
g3998
sg69
(lp4005
S'email_login'
p4006
asbasbasbag62
(g78
g64
NtRp4007
(dp4008
g67
(dp4009
sg76
g3990
sg69
(lp4010
g62
(g83
g64
NtRp4011
(dp4012
g67
(dp4013
sg76
g4007
sg69
(lp4014
g62
(g63
g64
NtRp4015
(dp4016
g67
(dp4017
g75
I2
ssg76
g4011
sg69
(lp4018
S''
asbasbasbasbasbasbasbag62
(g78
g64
NtRp4019
(dp4020
g67
(dp4021
sg76
g3513
sg69
(lp4022
g62
(g83
g64
NtRp4023
(dp4024
g67
(dp4025
sg76
g4019
sg69
(lp4026
g62
(g63
g64
NtRp4027
(dp4028
g67
(dp4029
g75
I3
ssg76
g4023
sg69
(lp4030
g62
(g71
g64
NtRp4031
(dp4032
g67
(dp4033
g75
I2
ssg76
Nsg69
(lp4034
g62
(g78
g64
NtRp4035
(dp4036
g67
(dp4037
sg76
g4031
sg69
(lp4038
g62
(g83
g64
NtRp4039
(dp4040
g67
(dp4041
sg76
g4035
sg69
(lp4042
g62
(g63
g64
NtRp4043
(dp4044
g67
(dp4045
g75
I2
ssg76
g4039
sg69
(lp4046
S'login_method'
p4047
asbasbasbag62
(g78
g64
NtRp4048
(dp4049
g67
(dp4050
sg76
g4031
sg69
(lp4051
g62
(g83
g64
NtRp4052
(dp4053
g67
(dp4054
sg76
g4048
sg69
(lp4055
g62
(g63
g64
NtRp4056
(dp4057
g67
(dp4058
g75
I2
ssg76
g4052
sg69
(lp4059
S'local'
p4060
asbasbasbasbasbasbasbag62
(g78
g64
NtRp4061
(dp4062
g67
(dp4063
sg76
g3513
sg69
(lp4064
g62
(g83
g64
NtRp4065
(dp4066
g67
(dp4067
sg76
g4061
sg69
(lp4068
g62
(g63
g64
NtRp4069
(dp4070
g67
(dp4071
g75
I3
ssg76
g4065
sg69
(lp4072
g62
(g71
g64
NtRp4073
(dp4074
g67
(dp4075
g75
I2
ssg76
Nsg69
(lp4076
g62
(g78
g64
NtRp4077
(dp4078
g67
(dp4079
sg76
g4073
sg69
(lp4080
g62
(g83
g64
NtRp4081
(dp4082
g67
(dp4083
sg76
g4077
sg69
(lp4084
g62
(g63
g64
NtRp4085
(dp4086
g67
(dp4087
g75
I2
ssg76
g4081
sg69
(lp4088
S'login_config'
p4089
asbasbasbag62
(g78
g64
NtRp4090
(dp4091
g67
(dp4092
sg76
g4073
sg69
(lp4093
g62
(g83
g64
NtRp4094
(dp4095
g67
(dp4096
sg76
g4090
sg69
(lp4097
g62
(g63
g64
NtRp4098
(dp4099
g67
(dp4100
g75
I2
ssg76
g4094
sg69
(lp4101
S''
asbasbasbasbasbasbasbag62
(g78
g64
NtRp4102
(dp4103
g67
(dp4104
sg76
g3513
sg69
(lp4105
g62
(g83
g64
NtRp4106
(dp4107
g67
(dp4108
sg76
g4102
sg69
(lp4109
g62
(g63
g64
NtRp4110
(dp4111
g67
(dp4112
g75
I3
ssg76
g4106
sg69
(lp4113
g62
(g71
g64
NtRp4114
(dp4115
g67
(dp4116
g75
I2
ssg76
Nsg69
(lp4117
g62
(g78
g64
NtRp4118
(dp4119
g67
(dp4120
sg76
g4114
sg69
(lp4121
g62
(g83
g64
NtRp4122
(dp4123
g67
(dp4124
sg76
g4118
sg69
(lp4125
g62
(g63
g64
NtRp4126
(dp4127
g67
(dp4128
g75
I2
ssg76
g4122
sg69
(lp4129
S'plugins'
p4130
asbasbasbag62
(g78
g64
NtRp4131
(dp4132
g67
(dp4133
sg76
g4114
sg69
(lp4134
g62
(g83
g64
NtRp4135
(dp4136
g67
(dp4137
sg76
g4131
sg69
(lp4138
g62
(g63
g64
NtRp4139
(dp4140
g67
(dp4141
g75
I2
ssg76
g4135
sg69
(lp4142
g62
(g71
g64
NtRp4143
(dp4144
g67
(dp4145
g75
I1
ssg76
Nsg69
(lp4146
sbasbasbasbasbasbasbasbasbasbasbasbag62
(g78
g64
NtRp4147
(dp4148
g67
(dp4149
sg76
g3397
sg69
(lp4150
g62
(g83
g64
NtRp4151
(dp4152
g67
(dp4153
g87
g88
ssg76
g4147
sg69
(lp4154
S'table_auth_user'
p4155
asbag62
(g83
g64
NtRp4156
(dp4157
g67
(dp4158
g94
g95
ssg76
g4147
sg69
(lp4159
S':'
asbag62
(g83
g64
NtRp4160
(dp4161
g67
(dp4162
sg76
g4147
sg69
(lp4163
g62
(g63
g64
NtRp4164
(dp4165
g67
(dp4166
g75
I4
ssg76
g4160
sg69
(lp4167
g62
(g71
g64
NtRp4168
(dp4169
g67
(dp4170
g75
I3
ssg76
Nsg69
(lp4171
g62
(g78
g64
NtRp4172
(dp4173
g67
(dp4174
sg76
g4168
sg69
(lp4175
g62
(g83
g64
NtRp4176
(dp4177
g67
(dp4178
sg76
g4172
sg69
(lp4179
g62
(g63
g64
NtRp4180
(dp4181
g67
(dp4182
g75
I3
ssg76
g4176
sg69
(lp4183
S'username'
p4184
asbasbasbag62
(g78
g64
NtRp4185
(dp4186
g67
(dp4187
sg76
g4168
sg69
(lp4188
g62
(g83
g64
NtRp4189
(dp4190
g67
(dp4191
sg76
g4185
sg69
(lp4192
g62
(g63
g64
NtRp4193
(dp4194
g67
(dp4195
g75
I3
ssg76
g4189
sg69
(lp4196
S'first_name'
p4197
asbasbasbag62
(g78
g64
NtRp4198
(dp4199
g67
(dp4200
sg76
g4168
sg69
(lp4201
g62
(g83
g64
NtRp4202
(dp4203
g67
(dp4204
sg76
g4198
sg69
(lp4205
g62
(g63
g64
NtRp4206
(dp4207
g67
(dp4208
g75
I3
ssg76
g4202
sg69
(lp4209
S'last_name'
p4210
asbasbasbag62
(g78
g64
NtRp4211
(dp4212
g67
(dp4213
sg76
g4168
sg69
(lp4214
g62
(g83
g64
NtRp4215
(dp4216
g67
(dp4217
sg76
g4211
sg69
(lp4218
g62
(g63
g64
NtRp4219
(dp4220
g67
(dp4221
g75
I3
ssg76
g4215
sg69
(lp4222
S'email'
p4223
asbasbasbag62
(g78
g64
NtRp4224
(dp4225
g67
(dp4226
sg76
g4168
sg69
(lp4227
g62
(g83
g64
NtRp4228
(dp4229
g67
(dp4230
sg76
g4224
sg69
(lp4231
g62
(g63
g64
NtRp4232
(dp4233
g67
(dp4234
g75
I3
ssg76
g4228
sg69
(lp4235
S'password'
p4236
asbasbasbasbasbasbasbag62
(g78
g64
NtRp4237
(dp4238
g67
(dp4239
sg76
g3397
sg69
(lp4240
g62
(g83
g64
NtRp4241
(dp4242
g67
(dp4243
g87
g88
ssg76
g4237
sg69
(lp4244
S'tables'
p4245
asbag62
(g83
g64
NtRp4246
(dp4247
g67
(dp4248
g94
g95
ssg76
g4237
sg69
(lp4249
S':'
asbag62
(g83
g64
NtRp4250
(dp4251
g67
(dp4252
sg76
g4237
sg69
(lp4253
g62
(g63
g64
NtRp4254
(dp4255
g67
(dp4256
g75
I4
ssg76
g4250
sg69
(lp4257
g62
(g71
g64
NtRp4258
(dp4259
g67
(dp4260
g75
I3
ssg76
Nsg69
(lp4261
sbasbasbasbasbasbasbasbag62
(g78
g64
NtRp4262
(dp4263
g67
(dp4264
sg76
g3372
sg69
(lp4265
g62
(g83
g64
NtRp4266
(dp4267
g67
(dp4268
g87
g88
ssg76
g4262
sg69
(lp4269
S'authorized'
p4270
asbag62
(g83
g64
NtRp4271
(dp4272
g67
(dp4273
g94
g95
ssg76
g4262
sg69
(lp4274
S':'
asbag62
(g83
g64
NtRp4275
(dp4276
g67
(dp4277
sg76
g4262
sg69
(lp4278
g62
(g63
g64
NtRp4279
(dp4280
g67
(dp4281
g75
I5
ssg76
g4275
sg69
(lp4282
g1693
asbasbasbag62
(g78
g64
NtRp4283
(dp4284
g67
(dp4285
sg76
g3372
sg69
(lp4286
g62
(g83
g64
NtRp4287
(dp4288
g67
(dp4289
g87
g88
ssg76
g4283
sg69
(lp4290
S'check_version'
p4291
asbag62
(g83
g64
NtRp4292
(dp4293
g67
(dp4294
g94
g95
ssg76
g4283
sg69
(lp4295
S':'
asbag62
(g83
g64
NtRp4296
(dp4297
g67
(dp4298
sg76
g4283
sg69
(lp4299
g62
(g63
g64
NtRp4300
(dp4301
g67
(dp4302
g75
I5
ssg76
g4296
sg69
(lp4303
g105
asbasbasbag62
(g78
g64
NtRp4304
(dp4305
g67
(dp4306
sg76
g3372
sg69
(lp4307
g62
(g83
g64
NtRp4308
(dp4309
g67
(dp4310
g87
g88
ssg76
g4304
sg69
(lp4311
S'flash'
p4312
asbag62
(g83
g64
NtRp4313
(dp4314
g67
(dp4315
g94
g95
ssg76
g4304
sg69
(lp4316
S':'
asbag62
(g83
g64
NtRp4317
(dp4318
g67
(dp4319
sg76
g4304
sg69
(lp4320
g62
(g63
g64
NtRp4321
(dp4322
g67
(dp4323
g75
I5
ssg76
g4317
sg69
(lp4324
S'None'
p4325
asbasbasbag62
(g78
g64
NtRp4326
(dp4327
g67
(dp4328
sg76
g3372
sg69
(lp4329
g62
(g83
g64
NtRp4330
(dp4331
g67
(dp4332
g87
g88
ssg76
g4326
sg69
(lp4333
S'last_time'
p4334
asbag62
(g83
g64
NtRp4335
(dp4336
g67
(dp4337
g94
g95
ssg76
g4326
sg69
(lp4338
S':'
asbag62
(g83
g64
NtRp4339
(dp4340
g67
(dp4341
sg76
g4326
sg69
(lp4342
g62
(g63
g64
NtRp4343
(dp4344
g67
(dp4345
g75
I5
ssg76
g4339
sg69
(lp4346
S'1350210379.979'
p4347
asbasbasbag62
(g78
g64
NtRp4348
(dp4349
g67
(dp4350
sg76
g3372
sg69
(lp4351
g62
(g83
g64
NtRp4352
(dp4353
g67
(dp4354
g87
g88
ssg76
g4348
sg69
(lp4355
S'pam_user'
p4356
asbag62
(g83
g64
NtRp4357
(dp4358
g67
(dp4359
g94
g95
ssg76
g4348
sg69
(lp4360
S':'
asbag62
(g83
g64
NtRp4361
(dp4362
g67
(dp4363
sg76
g4348
sg69
(lp4364
g62
(g63
g64
NtRp4365
(dp4366
g67
(dp4367
g75
I5
ssg76
g4361
sg69
(lp4368
S'None'
p4369
asbasbasbag62
(g78
g64
NtRp4370
(dp4371
g67
(dp4372
sg76
g3372
sg69
(lp4373
g62
(g83
g64
NtRp4374
(dp4375
g67
(dp4376
g87
g88
ssg76
g4370
sg69
(lp4377
S'plugins'
p4378
asbag62
(g83
g64
NtRp4379
(dp4380
g67
(dp4381
g94
g95
ssg76
g4370
sg69
(lp4382
S':'
asbag62
(g83
g64
NtRp4383
(dp4384
g67
(dp4385
sg76
g4370
sg69
(lp4386
g62
(g63
g64
NtRp4387
(dp4388
g67
(dp4389
g75
I5
ssg76
g4383
sg69
(lp4390
g62
(g71
g64
NtRp4391
(dp4392
g67
(dp4393
g75
I4
ssg76
Nsg69
(lp4394
g62
(g78
g64
NtRp4395
(dp4396
g67
(dp4397
sg76
g4391
sg69
(lp4398
g62
(g83
g64
NtRp4399
(dp4400
g67
(dp4401
sg76
g4395
sg69
(lp4402
g62
(g63
g64
NtRp4403
(dp4404
g67
(dp4405
g75
I4
ssg76
g4399
sg69
(lp4406
S'web2py.plugin.attachments.w2p'
p4407
asbasbasbag62
(g78
g64
NtRp4408
(dp4409
g67
(dp4410
sg76
g4391
sg69
(lp4411
g62
(g83
g64
NtRp4412
(dp4413
g67
(dp4414
sg76
g4408
sg69
(lp4415
g62
(g63
g64
NtRp4416
(dp4417
g67
(dp4418
g75
I4
ssg76
g4412
sg69
(lp4419
S'web2py.plugin.datatable.w2p'
p4420
asbasbasbag62
(g78
g64
NtRp4421
(dp4422
g67
(dp4423
sg76
g4391
sg69
(lp4424
g62
(g83
g64
NtRp4425
(dp4426
g67
(dp4427
sg76
g4421
sg69
(lp4428
g62
(g63
g64
NtRp4429
(dp4430
g67
(dp4431
g75
I4
ssg76
g4425
sg69
(lp4432
S'web2py.plugin.dropdown.w2p'
p4433
asbasbasbag62
(g78
g64
NtRp4434
(dp4435
g67
(dp4436
sg76
g4391
sg69
(lp4437
g62
(g83
g64
NtRp4438
(dp4439
g67
(dp4440
sg76
g4434
sg69
(lp4441
g62
(g63
g64
NtRp4442
(dp4443
g67
(dp4444
g75
I4
ssg76
g4438
sg69
(lp4445
S'web2py.plugin.wiki.w2p'
p4446
asbasbasbag62
(g78
g64
NtRp4447
(dp4448
g67
(dp4449
sg76
g4391
sg69
(lp4450
g62
(g83
g64
NtRp4451
(dp4452
g67
(dp4453
sg76
g4447
sg69
(lp4454
g62
(g63
g64
NtRp4455
(dp4456
g67
(dp4457
g75
I4
ssg76
g4451
sg69
(lp4458
S'web2py.plugin.comments.w2p'
p4459
asbasbasbag62
(g78
g64
NtRp4460
(dp4461
g67
(dp4462
sg76
g4391
sg69
(lp4463
g62
(g83
g64
NtRp4464
(dp4465
g67
(dp4466
sg76
g4460
sg69
(lp4467
g62
(g63
g64
NtRp4468
(dp4469
g67
(dp4470
g75
I4
ssg76
g4464
sg69
(lp4471
S'web2py.plugin.locking.w2p'
p4472
asbasbasbag62
(g78
g64
NtRp4473
(dp4474
g67
(dp4475
sg76
g4391
sg69
(lp4476
g62
(g83
g64
NtRp4477
(dp4478
g67
(dp4479
sg76
g4473
sg69
(lp4480
g62
(g63
g64
NtRp4481
(dp4482
g67
(dp4483
g75
I4
ssg76
g4477
sg69
(lp4484
S'web2py.plugin.mmodal.w2p'
p4485
asbasbasbag62
(g78
g64
NtRp4486
(dp4487
g67
(dp4488
sg76
g4391
sg69
(lp4489
g62
(g83
g64
NtRp4490
(dp4491
g67
(dp4492
sg76
g4486
sg69
(lp4493
g62
(g63
g64
NtRp4494
(dp4495
g67
(dp4496
g75
I4
ssg76
g4490
sg69
(lp4497
S'web2py.plugin.jqmobile.w2p'
p4498
asbasbasbag62
(g78
g64
NtRp4499
(dp4500
g67
(dp4501
sg76
g4391
sg69
(lp4502
g62
(g83
g64
NtRp4503
(dp4504
g67
(dp4505
sg76
g4499
sg69
(lp4506
g62
(g63
g64
NtRp4507
(dp4508
g67
(dp4509
g75
I4
ssg76
g4503
sg69
(lp4510
S'web2py.plugin.google_checkout.w2p'
p4511
asbasbasbag62
(g78
g64
NtRp4512
(dp4513
g67
(dp4514
sg76
g4391
sg69
(lp4515
g62
(g83
g64
NtRp4516
(dp4517
g67
(dp4518
sg76
g4512
sg69
(lp4519
g62
(g63
g64
NtRp4520
(dp4521
g67
(dp4522
g75
I4
ssg76
g4516
sg69
(lp4523
S'web2py.plugin.tagging.w2p'
p4524
asbasbasbag62
(g78
g64
NtRp4525
(dp4526
g67
(dp4527
sg76
g4391
sg69
(lp4528
g62
(g83
g64
NtRp4529
(dp4530
g67
(dp4531
sg76
g4525
sg69
(lp4532
g62
(g63
g64
NtRp4533
(dp4534
g67
(dp4535
g75
I4
ssg76
g4529
sg69
(lp4536
S'web2py.plugin.mediaplayer.w2p'
p4537
asbasbasbag62
(g78
g64
NtRp4538
(dp4539
g67
(dp4540
sg76
g4391
sg69
(lp4541
g62
(g83
g64
NtRp4542
(dp4543
g67
(dp4544
sg76
g4538
sg69
(lp4545
g62
(g63
g64
NtRp4546
(dp4547
g67
(dp4548
g75
I4
ssg76
g4542
sg69
(lp4549
S'web2py.plugin.latex.w2p'
p4550
asbasbasbag62
(g78
g64
NtRp4551
(dp4552
g67
(dp4553
sg76
g4391
sg69
(lp4554
g62
(g83
g64
NtRp4555
(dp4556
g67
(dp4557
sg76
g4551
sg69
(lp4558
g62
(g63
g64
NtRp4559
(dp4560
g67
(dp4561
g75
I4
ssg76
g4555
sg69
(lp4562
S'web2py.plugin.clickatell.w2p'
p4563
asbasbasbag62
(g78
g64
NtRp4564
(dp4565
g67
(dp4566
sg76
g4391
sg69
(lp4567
g62
(g83
g64
NtRp4568
(dp4569
g67
(dp4570
sg76
g4564
sg69
(lp4571
g62
(g63
g64
NtRp4572
(dp4573
g67
(dp4574
g75
I4
ssg76
g4568
sg69
(lp4575
S'web2py.plugin.matplotlib.w2p'
p4576
asbasbasbag62
(g78
g64
NtRp4577
(dp4578
g67
(dp4579
sg76
g4391
sg69
(lp4580
g62
(g83
g64
NtRp4581
(dp4582
g67
(dp4583
sg76
g4577
sg69
(lp4584
g62
(g63
g64
NtRp4585
(dp4586
g67
(dp4587
g75
I4
ssg76
g4581
sg69
(lp4588
S'web2py.plugin.simple_comments.w2p'
p4589
asbasbasbag62
(g78
g64
NtRp4590
(dp4591
g67
(dp4592
sg76
g4391
sg69
(lp4593
g62
(g83
g64
NtRp4594
(dp4595
g67
(dp4596
sg76
g4590
sg69
(lp4597
g62
(g63
g64
NtRp4598
(dp4599
g67
(dp4600
g75
I4
ssg76
g4594
sg69
(lp4601
S'web2py.plugin.rating.w2p'
p4602
asbasbasbag62
(g78
g64
NtRp4603
(dp4604
g67
(dp4605
sg76
g4391
sg69
(lp4606
g62
(g83
g64
NtRp4607
(dp4608
g67
(dp4609
sg76
g4603
sg69
(lp4610
g62
(g63
g64
NtRp4611
(dp4612
g67
(dp4613
g75
I4
ssg76
g4607
sg69
(lp4614
S'web2py.plugin.utils.w2p'
p4615
asbasbasbag62
(g78
g64
NtRp4616
(dp4617
g67
(dp4618
sg76
g4391
sg69
(lp4619
g62
(g83
g64
NtRp4620
(dp4621
g67
(dp4622
sg76
g4616
sg69
(lp4623
g62
(g63
g64
NtRp4624
(dp4625
g67
(dp4626
g75
I4
ssg76
g4620
sg69
(lp4627
S'web2py.plugin.gmap.w2p'
p4628
asbasbasbag62
(g78
g64
NtRp4629
(dp4630
g67
(dp4631
sg76
g4391
sg69
(lp4632
g62
(g83
g64
NtRp4633
(dp4634
g67
(dp4635
sg76
g4629
sg69
(lp4636
g62
(g63
g64
NtRp4637
(dp4638
g67
(dp4639
g75
I4
ssg76
g4633
sg69
(lp4640
S'web2py.plugin.markitup.w2p'
p4641
asbasbasbag62
(g78
g64
NtRp4642
(dp4643
g67
(dp4644
sg76
g4391
sg69
(lp4645
g62
(g83
g64
NtRp4646
(dp4647
g67
(dp4648
sg76
g4642
sg69
(lp4649
g62
(g63
g64
NtRp4650
(dp4651
g67
(dp4652
g75
I4
ssg76
g4646
sg69
(lp4653
S'web2py.plugin.jqgrid.w2p'
p4654
asbasbasbag62
(g78
g64
NtRp4655
(dp4656
g67
(dp4657
sg76
g4391
sg69
(lp4658
g62
(g83
g64
NtRp4659
(dp4660
g67
(dp4661
sg76
g4655
sg69
(lp4662
g62
(g63
g64
NtRp4663
(dp4664
g67
(dp4665
g75
I4
ssg76
g4659
sg69
(lp4666
S'web2py.plugin.multiselect.w2p'
p4667
asbasbasbag62
(g78
g64
NtRp4668
(dp4669
g67
(dp4670
sg76
g4391
sg69
(lp4671
g62
(g83
g64
NtRp4672
(dp4673
g67
(dp4674
sg76
g4668
sg69
(lp4675
g62
(g63
g64
NtRp4676
(dp4677
g67
(dp4678
g75
I4
ssg76
g4672
sg69
(lp4679
S'web2py.plugin.translate.w2p'
p4680
asbasbasbag62
(g78
g64
NtRp4681
(dp4682
g67
(dp4683
sg76
g4391
sg69
(lp4684
g62
(g83
g64
NtRp4685
(dp4686
g67
(dp4687
sg76
g4681
sg69
(lp4688
g62
(g63
g64
NtRp4689
(dp4690
g67
(dp4691
g75
I4
ssg76
g4685
sg69
(lp4692
S'web2py.plugin.sortable.w2p'
p4693
asbasbasbasbasbasbasbag62
(g78
g64
NtRp4694
(dp4695
g67
(dp4696
sg76
g3372
sg69
(lp4697
g62
(g83
g64
NtRp4698
(dp4699
g67
(dp4700
g87
g88
ssg76
g4694
sg69
(lp4701
S'themes'
p4702
asbag62
(g83
g64
NtRp4703
(dp4704
g67
(dp4705
g94
g95
ssg76
g4694
sg69
(lp4706
S':'
asbag62
(g83
g64
NtRp4707
(dp4708
g67
(dp4709
sg76
g4694
sg69
(lp4710
g62
(g63
g64
NtRp4711
(dp4712
g67
(dp4713
g75
I5
ssg76
g4707
sg69
(lp4714
g62
(g71
g64
NtRp4715
(dp4716
g67
(dp4717
g75
I4
ssg76
Nsg69
(lp4718
g62
(g78
g64
NtRp4719
(dp4720
g67
(dp4721
sg76
g4715
sg69
(lp4722
g62
(g83
g64
NtRp4723
(dp4724
g67
(dp4725
sg76
g4719
sg69
(lp4726
g62
(g63
g64
NtRp4727
(dp4728
g67
(dp4729
g75
I4
ssg76
g4723
sg69
(lp4730
S'Default'
p4731
asbasbasbag62
(g78
g64
NtRp4732
(dp4733
g67
(dp4734
sg76
g4715
sg69
(lp4735
g62
(g83
g64
NtRp4736
(dp4737
g67
(dp4738
sg76
g4732
sg69
(lp4739
g62
(g63
g64
NtRp4740
(dp4741
g67
(dp4742
g75
I4
ssg76
g4736
sg69
(lp4743
S'Customize'
p4744
asbasbasbag62
(g78
g64
NtRp4745
(dp4746
g67
(dp4747
sg76
g4715
sg69
(lp4748
g62
(g83
g64
NtRp4749
(dp4750
g67
(dp4751
sg76
g4745
sg69
(lp4752
g62
(g63
g64
NtRp4753
(dp4754
g67
(dp4755
g75
I4
ssg76
g4749
sg69
(lp4756
S'OrangeandBlack'
p4757
asbasbasbag62
(g78
g64
NtRp4758
(dp4759
g67
(dp4760
sg76
g4715
sg69
(lp4761
g62
(g83
g64
NtRp4762
(dp4763
g67
(dp4764
sg76
g4758
sg69
(lp4765
g62
(g63
g64
NtRp4766
(dp4767
g67
(dp4768
g75
I4
ssg76
g4762
sg69
(lp4769
S'solutiongreen'
p4770
asbasbasbag62
(g78
g64
NtRp4771
(dp4772
g67
(dp4773
sg76
g4715
sg69
(lp4774
g62
(g83
g64
NtRp4775
(dp4776
g67
(dp4777
sg76
g4771
sg69
(lp4778
g62
(g63
g64
NtRp4779
(dp4780
g67
(dp4781
g75
I4
ssg76
g4775
sg69
(lp4782
S'FreshLight'
p4783
asbasbasbag62
(g78
g64
NtRp4784
(dp4785
g67
(dp4786
sg76
g4715
sg69
(lp4787
g62
(g83
g64
NtRp4788
(dp4789
g67
(dp4790
sg76
g4784
sg69
(lp4791
g62
(g63
g64
NtRp4792
(dp4793
g67
(dp4794
g75
I4
ssg76
g4788
sg69
(lp4795
S'StickyBud'
p4796
asbasbasbag62
(g78
g64
NtRp4797
(dp4798
g67
(dp4799
sg76
g4715
sg69
(lp4800
g62
(g83
g64
NtRp4801
(dp4802
g67
(dp4803
sg76
g4797
sg69
(lp4804
g62
(g63
g64
NtRp4805
(dp4806
g67
(dp4807
g75
I4
ssg76
g4801
sg69
(lp4808
S'orangeflower'
p4809
asbasbasbag62
(g78
g64
NtRp4810
(dp4811
g67
(dp4812
sg76
g4715
sg69
(lp4813
g62
(g83
g64
NtRp4814
(dp4815
g67
(dp4816
sg76
g4810
sg69
(lp4817
g62
(g63
g64
NtRp4818
(dp4819
g67
(dp4820
g75
I4
ssg76
g4814
sg69
(lp4821
S'Interlude'
p4822
asbasbasbag62
(g78
g64
NtRp4823
(dp4824
g67
(dp4825
sg76
g4715
sg69
(lp4826
g62
(g83
g64
NtRp4827
(dp4828
g67
(dp4829
sg76
g4823
sg69
(lp4830
g62
(g63
g64
NtRp4831
(dp4832
g67
(dp4833
g75
I4
ssg76
g4827
sg69
(lp4834
S'Industrial'
p4835
asbasbasbag62
(g78
g64
NtRp4836
(dp4837
g67
(dp4838
sg76
g4715
sg69
(lp4839
g62
(g83
g64
NtRp4840
(dp4841
g67
(dp4842
sg76
g4836
sg69
(lp4843
g62
(g63
g64
NtRp4844
(dp4845
g67
(dp4846
g75
I4
ssg76
g4840
sg69
(lp4847
S'GreenandPlain'
p4848
asbasbasbag62
(g78
g64
NtRp4849
(dp4850
g67
(dp4851
sg76
g4715
sg69
(lp4852
g62
(g83
g64
NtRp4853
(dp4854
g67
(dp4855
sg76
g4849
sg69
(lp4856
g62
(g63
g64
NtRp4857
(dp4858
g67
(dp4859
g75
I4
ssg76
g4853
sg69
(lp4860
S'FunRide'
p4861
asbasbasbag62
(g78
g64
NtRp4862
(dp4863
g67
(dp4864
sg76
g4715
sg69
(lp4865
g62
(g83
g64
NtRp4866
(dp4867
g67
(dp4868
sg76
g4862
sg69
(lp4869
g62
(g63
g64
NtRp4870
(dp4871
g67
(dp4872
g75
I4
ssg76
g4866
sg69
(lp4873
S'CorporateOffice'
p4874
asbasbasbag62
(g78
g64
NtRp4875
(dp4876
g67
(dp4877
sg76
g4715
sg69
(lp4878
g62
(g83
g64
NtRp4879
(dp4880
g67
(dp4881
sg76
g4875
sg69
(lp4882
g62
(g63
g64
NtRp4883
(dp4884
g67
(dp4885
g75
I4
ssg76
g4879
sg69
(lp4886
S'BlogSmith'
p4887
asbasbasbag62
(g78
g64
NtRp4888
(dp4889
g67
(dp4890
sg76
g4715
sg69
(lp4891
g62
(g83
g64
NtRp4892
(dp4893
g67
(dp4894
sg76
g4888
sg69
(lp4895
g62
(g63
g64
NtRp4896
(dp4897
g67
(dp4898
g75
I4
ssg76
g4892
sg69
(lp4899
S'Hibiscus'
p4900
asbasbasbag62
(g78
g64
NtRp4901
(dp4902
g67
(dp4903
sg76
g4715
sg69
(lp4904
g62
(g83
g64
NtRp4905
(dp4906
g67
(dp4907
sg76
g4901
sg69
(lp4908
g62
(g63
g64
NtRp4909
(dp4910
g67
(dp4911
g75
I4
ssg76
g4905
sg69
(lp4912
S'VioletRay'
p4913
asbasbasbag62
(g78
g64
NtRp4914
(dp4915
g67
(dp4916
sg76
g4715
sg69
(lp4917
g62
(g83
g64
NtRp4918
(dp4919
g67
(dp4920
sg76
g4914
sg69
(lp4921
g62
(g63
g64
NtRp4922
(dp4923
g67
(dp4924
g75
I4
ssg76
g4918
sg69
(lp4925
S'Chasmogamous'
p4926
asbasbasbag62
(g78
g64
NtRp4927
(dp4928
g67
(dp4929
sg76
g4715
sg69
(lp4930
g62
(g83
g64
NtRp4931
(dp4932
g67
(dp4933
sg76
g4927
sg69
(lp4934
g62
(g63
g64
NtRp4935
(dp4936
g67
(dp4937
g75
I4
ssg76
g4931
sg69
(lp4938
S'Uncomplicated'
p4939
asbasbasbag62
(g78
g64
NtRp4940
(dp4941
g67
(dp4942
sg76
g4715
sg69
(lp4943
g62
(g83
g64
NtRp4944
(dp4945
g67
(dp4946
sg76
g4940
sg69
(lp4947
g62
(g63
g64
NtRp4948
(dp4949
g67
(dp4950
g75
I4
ssg76
g4944
sg69
(lp4951
S'RoundHouse'
p4952
asbasbasbag62
(g78
g64
NtRp4953
(dp4954
g67
(dp4955
sg76
g4715
sg69
(lp4956
g62
(g83
g64
NtRp4957
(dp4958
g67
(dp4959
sg76
g4953
sg69
(lp4960
g62
(g63
g64
NtRp4961
(dp4962
g67
(dp4963
g75
I4
ssg76
g4957
sg69
(lp4964
S'CupofCoffee'
p4965
asbasbasbag62
(g78
g64
NtRp4966
(dp4967
g67
(dp4968
sg76
g4715
sg69
(lp4969
g62
(g83
g64
NtRp4970
(dp4971
g67
(dp4972
sg76
g4966
sg69
(lp4973
g62
(g63
g64
NtRp4974
(dp4975
g67
(dp4976
g75
I4
ssg76
g4970
sg69
(lp4977
S'Transient'
p4978
asbasbasbag62
(g78
g64
NtRp4979
(dp4980
g67
(dp4981
sg76
g4715
sg69
(lp4982
g62
(g83
g64
NtRp4983
(dp4984
g67
(dp4985
sg76
g4979
sg69
(lp4986
g62
(g63
g64
NtRp4987
(dp4988
g67
(dp4989
g75
I4
ssg76
g4983
sg69
(lp4990
S'Flourish'
p4991
asbasbasbag62
(g78
g64
NtRp4992
(dp4993
g67
(dp4994
sg76
g4715
sg69
(lp4995
g62
(g83
g64
NtRp4996
(dp4997
g67
(dp4998
sg76
g4992
sg69
(lp4999
g62
(g63
g64
NtRp5000
(dp5001
g67
(dp5002
g75
I4
ssg76
g4996
sg69
(lp5003
S'Astroturfd'
p5004
asbasbasbag62
(g78
g64
NtRp5005
(dp5006
g67
(dp5007
sg76
g4715
sg69
(lp5008
g62
(g83
g64
NtRp5009
(dp5010
g67
(dp5011
sg76
g5005
sg69
(lp5012
g62
(g63
g64
NtRp5013
(dp5014
g67
(dp5015
g75
I4
ssg76
g5009
sg69
(lp5016
S'EfflorescenceGreen'
p5017
asbasbasbag62
(g78
g64
NtRp5018
(dp5019
g67
(dp5020
sg76
g4715
sg69
(lp5021
g62
(g83
g64
NtRp5022
(dp5023
g67
(dp5024
sg76
g5018
sg69
(lp5025
g62
(g63
g64
NtRp5026
(dp5027
g67
(dp5028
g75
I4
ssg76
g5022
sg69
(lp5029
S'Instant'
p5030
asbasbasbag62
(g78
g64
NtRp5031
(dp5032
g67
(dp5033
sg76
g4715
sg69
(lp5034
g62
(g83
g64
NtRp5035
(dp5036
g67
(dp5037
sg76
g5031
sg69
(lp5038
g62
(g63
g64
NtRp5039
(dp5040
g67
(dp5041
g75
I4
ssg76
g5035
sg69
(lp5042
S'solutionblue'
p5043
asbasbasbag62
(g78
g64
NtRp5044
(dp5045
g67
(dp5046
sg76
g4715
sg69
(lp5047
g62
(g83
g64
NtRp5048
(dp5049
g67
(dp5050
sg76
g5044
sg69
(lp5051
g62
(g63
g64
NtRp5052
(dp5053
g67
(dp5054
g75
I4
ssg76
g5048
sg69
(lp5055
S'Balanced'
p5056
asbasbasbag62
(g78
g64
NtRp5057
(dp5058
g67
(dp5059
sg76
g4715
sg69
(lp5060
g62
(g83
g64
NtRp5061
(dp5062
g67
(dp5063
sg76
g5057
sg69
(lp5064
g62
(g63
g64
NtRp5065
(dp5066
g67
(dp5067
g75
I4
ssg76
g5061
sg69
(lp5068
S'RedCity'
p5069
asbasbasbag62
(g78
g64
NtRp5070
(dp5071
g67
(dp5072
sg76
g4715
sg69
(lp5073
g62
(g83
g64
NtRp5074
(dp5075
g67
(dp5076
sg76
g5070
sg69
(lp5077
g62
(g63
g64
NtRp5078
(dp5079
g67
(dp5080
g75
I4
ssg76
g5074
sg69
(lp5081
S'Stardust'
p5082
asbasbasbag62
(g78
g64
NtRp5083
(dp5084
g67
(dp5085
sg76
g4715
sg69
(lp5086
g62
(g83
g64
NtRp5087
(dp5088
g67
(dp5089
sg76
g5083
sg69
(lp5090
g62
(g63
g64
NtRp5091
(dp5092
g67
(dp5093
g75
I4
ssg76
g5087
sg69
(lp5094
S'EfflorescenceBlue'
p5095
asbasbasbag62
(g78
g64
NtRp5096
(dp5097
g67
(dp5098
sg76
g4715
sg69
(lp5099
g62
(g83
g64
NtRp5100
(dp5101
g67
(dp5102
sg76
g5096
sg69
(lp5103
g62
(g63
g64
NtRp5104
(dp5105
g67
(dp5106
g75
I4
ssg76
g5100
sg69
(lp5107
S'FlashyWeb'
p5108
asbasbasbag62
(g78
g64
NtRp5109
(dp5110
g67
(dp5111
sg76
g4715
sg69
(lp5112
g62
(g83
g64
NtRp5113
(dp5114
g67
(dp5115
sg76
g5109
sg69
(lp5116
g62
(g63
g64
NtRp5117
(dp5118
g67
(dp5119
g75
I4
ssg76
g5113
sg69
(lp5120
S'Spaced'
p5121
asbasbasbag62
(g78
g64
NtRp5122
(dp5123
g67
(dp5124
sg76
g4715
sg69
(lp5125
g62
(g83
g64
NtRp5126
(dp5127
g67
(dp5128
sg76
g5122
sg69
(lp5129
g62
(g63
g64
NtRp5130
(dp5131
g67
(dp5132
g75
I4
ssg76
g5126
sg69
(lp5133
S'EfflorescencePurple'
p5134
asbasbasbag62
(g78
g64
NtRp5135
(dp5136
g67
(dp5137
sg76
g4715
sg69
(lp5138
g62
(g83
g64
NtRp5139
(dp5140
g67
(dp5141
sg76
g5135
sg69
(lp5142
g62
(g63
g64
NtRp5143
(dp5144
g67
(dp5145
g75
I4
ssg76
g5139
sg69
(lp5146
S'TheMissingPiece'
p5147
asbasbasbag62
(g78
g64
NtRp5148
(dp5149
g67
(dp5150
sg76
g4715
sg69
(lp5151
g62
(g83
g64
NtRp5152
(dp5153
g67
(dp5154
sg76
g5148
sg69
(lp5155
g62
(g63
g64
NtRp5156
(dp5157
g67
(dp5158
g75
I4
ssg76
g5152
sg69
(lp5159
S'PremiumSeries'
p5160
asbasbasbag62
(g78
g64
NtRp5161
(dp5162
g67
(dp5163
sg76
g4715
sg69
(lp5164
g62
(g83
g64
NtRp5165
(dp5166
g67
(dp5167
sg76
g5161
sg69
(lp5168
g62
(g63
g64
NtRp5169
(dp5170
g67
(dp5171
g75
I4
ssg76
g5165
sg69
(lp5172
S'Abrasive'
p5173
asbasbasbag62
(g78
g64
NtRp5174
(dp5175
g67
(dp5176
sg76
g4715
sg69
(lp5177
g62
(g83
g64
NtRp5178
(dp5179
g67
(dp5180
sg76
g5174
sg69
(lp5181
g62
(g63
g64
NtRp5182
(dp5183
g67
(dp5184
g75
I4
ssg76
g5178
sg69
(lp5185
S'Simpletex'
p5186
asbasbasbag62
(g78
g64
NtRp5187
(dp5188
g67
(dp5189
sg76
g4715
sg69
(lp5190
g62
(g83
g64
NtRp5191
(dp5192
g67
(dp5193
sg76
g5187
sg69
(lp5194
g62
(g63
g64
NtRp5195
(dp5196
g67
(dp5197
g75
I4
ssg76
g5191
sg69
(lp5198
S'PinkFloat'
p5199
asbasbasbag62
(g78
g64
NtRp5200
(dp5201
g67
(dp5202
sg76
g4715
sg69
(lp5203
g62
(g83
g64
NtRp5204
(dp5205
g67
(dp5206
sg76
g5200
sg69
(lp5207
g62
(g63
g64
NtRp5208
(dp5209
g67
(dp5210
g75
I4
ssg76
g5204
sg69
(lp5211
S'FCTHarvest'
p5212
asbasbasbag62
(g78
g64
NtRp5213
(dp5214
g67
(dp5215
sg76
g4715
sg69
(lp5216
g62
(g83
g64
NtRp5217
(dp5218
g67
(dp5219
sg76
g5213
sg69
(lp5220
g62
(g63
g64
NtRp5221
(dp5222
g67
(dp5223
g75
I4
ssg76
g5217
sg69
(lp5224
S'Bounderies'
p5225
asbasbasbag62
(g78
g64
NtRp5226
(dp5227
g67
(dp5228
sg76
g4715
sg69
(lp5229
g62
(g83
g64
NtRp5230
(dp5231
g67
(dp5232
sg76
g5226
sg69
(lp5233
g62
(g63
g64
NtRp5234
(dp5235
g67
(dp5236
g75
I4
ssg76
g5230
sg69
(lp5237
S'BackgroundBlue'
p5238
asbasbasbag62
(g78
g64
NtRp5239
(dp5240
g67
(dp5241
sg76
g4715
sg69
(lp5242
g62
(g83
g64
NtRp5243
(dp5244
g67
(dp5245
sg76
g5239
sg69
(lp5246
g62
(g63
g64
NtRp5247
(dp5248
g67
(dp5249
g75
I4
ssg76
g5243
sg69
(lp5250
S'Tastelessly'
p5251
asbasbasbag62
(g78
g64
NtRp5252
(dp5253
g67
(dp5254
sg76
g4715
sg69
(lp5255
g62
(g83
g64
NtRp5256
(dp5257
g67
(dp5258
sg76
g5252
sg69
(lp5259
g62
(g63
g64
NtRp5260
(dp5261
g67
(dp5262
g75
I4
ssg76
g5256
sg69
(lp5263
S'Settings'
p5264
asbasbasbag62
(g78
g64
NtRp5265
(dp5266
g67
(dp5267
sg76
g4715
sg69
(lp5268
g62
(g83
g64
NtRp5269
(dp5270
g67
(dp5271
sg76
g5265
sg69
(lp5272
g62
(g63
g64
NtRp5273
(dp5274
g67
(dp5275
g75
I4
ssg76
g5269
sg69
(lp5276
S'Colorus'
p5277
asbasbasbag62
(g78
g64
NtRp5278
(dp5279
g67
(dp5280
sg76
g4715
sg69
(lp5281
g62
(g83
g64
NtRp5282
(dp5283
g67
(dp5284
sg76
g5278
sg69
(lp5285
g62
(g63
g64
NtRp5286
(dp5287
g67
(dp5288
g75
I4
ssg76
g5282
sg69
(lp5289
S'BackgroundGreen'
p5290
asbasbasbag62
(g78
g64
NtRp5291
(dp5292
g67
(dp5293
sg76
g4715
sg69
(lp5294
g62
(g83
g64
NtRp5295
(dp5296
g67
(dp5297
sg76
g5291
sg69
(lp5298
g62
(g63
g64
NtRp5299
(dp5300
g67
(dp5301
g75
I4
ssg76
g5295
sg69
(lp5302
S'TheIsland'
p5303
asbasbasbag62
(g78
g64
NtRp5304
(dp5305
g67
(dp5306
sg76
g4715
sg69
(lp5307
g62
(g83
g64
NtRp5308
(dp5309
g67
(dp5310
sg76
g5304
sg69
(lp5311
g62
(g63
g64
NtRp5312
(dp5313
g67
(dp5314
g75
I4
ssg76
g5308
sg69
(lp5315
S'TinyBlue'
p5316
asbasbasbag62
(g78
g64
NtRp5317
(dp5318
g67
(dp5319
sg76
g4715
sg69
(lp5320
g62
(g83
g64
NtRp5321
(dp5322
g67
(dp5323
sg76
g5317
sg69
(lp5324
g62
(g63
g64
NtRp5325
(dp5326
g67
(dp5327
g75
I4
ssg76
g5321
sg69
(lp5328
S'hexahedron'
p5329
asbasbasbag62
(g78
g64
NtRp5330
(dp5331
g67
(dp5332
sg76
g4715
sg69
(lp5333
g62
(g83
g64
NtRp5334
(dp5335
g67
(dp5336
sg76
g5330
sg69
(lp5337
g62
(g63
g64
NtRp5338
(dp5339
g67
(dp5340
g75
I4
ssg76
g5334
sg69
(lp5341
S'PetCharms'
p5342
asbasbasbag62
(g78
g64
NtRp5343
(dp5344
g67
(dp5345
sg76
g4715
sg69
(lp5346
g62
(g83
g64
NtRp5347
(dp5348
g67
(dp5349
sg76
g5343
sg69
(lp5350
g62
(g63
g64
NtRp5351
(dp5352
g67
(dp5353
g75
I4
ssg76
g5347
sg69
(lp5354
S'Subordinate'
p5355
asbasbasbag62
(g78
g64
NtRp5356
(dp5357
g67
(dp5358
sg76
g4715
sg69
(lp5359
g62
(g83
g64
NtRp5360
(dp5361
g67
(dp5362
sg76
g5356
sg69
(lp5363
g62
(g63
g64
NtRp5364
(dp5365
g67
(dp5366
g75
I4
ssg76
g5360
sg69
(lp5367
S'Voyage'
p5368
asbasbasbag62
(g78
g64
NtRp5369
(dp5370
g67
(dp5371
sg76
g4715
sg69
(lp5372
g62
(g83
g64
NtRp5373
(dp5374
g67
(dp5375
sg76
g5369
sg69
(lp5376
g62
(g63
g64
NtRp5377
(dp5378
g67
(dp5379
g75
I4
ssg76
g5373
sg69
(lp5380
S'Replenish'
p5381
asbasbasbag62
(g78
g64
NtRp5382
(dp5383
g67
(dp5384
sg76
g4715
sg69
(lp5385
g62
(g83
g64
NtRp5386
(dp5387
g67
(dp5388
sg76
g5382
sg69
(lp5389
g62
(g63
g64
NtRp5390
(dp5391
g67
(dp5392
g75
I4
ssg76
g5386
sg69
(lp5393
S'sliced'
p5394
asbasbasbag62
(g78
g64
NtRp5395
(dp5396
g67
(dp5397
sg76
g4715
sg69
(lp5398
g62
(g83
g64
NtRp5399
(dp5400
g67
(dp5401
sg76
g5395
sg69
(lp5402
g62
(g63
g64
NtRp5403
(dp5404
g67
(dp5405
g75
I4
ssg76
g5399
sg69
(lp5406
S'Papira'
p5407
asbasbasbag62
(g78
g64
NtRp5408
(dp5409
g67
(dp5410
sg76
g4715
sg69
(lp5411
g62
(g83
g64
NtRp5412
(dp5413
g67
(dp5414
sg76
g5408
sg69
(lp5415
g62
(g63
g64
NtRp5416
(dp5417
g67
(dp5418
g75
I4
ssg76
g5412
sg69
(lp5419
S'NewsFlash'
p5420
asbasbasbag62
(g78
g64
NtRp5421
(dp5422
g67
(dp5423
sg76
g4715
sg69
(lp5424
g62
(g83
g64
NtRp5425
(dp5426
g67
(dp5427
sg76
g5421
sg69
(lp5428
g62
(g63
g64
NtRp5429
(dp5430
g67
(dp5431
g75
I4
ssg76
g5425
sg69
(lp5432
S'Reference'
p5433
asbasbasbag62
(g78
g64
NtRp5434
(dp5435
g67
(dp5436
sg76
g4715
sg69
(lp5437
g62
(g83
g64
NtRp5438
(dp5439
g67
(dp5440
sg76
g5434
sg69
(lp5441
g62
(g63
g64
NtRp5442
(dp5443
g67
(dp5444
g75
I4
ssg76
g5438
sg69
(lp5445
S'Unqualified'
p5446
asbasbasbag62
(g78
g64
NtRp5447
(dp5448
g67
(dp5449
sg76
g4715
sg69
(lp5450
g62
(g83
g64
NtRp5451
(dp5452
g67
(dp5453
sg76
g5447
sg69
(lp5454
g62
(g63
g64
NtRp5455
(dp5456
g67
(dp5457
g75
I4
ssg76
g5451
sg69
(lp5458
S'Branches'
p5459
asbasbasbag62
(g78
g64
NtRp5460
(dp5461
g67
(dp5462
sg76
g4715
sg69
(lp5463
g62
(g83
g64
NtRp5464
(dp5465
g67
(dp5466
sg76
g5460
sg69
(lp5467
g62
(g63
g64
NtRp5468
(dp5469
g67
(dp5470
g75
I4
ssg76
g5464
sg69
(lp5471
S'Glazed'
p5472
asbasbasbag62
(g78
g64
NtRp5473
(dp5474
g67
(dp5475
sg76
g4715
sg69
(lp5476
g62
(g83
g64
NtRp5477
(dp5478
g67
(dp5479
sg76
g5473
sg69
(lp5480
g62
(g63
g64
NtRp5481
(dp5482
g67
(dp5483
g75
I4
ssg76
g5477
sg69
(lp5484
S'Excess'
p5485
asbasbasbag62
(g78
g64
NtRp5486
(dp5487
g67
(dp5488
sg76
g4715
sg69
(lp5489
g62
(g83
g64
NtRp5490
(dp5491
g67
(dp5492
sg76
g5486
sg69
(lp5493
g62
(g63
g64
NtRp5494
(dp5495
g67
(dp5496
g75
I4
ssg76
g5490
sg69
(lp5497
S'Commission'
p5498
asbasbasbag62
(g78
g64
NtRp5499
(dp5500
g67
(dp5501
sg76
g4715
sg69
(lp5502
g62
(g83
g64
NtRp5503
(dp5504
g67
(dp5505
sg76
g5499
sg69
(lp5506
g62
(g63
g64
NtRp5507
(dp5508
g67
(dp5509
g75
I4
ssg76
g5503
sg69
(lp5510
S'Frozenage'
p5511
asbasbasbag62
(g78
g64
NtRp5512
(dp5513
g67
(dp5514
sg76
g4715
sg69
(lp5515
g62
(g83
g64
NtRp5516
(dp5517
g67
(dp5518
sg76
g5512
sg69
(lp5519
g62
(g63
g64
NtRp5520
(dp5521
g67
(dp5522
g75
I4
ssg76
g5516
sg69
(lp5523
S'Blogging'
p5524
asbasbasbag62
(g78
g64
NtRp5525
(dp5526
g67
(dp5527
sg76
g4715
sg69
(lp5528
g62
(g83
g64
NtRp5529
(dp5530
g67
(dp5531
sg76
g5525
sg69
(lp5532
g62
(g63
g64
NtRp5533
(dp5534
g67
(dp5535
g75
I4
ssg76
g5529
sg69
(lp5536
S'Extracts'
p5537
asbasbasbag62
(g78
g64
NtRp5538
(dp5539
g67
(dp5540
sg76
g4715
sg69
(lp5541
g62
(g83
g64
NtRp5542
(dp5543
g67
(dp5544
sg76
g5538
sg69
(lp5545
g62
(g63
g64
NtRp5546
(dp5547
g67
(dp5548
g75
I4
ssg76
g5542
sg69
(lp5549
S'Rambling'
p5550
asbasbasbag62
(g78
g64
NtRp5551
(dp5552
g67
(dp5553
sg76
g4715
sg69
(lp5554
g62
(g83
g64
NtRp5555
(dp5556
g67
(dp5557
sg76
g5551
sg69
(lp5558
g62
(g63
g64
NtRp5559
(dp5560
g67
(dp5561
g75
I4
ssg76
g5555
sg69
(lp5562
S'OldArchitecture'
p5563
asbasbasbag62
(g78
g64
NtRp5564
(dp5565
g67
(dp5566
sg76
g4715
sg69
(lp5567
g62
(g83
g64
NtRp5568
(dp5569
g67
(dp5570
sg76
g5564
sg69
(lp5571
g62
(g63
g64
NtRp5572
(dp5573
g67
(dp5574
g75
I4
ssg76
g5568
sg69
(lp5575
S'Miscellaneous'
p5576
asbasbasbag62
(g78
g64
NtRp5577
(dp5578
g67
(dp5579
sg76
g4715
sg69
(lp5580
g62
(g83
g64
NtRp5581
(dp5582
g67
(dp5583
sg76
g5577
sg69
(lp5584
g62
(g63
g64
NtRp5585
(dp5586
g67
(dp5587
g75
I4
ssg76
g5581
sg69
(lp5588
S'Blend'
p5589
asbasbasbag62
(g78
g64
NtRp5590
(dp5591
g67
(dp5592
sg76
g4715
sg69
(lp5593
g62
(g83
g64
NtRp5594
(dp5595
g67
(dp5596
sg76
g5590
sg69
(lp5597
g62
(g63
g64
NtRp5598
(dp5599
g67
(dp5600
g75
I4
ssg76
g5594
sg69
(lp5601
S'Squarely'
p5602
asbasbasbag62
(g78
g64
NtRp5603
(dp5604
g67
(dp5605
sg76
g4715
sg69
(lp5606
g62
(g83
g64
NtRp5607
(dp5608
g67
(dp5609
sg76
g5603
sg69
(lp5610
g62
(g63
g64
NtRp5611
(dp5612
g67
(dp5613
g75
I4
ssg76
g5607
sg69
(lp5614
S'SnowCrystals'
p5615
asbasbasbag62
(g78
g64
NtRp5616
(dp5617
g67
(dp5618
sg76
g4715
sg69
(lp5619
g62
(g83
g64
NtRp5620
(dp5621
g67
(dp5622
sg76
g5616
sg69
(lp5623
g62
(g63
g64
NtRp5624
(dp5625
g67
(dp5626
g75
I4
ssg76
g5620
sg69
(lp5627
S'Emporium'
p5628
asbasbasbag62
(g78
g64
NtRp5629
(dp5630
g67
(dp5631
sg76
g4715
sg69
(lp5632
g62
(g83
g64
NtRp5633
(dp5634
g67
(dp5635
sg76
g5629
sg69
(lp5636
g62
(g63
g64
NtRp5637
(dp5638
g67
(dp5639
g75
I4
ssg76
g5633
sg69
(lp5640
S'Clicker'
p5641
asbasbasbag62
(g78
g64
NtRp5642
(dp5643
g67
(dp5644
sg76
g4715
sg69
(lp5645
g62
(g83
g64
NtRp5646
(dp5647
g67
(dp5648
sg76
g5642
sg69
(lp5649
g62
(g63
g64
NtRp5650
(dp5651
g67
(dp5652
g75
I4
ssg76
g5646
sg69
(lp5653
S'ConcreteV2'
p5654
asbasbasbag62
(g78
g64
NtRp5655
(dp5656
g67
(dp5657
sg76
g4715
sg69
(lp5658
g62
(g83
g64
NtRp5659
(dp5660
g67
(dp5661
sg76
g5655
sg69
(lp5662
g62
(g63
g64
NtRp5663
(dp5664
g67
(dp5665
g75
I4
ssg76
g5659
sg69
(lp5666
S'Neutral'
p5667
asbasbasbag62
(g78
g64
NtRp5668
(dp5669
g67
(dp5670
sg76
g4715
sg69
(lp5671
g62
(g83
g64
NtRp5672
(dp5673
g67
(dp5674
sg76
g5668
sg69
(lp5675
g62
(g63
g64
NtRp5676
(dp5677
g67
(dp5678
g75
I4
ssg76
g5672
sg69
(lp5679
S'EfflorescenceOrange'
p5680
asbasbasbag62
(g78
g64
NtRp5681
(dp5682
g67
(dp5683
sg76
g4715
sg69
(lp5684
g62
(g83
g64
NtRp5685
(dp5686
g67
(dp5687
sg76
g5681
sg69
(lp5688
g62
(g63
g64
NtRp5689
(dp5690
g67
(dp5691
g75
I4
ssg76
g5685
sg69
(lp5692
S'Boorish'
p5693
asbasbasbag62
(g78
g64
NtRp5694
(dp5695
g67
(dp5696
sg76
g4715
sg69
(lp5697
g62
(g83
g64
NtRp5698
(dp5699
g67
(dp5700
sg76
g5694
sg69
(lp5701
g62
(g63
g64
NtRp5702
(dp5703
g67
(dp5704
g75
I4
ssg76
g5698
sg69
(lp5705
S'Experience'
p5706
asbasbasbag62
(g78
g64
NtRp5707
(dp5708
g67
(dp5709
sg76
g4715
sg69
(lp5710
g62
(g83
g64
NtRp5711
(dp5712
g67
(dp5713
sg76
g5707
sg69
(lp5714
g62
(g63
g64
NtRp5715
(dp5716
g67
(dp5717
g75
I4
ssg76
g5711
sg69
(lp5718
S'CityLights'
p5719
asbasbasbag62
(g78
g64
NtRp5720
(dp5721
g67
(dp5722
sg76
g4715
sg69
(lp5723
g62
(g83
g64
NtRp5724
(dp5725
g67
(dp5726
sg76
g5720
sg69
(lp5727
g62
(g63
g64
NtRp5728
(dp5729
g67
(dp5730
g75
I4
ssg76
g5724
sg69
(lp5731
S'Incorporated'
p5732
asbasbasbag62
(g78
g64
NtRp5733
(dp5734
g67
(dp5735
sg76
g4715
sg69
(lp5736
g62
(g83
g64
NtRp5737
(dp5738
g67
(dp5739
sg76
g5733
sg69
(lp5740
g62
(g63
g64
NtRp5741
(dp5742
g67
(dp5743
g75
I4
ssg76
g5737
sg69
(lp5744
S'Thingreenline'
p5745
asbasbasbag62
(g78
g64
NtRp5746
(dp5747
g67
(dp5748
sg76
g4715
sg69
(lp5749
g62
(g83
g64
NtRp5750
(dp5751
g67
(dp5752
sg76
g5746
sg69
(lp5753
g62
(g63
g64
NtRp5754
(dp5755
g67
(dp5756
g75
I4
ssg76
g5750
sg69
(lp5757
S'HotAirBalloons'
p5758
asbasbasbag62
(g78
g64
NtRp5759
(dp5760
g67
(dp5761
sg76
g4715
sg69
(lp5762
g62
(g83
g64
NtRp5763
(dp5764
g67
(dp5765
sg76
g5759
sg69
(lp5766
g62
(g63
g64
NtRp5767
(dp5768
g67
(dp5769
g75
I4
ssg76
g5763
sg69
(lp5770
S'Optimism'
p5771
asbasbasbag62
(g78
g64
NtRp5772
(dp5773
g67
(dp5774
sg76
g4715
sg69
(lp5775
g62
(g83
g64
NtRp5776
(dp5777
g67
(dp5778
sg76
g5772
sg69
(lp5779
g62
(g63
g64
NtRp5780
(dp5781
g67
(dp5782
g75
I4
ssg76
g5776
sg69
(lp5783
S'Sampling'
p5784
asbasbasbag62
(g78
g64
NtRp5785
(dp5786
g67
(dp5787
sg76
g4715
sg69
(lp5788
g62
(g83
g64
NtRp5789
(dp5790
g67
(dp5791
sg76
g5785
sg69
(lp5792
g62
(g63
g64
NtRp5793
(dp5794
g67
(dp5795
g75
I4
ssg76
g5789
sg69
(lp5796
S'Oxidation'
p5797
asbasbasbag62
(g78
g64
NtRp5798
(dp5799
g67
(dp5800
sg76
g4715
sg69
(lp5801
g62
(g83
g64
NtRp5802
(dp5803
g67
(dp5804
sg76
g5798
sg69
(lp5805
g62
(g63
g64
NtRp5806
(dp5807
g67
(dp5808
g75
I4
ssg76
g5802
sg69
(lp5809
S'External'
p5810
asbasbasbag62
(g78
g64
NtRp5811
(dp5812
g67
(dp5813
sg76
g4715
sg69
(lp5814
g62
(g83
g64
NtRp5815
(dp5816
g67
(dp5817
sg76
g5811
sg69
(lp5818
g62
(g63
g64
NtRp5819
(dp5820
g67
(dp5821
g75
I4
ssg76
g5815
sg69
(lp5822
S'FCTInnovation'
p5823
asbasbasbag62
(g78
g64
NtRp5824
(dp5825
g67
(dp5826
sg76
g4715
sg69
(lp5827
g62
(g83
g64
NtRp5828
(dp5829
g67
(dp5830
sg76
g5824
sg69
(lp5831
g62
(g63
g64
NtRp5832
(dp5833
g67
(dp5834
g75
I4
ssg76
g5828
sg69
(lp5835
S'BlueStatic'
p5836
asbasbasbag62
(g78
g64
NtRp5837
(dp5838
g67
(dp5839
sg76
g4715
sg69
(lp5840
g62
(g83
g64
NtRp5841
(dp5842
g67
(dp5843
sg76
g5837
sg69
(lp5844
g62
(g63
g64
NtRp5845
(dp5846
g67
(dp5847
g75
I4
ssg76
g5841
sg69
(lp5848
S'Compromise'
p5849
asbasbasbag62
(g78
g64
NtRp5850
(dp5851
g67
(dp5852
sg76
g4715
sg69
(lp5853
g62
(g83
g64
NtRp5854
(dp5855
g67
(dp5856
sg76
g5850
sg69
(lp5857
g62
(g63
g64
NtRp5858
(dp5859
g67
(dp5860
g75
I4
ssg76
g5854
sg69
(lp5861
S'LongBeach'
p5862
asbasbasbag62
(g78
g64
NtRp5863
(dp5864
g67
(dp5865
sg76
g4715
sg69
(lp5866
g62
(g83
g64
NtRp5867
(dp5868
g67
(dp5869
sg76
g5863
sg69
(lp5870
g62
(g63
g64
NtRp5871
(dp5872
g67
(dp5873
g75
I4
ssg76
g5867
sg69
(lp5874
S'Efflorescence'
p5875
asbasbasbag62
(g78
g64
NtRp5876
(dp5877
g67
(dp5878
sg76
g4715
sg69
(lp5879
g62
(g83
g64
NtRp5880
(dp5881
g67
(dp5882
sg76
g5876
sg69
(lp5883
g62
(g63
g64
NtRp5884
(dp5885
g67
(dp5886
g75
I4
ssg76
g5880
sg69
(lp5887
S'KeepitSimple'
p5888
asbasbasbag62
(g78
g64
NtRp5889
(dp5890
g67
(dp5891
sg76
g4715
sg69
(lp5892
g62
(g83
g64
NtRp5893
(dp5894
g67
(dp5895
sg76
g5889
sg69
(lp5896
g62
(g63
g64
NtRp5897
(dp5898
g67
(dp5899
g75
I4
ssg76
g5893
sg69
(lp5900
S'Pressurized'
p5901
asbasbasbag62
(g78
g64
NtRp5902
(dp5903
g67
(dp5904
sg76
g4715
sg69
(lp5905
g62
(g83
g64
NtRp5906
(dp5907
g67
(dp5908
sg76
g5902
sg69
(lp5909
g62
(g63
g64
NtRp5910
(dp5911
g67
(dp5912
g75
I4
ssg76
g5906
sg69
(lp5913
S'FCTPuzzled'
p5914
asbasbasbag62
(g78
g64
NtRp5915
(dp5916
g67
(dp5917
sg76
g4715
sg69
(lp5918
g62
(g83
g64
NtRp5919
(dp5920
g67
(dp5921
sg76
g5915
sg69
(lp5922
g62
(g63
g64
NtRp5923
(dp5924
g67
(dp5925
g75
I4
ssg76
g5919
sg69
(lp5926
S'Embouteillage'
p5927
asbasbasbag62
(g78
g64
NtRp5928
(dp5929
g67
(dp5930
sg76
g4715
sg69
(lp5931
g62
(g83
g64
NtRp5932
(dp5933
g67
(dp5934
sg76
g5928
sg69
(lp5935
g62
(g63
g64
NtRp5936
(dp5937
g67
(dp5938
g75
I4
ssg76
g5932
sg69
(lp5939
S'Whitelight'
p5940
asbasbasbag62
(g78
g64
NtRp5941
(dp5942
g67
(dp5943
sg76
g4715
sg69
(lp5944
g62
(g83
g64
NtRp5945
(dp5946
g67
(dp5947
sg76
g5941
sg69
(lp5948
g62
(g63
g64
NtRp5949
(dp5950
g67
(dp5951
g75
I4
ssg76
g5945
sg69
(lp5952
S'Pluralism'
p5953
asbasbasbag62
(g78
g64
NtRp5954
(dp5955
g67
(dp5956
sg76
g4715
sg69
(lp5957
g62
(g83
g64
NtRp5958
(dp5959
g67
(dp5960
sg76
g5954
sg69
(lp5961
g62
(g63
g64
NtRp5962
(dp5963
g67
(dp5964
g75
I4
ssg76
g5958
sg69
(lp5965
S'solutionorange'
p5966
asbasbasbasbasbasbasbag62
(g78
g64
NtRp5967
(dp5968
g67
(dp5969
sg76
g3372
sg69
(lp5970
g62
(g83
g64
NtRp5971
(dp5972
g67
(dp5973
g87
g88
ssg76
g5967
sg69
(lp5974
S'token'
p5975
asbag62
(g83
g64
NtRp5976
(dp5977
g67
(dp5978
g94
g95
ssg76
g5967
sg69
(lp5979
S':'
asbag62
(g83
g64
NtRp5980
(dp5981
g67
(dp5982
sg76
g5967
sg69
(lp5983
g62
(g63
g64
NtRp5984
(dp5985
g67
(dp5986
g75
I5
ssg76
g5980
sg69
(lp5987
S'8c6da387-220b-4126-9b99-e97263d6c223'
p5988
asbasbasbasbasbsS'etype'
p5989
S"<type 'exceptions.IOError'>"
p5990
sS'date'
p5991
S'Sun Oct 14 15:56:20 2012'
p5992
sS'response'
p5993
g62
(g63
g64
NtRp5994
(dp5995
g67
(dp5996
sg69
(lp5997
g62
(g71
g64
NtRp5998
(dp5999
g67
(dp6000
g75
I5
ssg76
Nsg69
(lp6001
g62
(g78
g64
NtRp6002
(dp6003
g67
(dp6004
sg76
g5998
sg69
(lp6005
g62
(g83
g64
NtRp6006
(dp6007
g67
(dp6008
g87
g88
ssg76
g6002
sg69
(lp6009
g160
asbag62
(g83
g64
NtRp6010
(dp6011
g67
(dp6012
g94
g95
ssg76
g6002
sg69
(lp6013
S':'
asbag62
(g83
g64
NtRp6014
(dp6015
g67
(dp6016
sg76
g6002
sg69
(lp6017
g62
(g63
g64
NtRp6018
(dp6019
g67
(dp6020
g75
I5
ssg76
g6014
sg69
(lp6021
S'<cStringIO.StringO object at 0x0000000008BF2110>'
p6022
asbasbasbag62
(g78
g64
NtRp6023
(dp6024
g67
(dp6025
sg76
g5998
sg69
(lp6026
g62
(g83
g64
NtRp6027
(dp6028
g67
(dp6029
g87
g88
ssg76
g6023
sg69
(lp6030
g248
asbag62
(g83
g64
NtRp6031
(dp6032
g67
(dp6033
g94
g95
ssg76
g6023
sg69
(lp6034
S':'
asbag62
(g83
g64
NtRp6035
(dp6036
g67
(dp6037
sg76
g6023
sg69
(lp6038
g62
(g63
g64
NtRp6039
(dp6040
g67
(dp6041
g75
I5
ssg76
g6035
sg69
(lp6042
g62
(g71
g64
NtRp6043
(dp6044
g67
(dp6045
g75
I4
ssg76
Nsg69
(lp6046
g62
(g78
g64
NtRp6047
(dp6048
g67
(dp6049
sg76
g6043
sg69
(lp6050
g62
(g83
g64
NtRp6051
(dp6052
g67
(dp6053
g87
g88
ssg76
g6047
sg69
(lp6054
S'session_id_admin'
p6055
asbag62
(g83
g64
NtRp6056
(dp6057
g67
(dp6058
g94
g95
ssg76
g6047
sg69
(lp6059
S':'
asbag62
(g83
g64
NtRp6060
(dp6061
g67
(dp6062
sg76
g6047
sg69
(lp6063
g62
(g63
g64
NtRp6064
(dp6065
g67
(dp6066
g75
I4
ssg76
g6060
sg69
(lp6067
g286
ag62
(g71
g64
NtRp6068
(dp6069
g67
(dp6070
g75
I3
ssg76
Nsg69
(lp6071
g62
(g78
g64
NtRp6072
(dp6073
g67
(dp6074
sg76
g6068
sg69
(lp6075
g62
(g83
g64
NtRp6076
(dp6077
g67
(dp6078
g87
g88
ssg76
g6072
sg69
(lp6079
g299
asbag62
(g83
g64
NtRp6080
(dp6081
g67
(dp6082
g94
g95
ssg76
g6072
sg69
(lp6083
S':'
asbag62
(g83
g64
NtRp6084
(dp6085
g67
(dp6086
sg76
g6072
sg69
(lp6087
g62
(g63
g64
NtRp6088
(dp6089
g67
(dp6090
g75
I3
ssg76
g6084
sg69
(lp6091
S''
asbasbasbag62
(g78
g64
NtRp6092
(dp6093
g67
(dp6094
sg76
g6068
sg69
(lp6095
g62
(g83
g64
NtRp6096
(dp6097
g67
(dp6098
g87
g88
ssg76
g6092
sg69
(lp6099
g320
asbag62
(g83
g64
NtRp6100
(dp6101
g67
(dp6102
g94
g95
ssg76
g6092
sg69
(lp6103
S':'
asbag62
(g83
g64
NtRp6104
(dp6105
g67
(dp6106
sg76
g6092
sg69
(lp6107
g62
(g63
g64
NtRp6108
(dp6109
g67
(dp6110
g75
I3
ssg76
g6104
sg69
(lp6111
S''
asbasbasbag62
(g78
g64
NtRp6112
(dp6113
g67
(dp6114
sg76
g6068
sg69
(lp6115
g62
(g83
g64
NtRp6116
(dp6117
g67
(dp6118
g87
g88
ssg76
g6112
sg69
(lp6119
g341
asbag62
(g83
g64
NtRp6120
(dp6121
g67
(dp6122
g94
g95
ssg76
g6112
sg69
(lp6123
S':'
asbag62
(g83
g64
NtRp6124
(dp6125
g67
(dp6126
sg76
g6112
sg69
(lp6127
g62
(g63
g64
NtRp6128
(dp6129
g67
(dp6130
g75
I3
ssg76
g6124
sg69
(lp6131
S''
asbasbasbag62
(g78
g64
NtRp6132
(dp6133
g67
(dp6134
sg76
g6068
sg69
(lp6135
g62
(g83
g64
NtRp6136
(dp6137
g67
(dp6138
g87
g88
ssg76
g6132
sg69
(lp6139
g362
asbag62
(g83
g64
NtRp6140
(dp6141
g67
(dp6142
g94
g95
ssg76
g6132
sg69
(lp6143
S':'
asbag62
(g83
g64
NtRp6144
(dp6145
g67
(dp6146
sg76
g6132
sg69
(lp6147
g62
(g63
g64
NtRp6148
(dp6149
g67
(dp6150
g75
I3
ssg76
g6144
sg69
(lp6151
S''
asbasbasbag62
(g78
g64
NtRp6152
(dp6153
g67
(dp6154
sg76
g6068
sg69
(lp6155
g62
(g83
g64
NtRp6156
(dp6157
g67
(dp6158
g87
g88
ssg76
g6152
sg69
(lp6159
g383
asbag62
(g83
g64
NtRp6160
(dp6161
g67
(dp6162
g94
g95
ssg76
g6152
sg69
(lp6163
S':'
asbag62
(g83
g64
NtRp6164
(dp6165
g67
(dp6166
sg76
g6152
sg69
(lp6167
g62
(g63
g64
NtRp6168
(dp6169
g67
(dp6170
g75
I3
ssg76
g6164
sg69
(lp6171
S''
asbasbasbag62
(g78
g64
NtRp6172
(dp6173
g67
(dp6174
sg76
g6068
sg69
(lp6175
g62
(g83
g64
NtRp6176
(dp6177
g67
(dp6178
g87
g88
ssg76
g6172
sg69
(lp6179
g404
asbag62
(g83
g64
NtRp6180
(dp6181
g67
(dp6182
g94
g95
ssg76
g6172
sg69
(lp6183
S':'
asbag62
(g83
g64
NtRp6184
(dp6185
g67
(dp6186
sg76
g6172
sg69
(lp6187
g62
(g63
g64
NtRp6188
(dp6189
g67
(dp6190
g75
I3
ssg76
g6184
sg69
(lp6191
S'/'
asbasbasbag62
(g78
g64
NtRp6192
(dp6193
g67
(dp6194
sg76
g6068
sg69
(lp6195
g62
(g83
g64
NtRp6196
(dp6197
g67
(dp6198
g87
g88
ssg76
g6192
sg69
(lp6199
g425
asbag62
(g83
g64
NtRp6200
(dp6201
g67
(dp6202
g94
g95
ssg76
g6192
sg69
(lp6203
S':'
asbag62
(g83
g64
NtRp6204
(dp6205
g67
(dp6206
sg76
g6192
sg69
(lp6207
g62
(g63
g64
NtRp6208
(dp6209
g67
(dp6210
g75
I3
ssg76
g6204
sg69
(lp6211
S''
asbasbasbag62
(g78
g64
NtRp6212
(dp6213
g67
(dp6214
sg76
g6068
sg69
(lp6215
g62
(g83
g64
NtRp6216
(dp6217
g67
(dp6218
g87
g88
ssg76
g6212
sg69
(lp6219
g446
asbag62
(g83
g64
NtRp6220
(dp6221
g67
(dp6222
g94
g95
ssg76
g6212
sg69
(lp6223
S':'
asbag62
(g83
g64
NtRp6224
(dp6225
g67
(dp6226
sg76
g6212
sg69
(lp6227
g62
(g63
g64
NtRp6228
(dp6229
g67
(dp6230
g75
I3
ssg76
g6224
sg69
(lp6231
S''
asbasbasbasbasbasbasbasbasbasbasbag62
(g78
g64
NtRp6232
(dp6233
g67
(dp6234
sg76
g5998
sg69
(lp6235
g62
(g83
g64
NtRp6236
(dp6237
g67
(dp6238
g87
g88
ssg76
g6232
sg69
(lp6239
S'delimiters'
p6240
asbag62
(g83
g64
NtRp6241
(dp6242
g67
(dp6243
g94
g95
ssg76
g6232
sg69
(lp6244
S':'
asbag62
(g83
g64
NtRp6245
(dp6246
g67
(dp6247
sg76
g6232
sg69
(lp6248
g62
(g63
g64
NtRp6249
(dp6250
g67
(dp6251
g75
I5
ssg76
g6245
sg69
(lp6252
g62
(g71
g64
NtRp6253
(dp6254
g67
(dp6255
g75
I4
ssg76
Nsg69
(lp6256
g62
(g78
g64
NtRp6257
(dp6258
g67
(dp6259
sg76
g6253
sg69
(lp6260
g62
(g83
g64
NtRp6261
(dp6262
g67
(dp6263
sg76
g6257
sg69
(lp6264
g62
(g63
g64
NtRp6265
(dp6266
g67
(dp6267
g75
I4
ssg76
g6261
sg69
(lp6268
S'{{'
p6269
asbasbasbag62
(g78
g64
NtRp6270
(dp6271
g67
(dp6272
sg76
g6253
sg69
(lp6273
g62
(g83
g64
NtRp6274
(dp6275
g67
(dp6276
sg76
g6270
sg69
(lp6277
g62
(g63
g64
NtRp6278
(dp6279
g67
(dp6280
g75
I4
ssg76
g6274
sg69
(lp6281
S'}}'
p6282
asbasbasbasbasbasbasbag62
(g78
g64
NtRp6283
(dp6284
g67
(dp6285
sg76
g5998
sg69
(lp6286
g62
(g83
g64
NtRp6287
(dp6288
g67
(dp6289
g87
g88
ssg76
g6283
sg69
(lp6290
S'files'
p6291
asbag62
(g83
g64
NtRp6292
(dp6293
g67
(dp6294
g94
g95
ssg76
g6283
sg69
(lp6295
S':'
asbag62
(g83
g64
NtRp6296
(dp6297
g67
(dp6298
sg76
g6283
sg69
(lp6299
g62
(g63
g64
NtRp6300
(dp6301
g67
(dp6302
g75
I5
ssg76
g6296
sg69
(lp6303
g62
(g71
g64
NtRp6304
(dp6305
g67
(dp6306
g75
I4
ssg76
Nsg69
(lp6307
g62
(g78
g64
NtRp6308
(dp6309
g67
(dp6310
sg76
g6304
sg69
(lp6311
g62
(g83
g64
NtRp6312
(dp6313
g67
(dp6314
sg76
g6308
sg69
(lp6315
g62
(g63
g64
NtRp6316
(dp6317
g67
(dp6318
g75
I4
ssg76
g6312
sg69
(lp6319
S'/admin/static/plugin_multiselect/jquery.multi-select.js'
p6320
asbasbasbag62
(g78
g64
NtRp6321
(dp6322
g67
(dp6323
sg76
g6304
sg69
(lp6324
g62
(g83
g64
NtRp6325
(dp6326
g67
(dp6327
sg76
g6321
sg69
(lp6328
g62
(g63
g64
NtRp6329
(dp6330
g67
(dp6331
g75
I4
ssg76
g6325
sg69
(lp6332
S'/admin/static/plugin_multiselect/multi-select.css'
p6333
asbasbasbag62
(g78
g64
NtRp6334
(dp6335
g67
(dp6336
sg76
g6304
sg69
(lp6337
g62
(g83
g64
NtRp6338
(dp6339
g67
(dp6340
sg76
g6334
sg69
(lp6341
g62
(g63
g64
NtRp6342
(dp6343
g67
(dp6344
g75
I4
ssg76
g6338
sg69
(lp6345
S'/admin/static/plugin_multiselect/start.js'
p6346
asbasbasbasbasbasbasbag62
(g78
g64
NtRp6347
(dp6348
g67
(dp6349
sg76
g5998
sg69
(lp6350
g62
(g83
g64
NtRp6351
(dp6352
g67
(dp6353
g87
g88
ssg76
g6347
sg69
(lp6354
S'flash'
p6355
asbag62
(g83
g64
NtRp6356
(dp6357
g67
(dp6358
g94
g95
ssg76
g6347
sg69
(lp6359
S':'
asbag62
(g83
g64
NtRp6360
(dp6361
g67
(dp6362
sg76
g6347
sg69
(lp6363
g62
(g63
g64
NtRp6364
(dp6365
g67
(dp6366
g75
I5
ssg76
g6360
sg69
(lp6367
S''
asbasbasbag62
(g78
g64
NtRp6368
(dp6369
g67
(dp6370
sg76
g5998
sg69
(lp6371
g62
(g83
g64
NtRp6372
(dp6373
g67
(dp6374
g87
g88
ssg76
g6368
sg69
(lp6375
S'generic_patterns'
p6376
asbag62
(g83
g64
NtRp6377
(dp6378
g67
(dp6379
g94
g95
ssg76
g6368
sg69
(lp6380
S':'
asbag62
(g83
g64
NtRp6381
(dp6382
g67
(dp6383
sg76
g6368
sg69
(lp6384
g62
(g63
g64
NtRp6385
(dp6386
g67
(dp6387
g75
I5
ssg76
g6381
sg69
(lp6388
g62
(g71
g64
NtRp6389
(dp6390
g67
(dp6391
g75
I4
ssg76
Nsg69
(lp6392
sbasbasbasbag62
(g78
g64
NtRp6393
(dp6394
g67
(dp6395
sg76
g5998
sg69
(lp6396
g62
(g83
g64
NtRp6397
(dp6398
g67
(dp6399
g87
g88
ssg76
g6393
sg69
(lp6400
S'headers'
p6401
asbag62
(g83
g64
NtRp6402
(dp6403
g67
(dp6404
g94
g95
ssg76
g6393
sg69
(lp6405
S':'
asbag62
(g83
g64
NtRp6406
(dp6407
g67
(dp6408
sg76
g6393
sg69
(lp6409
g62
(g63
g64
NtRp6410
(dp6411
g67
(dp6412
g75
I5
ssg76
g6406
sg69
(lp6413
g62
(g71
g64
NtRp6414
(dp6415
g67
(dp6416
g75
I4
ssg76
Nsg69
(lp6417
g62
(g78
g64
NtRp6418
(dp6419
g67
(dp6420
sg76
g6414
sg69
(lp6421
g62
(g83
g64
NtRp6422
(dp6423
g67
(dp6424
g87
g88
ssg76
g6418
sg69
(lp6425
S'X-Powered-By'
p6426
asbag62
(g83
g64
NtRp6427
(dp6428
g67
(dp6429
g94
g95
ssg76
g6418
sg69
(lp6430
S':'
asbag62
(g83
g64
NtRp6431
(dp6432
g67
(dp6433
sg76
g6418
sg69
(lp6434
g62
(g63
g64
NtRp6435
(dp6436
g67
(dp6437
g75
I4
ssg76
g6431
sg69
(lp6438
S'web2py'
p6439
asbasbasbasbasbasbasbag62
(g78
g64
NtRp6440
(dp6441
g67
(dp6442
sg76
g5998
sg69
(lp6443
g62
(g83
g64
NtRp6444
(dp6445
g67
(dp6446
g87
g88
ssg76
g6440
sg69
(lp6447
S'menu'
p6448
asbag62
(g83
g64
NtRp6449
(dp6450
g67
(dp6451
g94
g95
ssg76
g6440
sg69
(lp6452
S':'
asbag62
(g83
g64
NtRp6453
(dp6454
g67
(dp6455
sg76
g6440
sg69
(lp6456
g62
(g63
g64
NtRp6457
(dp6458
g67
(dp6459
g75
I5
ssg76
g6453
sg69
(lp6460
g62
(g71
g64
NtRp6461
(dp6462
g67
(dp6463
g75
I4
ssg76
Nsg69
(lp6464
g62
(g78
g64
NtRp6465
(dp6466
g67
(dp6467
sg76
g6461
sg69
(lp6468
g62
(g83
g64
NtRp6469
(dp6470
g67
(dp6471
sg76
g6465
sg69
(lp6472
g62
(g63
g64
NtRp6473
(dp6474
g67
(dp6475
g75
I4
ssg76
g6469
sg69
(lp6476
g62
(g71
g64
NtRp6477
(dp6478
g67
(dp6479
g75
I3
ssg76
Nsg69
(lp6480
g62
(g78
g64
NtRp6481
(dp6482
g67
(dp6483
sg76
g6477
sg69
(lp6484
g62
(g83
g64
NtRp6485
(dp6486
g67
(dp6487
sg76
g6481
sg69
(lp6488
g62
(g63
g64
NtRp6489
(dp6490
g67
(dp6491
g75
I3
ssg76
g6485
sg69
(lp6492
cgluon.languages
lazyT_unpickle
p6493
(S's\x04\x00\x00\x00Site'
tRp6494
asbasbasbag62
(g78
g64
NtRp6495
(dp6496
g67
(dp6497
sg76
g6477
sg69
(lp6498
g62
(g83
g64
NtRp6499
(dp6500
g67
(dp6501
sg76
g6495
sg69
(lp6502
g62
(g63
g64
NtRp6503
(dp6504
g67
(dp6505
g75
I3
ssg76
g6499
sg69
(lp6506
g105
asbasbasbag62
(g78
g64
NtRp6507
(dp6508
g67
(dp6509
sg76
g6477
sg69
(lp6510
g62
(g83
g64
NtRp6511
(dp6512
g67
(dp6513
sg76
g6507
sg69
(lp6514
g62
(g63
g64
NtRp6515
(dp6516
g67
(dp6517
g75
I3
ssg76
g6511
sg69
(lp6518
S'/admin/default/site'
p6519
asbasbasbasbasbasbasbag62
(g78
g64
NtRp6520
(dp6521
g67
(dp6522
sg76
g6461
sg69
(lp6523
g62
(g83
g64
NtRp6524
(dp6525
g67
(dp6526
sg76
g6520
sg69
(lp6527
g62
(g63
g64
NtRp6528
(dp6529
g67
(dp6530
g75
I4
ssg76
g6524
sg69
(lp6531
g62
(g71
g64
NtRp6532
(dp6533
g67
(dp6534
g75
I3
ssg76
Nsg69
(lp6535
g62
(g78
g64
NtRp6536
(dp6537
g67
(dp6538
sg76
g6532
sg69
(lp6539
g62
(g83
g64
NtRp6540
(dp6541
g67
(dp6542
sg76
g6536
sg69
(lp6543
g62
(g63
g64
NtRp6544
(dp6545
g67
(dp6546
g75
I3
ssg76
g6540
sg69
(lp6547
g6493
(S's\x06\x00\x00\x00Logout'
tRp6548
asbasbasbag62
(g78
g64
NtRp6549
(dp6550
g67
(dp6551
sg76
g6532
sg69
(lp6552
g62
(g83
g64
NtRp6553
(dp6554
g67
(dp6555
sg76
g6549
sg69
(lp6556
g62
(g63
g64
NtRp6557
(dp6558
g67
(dp6559
g75
I3
ssg76
g6553
sg69
(lp6560
g105
asbasbasbag62
(g78
g64
NtRp6561
(dp6562
g67
(dp6563
sg76
g6532
sg69
(lp6564
g62
(g83
g64
NtRp6565
(dp6566
g67
(dp6567
sg76
g6561
sg69
(lp6568
g62
(g63
g64
NtRp6569
(dp6570
g67
(dp6571
g75
I3
ssg76
g6565
sg69
(lp6572
S'/admin/default/logout'
p6573
asbasbasbasbasbasbasbag62
(g78
g64
NtRp6574
(dp6575
g67
(dp6576
sg76
g6461
sg69
(lp6577
g62
(g83
g64
NtRp6578
(dp6579
g67
(dp6580
sg76
g6574
sg69
(lp6581
g62
(g63
g64
NtRp6582
(dp6583
g67
(dp6584
g75
I4
ssg76
g6578
sg69
(lp6585
g62
(g71
g64
NtRp6586
(dp6587
g67
(dp6588
g75
I3
ssg76
Nsg69
(lp6589
g62
(g78
g64
NtRp6590
(dp6591
g67
(dp6592
sg76
g6586
sg69
(lp6593
g62
(g83
g64
NtRp6594
(dp6595
g67
(dp6596
sg76
g6590
sg69
(lp6597
g62
(g63
g64
NtRp6598
(dp6599
g67
(dp6600
g75
I3
ssg76
g6594
sg69
(lp6601
g6493
(S's\x05\x00\x00\x00Debug'
tRp6602
asbasbasbag62
(g78
g64
NtRp6603
(dp6604
g67
(dp6605
sg76
g6586
sg69
(lp6606
g62
(g83
g64
NtRp6607
(dp6608
g67
(dp6609
sg76
g6603
sg69
(lp6610
g62
(g63
g64
NtRp6611
(dp6612
g67
(dp6613
g75
I3
ssg76
g6607
sg69
(lp6614
g105
asbasbasbag62
(g78
g64
NtRp6615
(dp6616
g67
(dp6617
sg76
g6586
sg69
(lp6618
g62
(g83
g64
NtRp6619
(dp6620
g67
(dp6621
sg76
g6615
sg69
(lp6622
g62
(g63
g64
NtRp6623
(dp6624
g67
(dp6625
g75
I3
ssg76
g6619
sg69
(lp6626
S'/admin/debug/interact'
p6627
asbasbasbasbasbasbasbag62
(g78
g64
NtRp6628
(dp6629
g67
(dp6630
sg76
g6461
sg69
(lp6631
g62
(g83
g64
NtRp6632
(dp6633
g67
(dp6634
sg76
g6628
sg69
(lp6635
g62
(g63
g64
NtRp6636
(dp6637
g67
(dp6638
g75
I4
ssg76
g6632
sg69
(lp6639
g62
(g71
g64
NtRp6640
(dp6641
g67
(dp6642
g75
I3
ssg76
Nsg69
(lp6643
g62
(g78
g64
NtRp6644
(dp6645
g67
(dp6646
sg76
g6640
sg69
(lp6647
g62
(g83
g64
NtRp6648
(dp6649
g67
(dp6650
sg76
g6644
sg69
(lp6651
g62
(g63
g64
NtRp6652
(dp6653
g67
(dp6654
g75
I3
ssg76
g6648
sg69
(lp6655
g6493
(S's\x04\x00\x00\x00Help'
tRp6656
asbasbasbag62
(g78
g64
NtRp6657
(dp6658
g67
(dp6659
sg76
g6640
sg69
(lp6660
g62
(g83
g64
NtRp6661
(dp6662
g67
(dp6663
sg76
g6657
sg69
(lp6664
g62
(g63
g64
NtRp6665
(dp6666
g67
(dp6667
g75
I3
ssg76
g6661
sg69
(lp6668
g105
asbasbasbag62
(g78
g64
NtRp6669
(dp6670
g67
(dp6671
sg76
g6640
sg69
(lp6672
g62
(g83
g64
NtRp6673
(dp6674
g67
(dp6675
sg76
g6669
sg69
(lp6676
g62
(g63
g64
NtRp6677
(dp6678
g67
(dp6679
g75
I3
ssg76
g6673
sg69
(lp6680
S'http://web2py.com/examples'
p6681
asbasbasbasbasbasbasbasbasbasbasbag62
(g78
g64
NtRp6682
(dp6683
g67
(dp6684
sg76
g5998
sg69
(lp6685
g62
(g83
g64
NtRp6686
(dp6687
g67
(dp6688
g87
g88
ssg76
g6682
sg69
(lp6689
S'meta'
p6690
asbag62
(g83
g64
NtRp6691
(dp6692
g67
(dp6693
g94
g95
ssg76
g6682
sg69
(lp6694
S':'
asbag62
(g83
g64
NtRp6695
(dp6696
g67
(dp6697
sg76
g6682
sg69
(lp6698
g62
(g63
g64
NtRp6699
(dp6700
g67
(dp6701
g75
I5
ssg76
g6695
sg69
(lp6702
g62
(g71
g64
NtRp6703
(dp6704
g67
(dp6705
g75
I4
ssg76
Nsg69
(lp6706
sbasbasbasbag62
(g78
g64
NtRp6707
(dp6708
g67
(dp6709
sg76
g5998
sg69
(lp6710
g62
(g83
g64
NtRp6711
(dp6712
g67
(dp6713
g87
g88
ssg76
g6707
sg69
(lp6714
S'models_to_run'
p6715
asbag62
(g83
g64
NtRp6716
(dp6717
g67
(dp6718
g94
g95
ssg76
g6707
sg69
(lp6719
S':'
asbag62
(g83
g64
NtRp6720
(dp6721
g67
(dp6722
sg76
g6707
sg69
(lp6723
g62
(g63
g64
NtRp6724
(dp6725
g67
(dp6726
g75
I5
ssg76
g6720
sg69
(lp6727
g62
(g71
g64
NtRp6728
(dp6729
g67
(dp6730
g75
I4
ssg76
Nsg69
(lp6731
g62
(g78
g64
NtRp6732
(dp6733
g67
(dp6734
sg76
g6728
sg69
(lp6735
g62
(g83
g64
NtRp6736
(dp6737
g67
(dp6738
sg76
g6732
sg69
(lp6739
g62
(g63
g64
NtRp6740
(dp6741
g67
(dp6742
g75
I4
ssg76
g6736
sg69
(lp6743
S'^\\w+\\.py$'
p6744
asbasbasbag62
(g78
g64
NtRp6745
(dp6746
g67
(dp6747
sg76
g6728
sg69
(lp6748
g62
(g83
g64
NtRp6749
(dp6750
g67
(dp6751
sg76
g6745
sg69
(lp6752
g62
(g63
g64
NtRp6753
(dp6754
g67
(dp6755
g75
I4
ssg76
g6749
sg69
(lp6756
S'^wizard/\\w+\\.py$'
p6757
asbasbasbag62
(g78
g64
NtRp6758
(dp6759
g67
(dp6760
sg76
g6728
sg69
(lp6761
g62
(g83
g64
NtRp6762
(dp6763
g67
(dp6764
sg76
g6758
sg69
(lp6765
g62
(g63
g64
NtRp6766
(dp6767
g67
(dp6768
g75
I4
ssg76
g6762
sg69
(lp6769
S'^wizard/step6/\\w+\\.py$'
p6770
asbasbasbasbasbasbasbag62
(g78
g64
NtRp6771
(dp6772
g67
(dp6773
sg76
g5998
sg69
(lp6774
g62
(g83
g64
NtRp6775
(dp6776
g67
(dp6777
g87
g88
ssg76
g6771
sg69
(lp6778
S'postprocessing'
p6779
asbag62
(g83
g64
NtRp6780
(dp6781
g67
(dp6782
g94
g95
ssg76
g6771
sg69
(lp6783
S':'
asbag62
(g83
g64
NtRp6784
(dp6785
g67
(dp6786
sg76
g6771
sg69
(lp6787
g62
(g63
g64
NtRp6788
(dp6789
g67
(dp6790
g75
I5
ssg76
g6784
sg69
(lp6791
g62
(g71
g64
NtRp6792
(dp6793
g67
(dp6794
g75
I4
ssg76
Nsg69
(lp6795
sbasbasbasbag62
(g78
g64
NtRp6796
(dp6797
g67
(dp6798
sg76
g5998
sg69
(lp6799
g62
(g83
g64
NtRp6800
(dp6801
g67
(dp6802
g87
g88
ssg76
g6796
sg69
(lp6803
S'session_file'
p6804
asbag62
(g83
g64
NtRp6805
(dp6806
g67
(dp6807
g94
g95
ssg76
g6796
sg69
(lp6808
S':'
asbag62
(g83
g64
NtRp6809
(dp6810
g67
(dp6811
sg76
g6796
sg69
(lp6812
g62
(g63
g64
NtRp6813
(dp6814
g67
(dp6815
g75
I5
ssg76
g6809
sg69
(lp6816
S"<open file 'C:\\Users\\admin\\Desktop\\Sathvik\\Tharuni.Org\\applications\\admin\\sessions\\127.0.0.1-b09474c4-74c6-4bff-864d-e3d6c3b6e87e', mode 'rb+' at 0x00000000086BF420>"
p6817
asbasbasbag62
(g78
g64
NtRp6818
(dp6819
g67
(dp6820
sg76
g5998
sg69
(lp6821
g62
(g83
g64
NtRp6822
(dp6823
g67
(dp6824
g87
g88
ssg76
g6818
sg69
(lp6825
S'session_filename'
p6826
asbag62
(g83
g64
NtRp6827
(dp6828
g67
(dp6829
g94
g95
ssg76
g6818
sg69
(lp6830
S':'
asbag62
(g83
g64
NtRp6831
(dp6832
g67
(dp6833
sg76
g6818
sg69
(lp6834
g62
(g63
g64
NtRp6835
(dp6836
g67
(dp6837
g75
I5
ssg76
g6831
sg69
(lp6838
S'C:\\Users\\admin\\Desktop\\Sathvik\\Tharuni.Org\\applications\\admin\\sessions\\127.0.0.1-b09474c4-74c6-4bff-864d-e3d6c3b6e87e'
p6839
asbasbasbag62
(g78
g64
NtRp6840
(dp6841
g67
(dp6842
sg76
g5998
sg69
(lp6843
g62
(g83
g64
NtRp6844
(dp6845
g67
(dp6846
g87
g88
ssg76
g6840
sg69
(lp6847
S'session_id'
p6848
asbag62
(g83
g64
NtRp6849
(dp6850
g67
(dp6851
g94
g95
ssg76
g6840
sg69
(lp6852
S':'
asbag62
(g83
g64
NtRp6853
(dp6854
g67
(dp6855
sg76
g6840
sg69
(lp6856
g62
(g63
g64
NtRp6857
(dp6858
g67
(dp6859
g75
I5
ssg76
g6853
sg69
(lp6860
g286
asbasbasbag62
(g78
g64
NtRp6861
(dp6862
g67
(dp6863
sg76
g5998
sg69
(lp6864
g62
(g83
g64
NtRp6865
(dp6866
g67
(dp6867
g87
g88
ssg76
g6861
sg69
(lp6868
S'session_id_name'
p6869
asbag62
(g83
g64
NtRp6870
(dp6871
g67
(dp6872
g94
g95
ssg76
g6861
sg69
(lp6873
S':'
asbag62
(g83
g64
NtRp6874
(dp6875
g67
(dp6876
sg76
g6861
sg69
(lp6877
g62
(g63
g64
NtRp6878
(dp6879
g67
(dp6880
g75
I5
ssg76
g6874
sg69
(lp6881
g6055
asbasbasbag62
(g78
g64
NtRp6882
(dp6883
g67
(dp6884
sg76
g5998
sg69
(lp6885
g62
(g83
g64
NtRp6886
(dp6887
g67
(dp6888
g87
g88
ssg76
g6882
sg69
(lp6889
S'session_locked'
p6890
asbag62
(g83
g64
NtRp6891
(dp6892
g67
(dp6893
g94
g95
ssg76
g6882
sg69
(lp6894
S':'
asbag62
(g83
g64
NtRp6895
(dp6896
g67
(dp6897
sg76
g6882
sg69
(lp6898
g62
(g63
g64
NtRp6899
(dp6900
g67
(dp6901
g75
I5
ssg76
g6895
sg69
(lp6902
g1693
asbasbasbag62
(g78
g64
NtRp6903
(dp6904
g67
(dp6905
sg76
g5998
sg69
(lp6906
g62
(g83
g64
NtRp6907
(dp6908
g67
(dp6909
g87
g88
ssg76
g6903
sg69
(lp6910
S'session_new'
p6911
asbag62
(g83
g64
NtRp6912
(dp6913
g67
(dp6914
g94
g95
ssg76
g6903
sg69
(lp6915
S':'
asbag62
(g83
g64
NtRp6916
(dp6917
g67
(dp6918
sg76
g6903
sg69
(lp6919
g62
(g63
g64
NtRp6920
(dp6921
g67
(dp6922
g75
I5
ssg76
g6916
sg69
(lp6923
g105
asbasbasbag62
(g78
g64
NtRp6924
(dp6925
g67
(dp6926
sg76
g5998
sg69
(lp6927
g62
(g83
g64
NtRp6928
(dp6929
g67
(dp6930
g87
g88
ssg76
g6924
sg69
(lp6931
S'status'
p6932
asbag62
(g83
g64
NtRp6933
(dp6934
g67
(dp6935
g94
g95
ssg76
g6924
sg69
(lp6936
S':'
asbag62
(g83
g64
NtRp6937
(dp6938
g67
(dp6939
sg76
g6924
sg69
(lp6940
g62
(g63
g64
NtRp6941
(dp6942
g67
(dp6943
g75
I5
ssg76
g6937
sg69
(lp6944
S'200'
p6945
asbasbasbag62
(g78
g64
NtRp6946
(dp6947
g67
(dp6948
sg76
g5998
sg69
(lp6949
g62
(g83
g64
NtRp6950
(dp6951
g67
(dp6952
g87
g88
ssg76
g6946
sg69
(lp6953
S'subtitle'
p6954
asbag62
(g83
g64
NtRp6955
(dp6956
g67
(dp6957
g94
g95
ssg76
g6946
sg69
(lp6958
S':'
asbag62
(g83
g64
NtRp6959
(dp6960
g67
(dp6961
sg76
g6946
sg69
(lp6962
g62
(g63
g64
NtRp6963
(dp6964
g67
(dp6965
g75
I5
ssg76
g6959
sg69
(lp6966
S'admin'
p6967
asbasbasbag62
(g78
g64
NtRp6968
(dp6969
g67
(dp6970
sg76
g5998
sg69
(lp6971
g62
(g83
g64
NtRp6972
(dp6973
g67
(dp6974
g87
g88
ssg76
g6968
sg69
(lp6975
S'title'
p6976
asbag62
(g83
g64
NtRp6977
(dp6978
g67
(dp6979
g94
g95
ssg76
g6968
sg69
(lp6980
S':'
asbag62
(g83
g64
NtRp6981
(dp6982
g67
(dp6983
sg76
g6968
sg69
(lp6984
g62
(g63
g64
NtRp6985
(dp6986
g67
(dp6987
g75
I5
ssg76
g6981
sg69
(lp6988
S'step6 '
p6989
asbasbasbag62
(g78
g64
NtRp6990
(dp6991
g67
(dp6992
sg76
g5998
sg69
(lp6993
g62
(g83
g64
NtRp6994
(dp6995
g67
(dp6996
g87
g88
ssg76
g6990
sg69
(lp6997
S'view'
p6998
asbag62
(g83
g64
NtRp6999
(dp7000
g67
(dp7001
g94
g95
ssg76
g6990
sg69
(lp7002
S':'
asbag62
(g83
g64
NtRp7003
(dp7004
g67
(dp7005
sg76
g6990
sg69
(lp7006
g62
(g63
g64
NtRp7007
(dp7008
g67
(dp7009
g75
I5
ssg76
g7003
sg69
(lp7010
S'wizard/step.html'
p7011
asbasbasbasbasbsS'locals'
p7012
(dp7013
S'mode'
p7014
S"'rb'"
p7015
sg35
S"r'C:\\Users\\admin\\Desktop\\Sathvik\\Tharuni.Org\\applications\\admin\\..\\tharuni\\models\\db.py'"
p7016
sssS'traceback'
p7017
S'Traceback (most recent call last):\n  File "C:\\Users\\admin\\Desktop\\Sathvik\\Tharuni.Org\\gluon\\restricted.py", line 209, in restricted\n    exec ccode in environment\n  File "C:\\Users\\admin\\Desktop\\Sathvik\\Tharuni.Org\\applications\\admin\\controllers/wizard.py", line 560, in <module>\n  File "C:\\Users\\admin\\Desktop\\Sathvik\\Tharuni.Org\\gluon\\globals.py", line 186, in <lambda>\n    self._caller = lambda f: f()\n  File "C:\\Users\\admin\\Desktop\\Sathvik\\Tharuni.Org\\applications\\admin\\controllers/wizard.py", line 228, in step6\n    create(form.vars)\n  File "C:\\Users\\admin\\Desktop\\Sathvik\\Tharuni.Org\\applications\\admin\\controllers/wizard.py", line 501, in create\n    fix_db(model)\n  File "C:\\Users\\admin\\Desktop\\Sathvik\\Tharuni.Org\\applications\\admin\\controllers/wizard.py", line 368, in fix_db\n    content = read_file(filename,\'rb\')\n  File "C:\\Users\\admin\\Desktop\\Sathvik\\Tharuni.Org\\gluon\\fileutils.py", line 55, in read_file\n    f = open(filename, mode)\nIOError: [Errno 2] No such file or directory: \'C:\\\\Users\\\\admin\\\\Desktop\\\\Sathvik\\\\Tharuni.Org\\\\applications\\\\admin\\\\..\\\\tharuni\\\\models\\\\db.py\'\n'
p7018
s.