(dp1
S'output'
p2
S"<type 'exceptions.WindowsError'> [Error 32] The process cannot access the file because it is being used by another process: 'C:/Users/admin/Desktop/Sathvik/Tharuni.Org/applications/admin/sessions/127.0.0.1-b09474c4-74c6-4bff-864d-e3d6c3b6e87e'"
p3
sS'layer'
p4
S'C:\\Users\\admin\\Desktop\\Sathvik\\Tharuni.Org\\applications\\admin\\controllers/default.py'
p5
sS'code'
p6
S'# coding: utf8\n\nEXPERIMENTAL_STUFF = True\n\nif EXPERIMENTAL_STUFF:\n    is_mobile = request.user_agent().is_mobile\n    if is_mobile:\n        response.view = response.view.replace(\'default/\',\'default.mobile/\')\n        response.menu = []\n\nimport re\nfrom gluon.admin import *\nfrom gluon.fileutils import abspath, read_file, write_file\nfrom gluon.utils import web2py_uuid\nfrom glob import glob\nimport shutil\nimport platform\ntry:\n    from git import *\n    have_git = True\nexcept ImportError:\n    have_git = False\n    GIT_MISSING = \'requires gitpython module, but not installed or incompatible version\'\n\nfrom gluon.languages import (read_possible_languages, read_dict, write_dict,\n                             read_plural_dict, write_plural_dict)\n\n\nif DEMO_MODE and request.function in [\'change_password\',\'pack\',\'pack_plugin\',\'upgrade_web2py\',\'uninstall\',\'cleanup\',\'compile_app\',\'remove_compiled_app\',\'delete\',\'delete_plugin\',\'create_file\',\'upload_file\',\'update_languages\',\'reload_routes\',\'git_push\',\'git_pull\']:\n    session.flash = T(\'disabled in demo mode\')\n    redirect(URL(\'site\'))\n\n\nif not is_manager() and request.function in [\'change_password\',\'upgrade_web2py\']:\n    session.flash = T(\'disabled in multi user mode\')\n    redirect(URL(\'site\'))\n\nif FILTER_APPS and request.args(0) and not request.args(0) in FILTER_APPS:\n    session.flash = T(\'disabled in demo mode\')\n    redirect(URL(\'site\'))\n\n\nif not session.token: session.token = web2py_uuid()\n\ndef count_lines(data):\n    return len([line for line in data.split(\'\\n\') if line.strip() and not line.startswith(\'#\')])\n\ndef log_progress(app,mode=\'EDIT\',filename=None,progress=0):\n    progress_file = os.path.join(apath(app, r=request), \'progress.log\')\n    now = str(request.now)[:19]\n    if not os.path.exists(progress_file):\n        safe_open(progress_file,\'w\').write(\'[%s] START\\n\' % now)\n    if filename:\n        safe_open(progress_file,\'a\').write(\'[%s] %s %s: %s\\n\' % (now,mode,filename,progress))\n\ndef safe_open(a,b):\n    if DEMO_MODE and (\'w\' in b or \'a\' in b):\n        class tmp:\n            def write(self,data): pass\n        return tmp()\n    return open(a,b)\n\ndef safe_read(a, b=\'r\'):\n    safe_file = safe_open(a, b)\n    try:\n        return safe_file.read()\n    finally:\n        safe_file.close()\n\ndef safe_write(a, value, b=\'w\'):\n    safe_file = safe_open(a, b)\n    try:\n        safe_file.write(value)\n    finally:\n        safe_file.close()\n\ndef get_app(name=None):\n    app = name or request.args(0)\n    if app and (not MULTI_USER_MODE or is_manager() or \\\n                    db(db.app.name==app)(db.app.owner==auth.user.id).count()):\n        return app\n    session.flash = T(\'App does not exist or your are not authorized\')\n    redirect(URL(\'site\'))\n\ndef index():\n    """ Index handler """\n\n    send = request.vars.send\n    if DEMO_MODE:\n        session.authorized = True\n        session.last_time = t0\n    if not send:\n        send = URL(\'site\')\n    if session.authorized:\n        redirect(send)\n    elif request.vars.password:\n        if verify_password(request.vars.password):\n            session.authorized = True\n            login_record(True)\n\n            if CHECK_VERSION:\n                session.check_version = True\n            else:\n                session.check_version = False\n\n            session.last_time = t0\n            if isinstance(send, list):  # ## why does this happen?\n                send = str(send[0])\n\n            redirect(send)\n        else:\n            times_denied = login_record(False)\n            if times_denied >= allowed_number_of_attempts:\n                response.flash = \\\n                    T(\'admin disabled because too many invalid login attempts\')\n            elif times_denied == allowed_number_of_attempts - 1:\n                response.flash = \\\n                    T(\'You have one more login attempt before you are locked out\')\n            else:\n                response.flash = T(\'invalid password.\')\n    return dict(send=send)\n\n\ndef check_version():\n    """ Checks if web2py is up to date """\n\n    session.forget()\n    session._unlock(response)\n\n    new_version, version_number = check_new_version(request.env.web2py_version,\n                                    WEB2PY_VERSION_URL)\n\n    if new_version == -1:\n        return A(T(\'Unable to check for upgrades\'), _href=WEB2PY_URL)\n    elif new_version != True:\n        return A(T(\'web2py is up to date\'), _href=WEB2PY_URL)\n    elif platform.system().lower() in (\'windows\',\'win32\',\'win64\') and os.path.exists("web2py.exe"):\n        return SPAN(\'You should upgrade to version %s.%s.%s\' % version_number[:3])\n    else:\n        return sp_button(URL(\'upgrade_web2py\'), T(\'upgrade now\')) \\\n            + XML(\' <strong class="upgrade_version">%s.%s.%s</strong>\' \\\n                      % version_number[:3])\n\ndef logout():\n    """ Logout handler """\n    session.authorized = None\n    if MULTI_USER_MODE:\n        redirect(URL(\'user/logout\'))\n    redirect(URL(\'index\'))\n\n\ndef change_password():\n\n    if session.pam_user:\n        session.flash = T(\'PAM authenticated user, cannot change password here\')\n        redirect(URL(\'site\'))\n    form=SQLFORM.factory(Field(\'current_admin_password\',\'password\'),\n                         Field(\'new_admin_password\',\'password\',requires=IS_STRONG()),\n                         Field(\'new_admin_password_again\',\'password\'))\n    if form.accepts(request.vars):\n        if not verify_password(request.vars.current_admin_password):\n            form.errors.current_admin_password = T(\'invalid password\')\n        elif form.vars.new_admin_password != form.vars.new_admin_password_again:\n            form.errors.new_admin_password_again = T(\'no match\')\n        else:\n            path = abspath(\'parameters_%s.py\' % request.env.server_port)\n            safe_write(path, \'password="%s"\' % CRYPT()(request.vars.new_admin_password)[0])\n            session.flash = T(\'password changed\')\n            redirect(URL(\'site\'))\n    return dict(form=form)\n\n\ndef site():\n    """ Site handler """\n\n    myversion = request.env.web2py_version\n\n    # Shortcut to make the elif statements more legible\n    file_or_appurl = \'file\' in request.vars or \'appurl\' in request.vars\n\n    class IS_VALID_APPNAME(object):\n        def __call__(self,value):\n            if not re.compile(\'\\w+\').match(value):\n                return (value,T(\'Invalid application name\'))\n            if not request.vars.overwrite and \\\n                    os.path.exists(os.path.join(apath(r=request),value)):\n                return (value,T(\'Application exists already\'))\n            return (value,None)\n\n    is_appname = IS_VALID_APPNAME()\n    form_create = SQLFORM.factory(Field(\'name\',requires=is_appname),\n                                  table_name=\'appcreate\')\n    form_update = SQLFORM.factory(Field(\'name\',requires=is_appname),\n                                  Field(\'file\',\'upload\',uploadfield=False),\n                                  Field(\'url\'),\n                                  Field(\'overwrite\',\'boolean\'),\n                                  table_name=\'appupdate\')\n    form_create.process()\n    form_update.process()\n\n    if DEMO_MODE:\n        pass\n\n    elif form_create.accepted:\n        # create a new application\n        appname = cleanpath(form_create.vars.name)\n        created, error = app_create(appname, request,info=True)\n        if created:\n            if MULTI_USER_MODE:\n                db.app.insert(name=appname,owner=auth.user.id)\n            log_progress(appname)\n            session.flash = T(\'new application "%s" created\', appname)\n            redirect(URL(\'design\',args=appname))\n        else:\n            session.flash = \\\n                DIV(T(\'unable to create application "%s"\' % appname),\n                    PRE(error))                      \n        redirect(URL(r=request))\n\n    elif form_update.accepted:\n        if (form_update.vars.url or \'\').endswith(\'.git\'):\n            if not have_git:\n                session.flash = GIT_MISSING\n                redirect(URL(r=request))\n            target = os.path.join(apath(r=request),form_update.vars.name)\n            try:\n                new_repo = Repo.clone_from(form_update.vars.url,target)\n                session.flash = T(\'new application "%s" imported\',\n                                  form_update.vars.name)\n            except GitCommandError, err:\n                session.flash = T(\'Invalid git repository specified.\')\n            redirect(URL(r=request))\n\n        elif form_update.vars.url:\n            # fetch an application via URL or file upload\n            try:\n                f = urllib.urlopen(form_update.vars.url)\n                if f.code == 404:\n                    raise Exception("404 file not found")\n            except Exception, e:\n                session.flash = \\\n                    DIV(T(\'Unable to download app because:\'),PRE(str(e)))\n                redirect(URL(r=request))\n            fname = form_update.vars.url\n            \n        elif form_update.accepted and form_update.vars.file:\n            fname = request.vars.file.filename\n            f = request.vars.file.file\n            \n        else:\n            session.flash = \'No file uploaded and no URL specified\'\n            redirect(URL(r=request))\n\n        if f:\n            appname = cleanpath(form_update.vars.name)\n            installed = app_install(appname, f, \n                                    request, fname,\n                                    overwrite=form_update.vars.overwrite)\n        if f and installed:\n            msg = \'application %(appname)s installed with md5sum: %(digest)s\'\n            if MULTI_USER_MODE:\n                db.app.insert(name=appname,owner=auth.user.id)\n            log_progress(appname)\n            session.flash = T(msg, dict(appname=appname,\n                                        digest=md5_hash(installed)))\n        elif f and form_update.vars.overwrite:\n            msg = \'unable to install application "%(appname)s"\'\n            session.flash = T(msg, dict(appname=form_update.vars.name))\n        else:\n            msg = \'unable to install application "%(appname)s"\'\n            session.flash = T(msg, dict(appname=form_update.vars.name))\n        redirect(URL(r=request))\n\n    regex = re.compile(\'^\\w+$\')\n\n    if is_manager():\n        apps = [f for f in os.listdir(apath(r=request)) if regex.match(f)]\n    else:\n        apps = [f.name for f in db(db.app.owner==auth.user_id).select()]\n\n    if FILTER_APPS:\n        apps = [f for f in apps if f in FILTER_APPS]\n\n    apps = sorted(apps,lambda a,b:cmp(a.upper(),b.upper()))\n\n    return dict(app=None, apps=apps, myversion=myversion, \n                form_create=form_create, form_update=form_update)\n\n\ndef report_progress(app):\n    import datetime\n    progress_file = os.path.join(apath(app, r=request), \'progress.log\')\n    regex = re.compile(\'\\[(.*?)\\][^\\:]+\\:\\s+(\\-?\\d+)\')\n    if not os.path.exists(progress_file):\n        return []\n    matches = regex.findall(open(progress_file,\'r\').read())\n    events,counter = [],0\n    for m in matches:\n        if not m: continue\n        days = -(request.now - datetime.datetime.strptime(m[0],\'%Y-%m-%d %H:%M:%S\')).days\n        counter += int(m[1])\n        events.append([days,counter])\n    return events\n\n\ndef pack():\n    app = get_app()\n\n    try:\n        if len(request.args) == 1:\n            fname = \'web2py.app.%s.w2p\' % app\n            filename = app_pack(app, request, raise_ex=True)\n        else:\n            fname = \'web2py.app.%s.compiled.w2p\' % app\n            filename = app_pack_compiled(app, request, raise_ex=True)\n    except Exception, e:\n        filename = None\n\n    if filename:\n        response.headers[\'Content-Type\'] = \'application/w2p\'\n        disposition = \'attachment; filename=%s\' % fname\n        response.headers[\'Content-Disposition\'] = disposition\n        return safe_read(filename, \'rb\')\n    else:\n        session.flash = T(\'internal error: %s\' % e)\n        redirect(URL(\'site\'))\n\ndef pack_plugin():\n    app = get_app()\n    if len(request.args) == 2:\n        fname = \'web2py.plugin.%s.w2p\' % request.args[1]\n        filename = plugin_pack(app, request.args[1], request)\n    if filename:\n        response.headers[\'Content-Type\'] = \'application/w2p\'\n        disposition = \'attachment; filename=%s\' % fname\n        response.headers[\'Content-Disposition\'] = disposition\n        return safe_read(filename, \'rb\')\n    else:\n        session.flash = T(\'internal error\')\n        redirect(URL(\'plugin\',args=request.args))\n\ndef upgrade_web2py():\n    dialog = FORM.confirm(T(\'Upgrade\'),\n                         {T(\'Cancel\'):URL(\'site\')})    \n    if dialog.accepted:\n        (success, error) = upgrade(request)\n        if success:\n            session.flash = T(\'web2py upgraded; please restart it\')\n        else:\n            session.flash = T(\'unable to upgrade because "%s"\', error)\n        redirect(URL(\'site\'))\n    return dict(dialog=dialog)\n\ndef uninstall():\n    app = get_app()\n\n    dialog = FORM.confirm(T(\'Uninstall\'),\n                         {T(\'Cancel\'):URL(\'site\')})\n    \n    if dialog.accepted:\n        if MULTI_USER_MODE:\n            if is_manager() and db(db.app.name==app).delete():\n                pass\n            elif db(db.app.name==app)(db.app.owner==auth.user.id).delete():\n                pass\n            else:\n                session.flash = T(\'no permission to uninstall "%s"\', app)\n                redirect(URL(\'site\'))\n        if app_uninstall(app, request):\n            session.flash = T(\'application "%s" uninstalled\', app)\n        else:\n            session.flash = T(\'unable to uninstall "%s"\', app)\n        redirect(URL(\'site\'))\n    return dict(app=app, dialog=dialog)\n\n\ndef cleanup():\n    app = get_app()\n    clean = app_cleanup(app, request)\n    if not clean:\n        session.flash = T("some files could not be removed")\n    else:\n        session.flash = T(\'cache, errors and sessions cleaned\')\n\n    redirect(URL(\'site\'))\n\n\ndef compile_app():\n    app = get_app()\n    c = app_compile(app, request)\n    if not c:\n        session.flash = T(\'application compiled\')\n    else:\n        session.flash = DIV(T(\'Cannot compile: there are errors in your app:\'),\n                              CODE(c))\n    redirect(URL(\'site\'))\n\n\ndef remove_compiled_app():\n    """ Remove the compiled application """\n    app = get_app()\n    remove_compiled_application(apath(app, r=request))\n    session.flash = T(\'compiled application removed\')\n    redirect(URL(\'site\'))\n\ndef delete():\n    """ Object delete handler """\n    app = get_app()\n    filename = \'/\'.join(request.args)\n    sender = request.vars.sender\n\n    if isinstance(sender, list):  # ## fix a problem with Vista\n        sender = sender[0]\n\n    if \'nodelete\' in request.vars:\n        redirect(URL(sender, anchor=request.vars.id))\n    elif \'delete\' in request.vars:\n        try:\n            full_path = apath(filename, r=request)\n            lineno = count_lines(open(full_path,\'r\').read())\n            os.unlink(full_path)\n            log_progress(app,\'DELETE\',filename,progress=-lineno)\n            session.flash = T(\'file "%(filename)s" deleted\',\n                              dict(filename=filename))\n        except Exception:\n            session.flash = T(\'unable to delete file "%(filename)s"\',\n                              dict(filename=filename))\n        redirect(URL(sender, anchor=request.vars.id2))\n    return dict(filename=filename, sender=sender)\n\ndef delete():\n    """ Object delete handler """\n    app = get_app()\n    filename = \'/\'.join(request.args)\n    sender = request.vars.sender\n\n    if isinstance(sender, list):  # ## fix a problem with Vista\n        sender = sender[0]\n\n    dialog = FORM.confirm(T(\'Delete\'),\n                         {T(\'Cancel\'):URL(sender, anchor=request.vars.id)})\n\n    if dialog.accepted:\n        try:\n            full_path = apath(filename, r=request)\n            lineno = count_lines(open(full_path,\'r\').read())\n            os.unlink(full_path)\n            log_progress(app,\'DELETE\',filename,progress=-lineno)\n            session.flash = T(\'file "%(filename)s" deleted\',\n                              dict(filename=filename))\n        except Exception:\n            session.flash = T(\'unable to delete file "%(filename)s"\',\n                              dict(filename=filename))\n        redirect(URL(sender, anchor=request.vars.id2))\n    return dict(dialog=dialog,filename=filename)\n\ndef enable():\n    app = get_app()\n    filename = os.path.join(apath(app, r=request),\'DISABLED\')\n    if is_gae:\n        return SPAN(T(\'Not supported\'),_style=\'color:yellow\')\n    elif os.path.exists(filename):\n        os.unlink(filename)\n        return SPAN(T(\'Disable\'),_style=\'color:green\')\n    else:\n        safe_open(filename,\'wb\').write(time.ctime())\n        return SPAN(T(\'Enable\'),_style=\'color:red\')\n\ndef peek():\n    """ Visualize object code """\n    app = get_app(request.vars.app)\n    filename = \'/\'.join(request.args)\n    if request.vars.app:\n        path = abspath(filename)\n    else:\n        path = apath(filename, r=request)\n    try:\n        data = safe_read(path).replace(\'\\r\',\'\')\n    except IOError:\n        session.flash = T(\'file does not exist\')\n        redirect(URL(\'site\'))\n\n    extension = filename[filename.rfind(\'.\') + 1:].lower()\n\n    return dict(app=app,\n                filename=filename,\n                data=data,\n                extension=extension)\n\ndef test():\n    """ Execute controller tests """\n    app = get_app()\n    if len(request.args) > 1:\n        file = request.args[1]\n    else:\n        file = \'.*\\.py\'\n\n    controllers = listdir(apath(\'%s/controllers/\' % app, r=request), file + \'$\')\n\n    return dict(app=app, controllers=controllers)\n\ndef keepalive():\n    return \'\'\n\ndef search():\n    keywords=request.vars.keywords or \'\'\n    app = get_app()\n    def match(filename,keywords):\n        filename=os.path.join(apath(app, r=request),filename)\n        if keywords in read_file(filename,\'rb\'):\n            return True\n        return False\n    path = apath(request.args[0], r=request)\n    files1 = glob(os.path.join(path,\'*/*.py\'))\n    files2 = glob(os.path.join(path,\'*/*.html\'))\n    files3 = glob(os.path.join(path,\'*/*/*.html\'))\n    files=[x[len(path)+1:].replace(\'\\\\\',\'/\') for x in files1+files2+files3 if match(x,keywords)]\n    return response.json(dict(files=files, message=T.M(\'Searching: **%s** %%{file}\', len(files))))\n\ndef edit():\n    """ File edit handler """\n    # Load json only if it is ajax edited...\n    app = get_app(request.vars.app)\n    filename = \'/\'.join(request.args)\n    if request.vars.app:\n        path = abspath(filename)\n    else:\n        path = apath(filename, r=request)\n     # Try to discover the file type\n    if filename[-3:] == \'.py\':\n        filetype = \'python\'\n    elif filename[-5:] == \'.html\':\n        filetype = \'html\'\n    elif filename[-5:] == \'.load\':\n        filetype = \'html\'\n    elif filename[-4:] == \'.css\':\n        filetype = \'css\'\n    elif filename[-3:] == \'.js\':\n        filetype = \'js\'\n    else:\n        filetype = \'html\'\n\n    # ## check if file is not there\n    if (\'revert\' in request.vars) and os.path.exists(path + \'.bak\'):\n        try:\n            data = safe_read(path + \'.bak\')\n            data1 = safe_read(path)\n        except IOError:\n            session.flash = T(\'Invalid action\')\n            if \'from_ajax\' in request.vars:\n                 return response.json({\'error\': str(T(\'Invalid action\'))})\n            else:\n                redirect(URL(\'site\'))\n\n        safe_write(path, data)\n        file_hash = md5_hash(data)\n        saved_on = time.ctime(os.stat(path)[stat.ST_MTIME])\n        safe_write(path + \'.bak\', data1)\n        response.flash = T(\'file "%s" of %s restored\', (filename, saved_on))\n    else:\n        try:\n            data = safe_read(path)\n        except IOError:\n            session.flash = T(\'Invalid action\')\n            if \'from_ajax\' in request.vars:\n                return response.json({\'error\': str(T(\'Invalid action\'))})\n            else:\n                redirect(URL(\'site\'))\n\n        lineno_old = count_lines(data)\n        file_hash = md5_hash(data)\n        saved_on = time.ctime(os.stat(path)[stat.ST_MTIME])\n\n        if request.vars.file_hash and request.vars.file_hash != file_hash:\n            session.flash = T(\'file changed on disk\')\n            data = request.vars.data.replace(\'\\r\\n\', \'\\n\').strip() + \'\\n\'\n            safe_write(path + \'.1\', data)\n            if \'from_ajax\' in request.vars:\n                return response.json({\'error\': str(T(\'file changed on disk\')),\n                                      \'redirect\': URL(\'resolve\',\n                                                      args=request.args)})\n            else:\n                redirect(URL(\'resolve\', args=request.args))\n        elif request.vars.data:\n            safe_write(path + \'.bak\', data)\n            data = request.vars.data.replace(\'\\r\\n\', \'\\n\').strip() + \'\\n\'\n            safe_write(path, data)\n            lineno_new = count_lines(data)\n            log_progress(app,\'EDIT\',filename,progress=lineno_new-lineno_old)\n            file_hash = md5_hash(data)\n            saved_on = time.ctime(os.stat(path)[stat.ST_MTIME])\n            response.flash = T(\'file saved on %s\', saved_on)\n\n    data_or_revert = (request.vars.data or request.vars.revert)\n\n    # Check compile errors\n    highlight = None\n    if filetype == \'python\' and request.vars.data:\n        import _ast\n        try:\n            code = request.vars.data.rstrip().replace(\'\\r\\n\',\'\\n\')+\'\\n\'\n            compile(code, path, "exec", _ast.PyCF_ONLY_AST)\n        except Exception, e:\n            start = sum([len(line)+1 for l, line\n                            in enumerate(request.vars.data.split("\\n"))\n                            if l < e.lineno-1])\n            if e.text and e.offset:\n                offset = e.offset - (len(e.text) - len(e.text.splitlines()[-1]))\n            else:\n                offset = 0\n            highlight = {\'start\': start, \'end\': start + offset + 1, \'lineno\': e.lineno}\n            try:\n                ex_name = e.__class__.__name__\n            except:\n                ex_name = \'unknown exception!\'\n            response.flash = DIV(T(\'failed to compile file because:\'), BR(),\n                                 B(ex_name), \' \'+T(\'at line %s\', e.lineno),\n                                 offset and \' \'+T(\'at char %s\', offset) or \'\',\n                                 PRE(str(e)))\n\n    if data_or_revert and request.args[1] == \'modules\':\n        # Lets try to reload the modules\n        try:\n            mopath = \'.\'.join(request.args[2:])[:-3]\n            exec \'import applications.%s.modules.%s\' % (request.args[0], mopath)\n            reload(sys.modules[\'applications.%s.modules.%s\'\n                    % (request.args[0], mopath)])\n        except Exception, e:\n            response.flash = DIV(T(\'failed to reload module because:\'),PRE(str(e)))\n\n    edit_controller = None\n    editviewlinks = None\n    view_link = None\n    if filetype == \'html\' and len(request.args) >= 3:\n        cfilename = os.path.join(request.args[0], \'controllers\',\n                                 request.args[2] + \'.py\')\n        if os.path.exists(apath(cfilename, r=request)):\n            edit_controller = URL(\'edit\', args=[cfilename])\n            view = request.args[3].replace(\'.html\',\'\')\n            view_link = URL(request.args[0],request.args[2],view)\n    elif filetype == \'python\' and request.args[1] == \'controllers\':\n        ## it\'s a controller file.\n        ## Create links to all of the associated view files.\n        app = get_app()\n        viewname = os.path.splitext(request.args[2])[0]\n        viewpath = os.path.join(app,\'views\',viewname)\n        aviewpath = apath(viewpath, r=request)\n        viewlist = []\n        if os.path.exists(aviewpath):\n            if os.path.isdir(aviewpath):\n                viewlist = glob(os.path.join(aviewpath,\'*.html\'))\n        elif os.path.exists(aviewpath+\'.html\'):\n            viewlist.append(aviewpath+\'.html\')\n        if len(viewlist):\n            editviewlinks = []\n            for v in viewlist:\n                vf = os.path.split(v)[-1]\n                vargs = "/".join([viewpath.replace(os.sep,"/"),vf])\n                editviewlinks.append(A(vf.split(".")[0],\\\n                    _href=URL(\'edit\',args=[vargs])))\n\n    if len(request.args) > 2 and request.args[1] == \'controllers\':\n        controller = (request.args[2])[:-3]\n        functions = regex_expose.findall(data)\n    else:\n        (controller, functions) = (None, None)\n\n    if \'from_ajax\' in request.vars:\n        return response.json({\'file_hash\': file_hash, \'saved_on\': saved_on, \'functions\':functions, \'controller\': controller, \'application\': request.args[0], \'highlight\': highlight })\n    else:\n\n        editarea_preferences = {}\n        editarea_preferences[\'FONT_SIZE\'] = \'10\'\n        editarea_preferences[\'FULL_SCREEN\'] = \'false\'\n        editarea_preferences[\'ALLOW_TOGGLE\'] = \'true\'\n        editarea_preferences[\'REPLACE_TAB_BY_SPACES\'] = \'4\'\n        editarea_preferences[\'DISPLAY\'] = \'onload\'\n        for key in editarea_preferences:\n            if globals().has_key(key):\n                editarea_preferences[key]=globals()[key]\n        return dict(app=request.args[0],\n                    filename=filename,\n                    filetype=filetype,\n                    data=data,\n                    edit_controller=edit_controller,\n                    file_hash=file_hash,\n                    saved_on=saved_on,\n                    controller=controller,\n                    functions=functions,\n                    view_link=view_link,\n                    editarea_preferences=editarea_preferences,\n                    editviewlinks=editviewlinks)\n\ndef resolve():\n    """\n    """\n\n    filename = \'/\'.join(request.args)\n    # ## check if file is not there\n    path = apath(filename, r=request)\n    a = safe_read(path).split(\'\\n\')\n    try:\n        b = safe_read(path + \'.1\').split(\'\\n\')\n    except IOError:\n        session.flash = \'Other file, no longer there\'\n        redirect(URL(\'edit\', args=request.args))\n\n    d = difflib.ndiff(a, b)\n\n    def leading(line):\n        """  """\n\n        # TODO: we really need to comment this\n        z = \'\'\n        for (k, c) in enumerate(line):\n            if c == \' \':\n                z += \'&nbsp;\'\n            elif c == \' \\t\':\n                z += \'&nbsp;\'\n            elif k == 0 and c == \'?\':\n                pass\n            else:\n                break\n\n        return XML(z)\n\n    def getclass(item):\n        """ Determine item class """\n\n        if item[0] == \' \':\n            return \'normal\'\n        if item[0] == \'+\':\n            return \'plus\'\n        if item[0] == \'-\':\n            return \'minus\'\n\n    if request.vars:\n        c = \'\\n\'.join([item[2:].rstrip() for (i, item) in enumerate(d) if item[0] \\\n                           == \' \' or \'line%i\' % i in request.vars])\n        safe_write(path, c)\n        session.flash = \'files merged\'\n        redirect(URL(\'edit\', args=request.args))\n    else:\n        # Making the short circuit compatible with <= python2.4\n        gen_data = lambda index,item: not item[:1] in [\'+\',\'-\'] and "" \\\n                   or INPUT(_type=\'checkbox\',\n                            _name=\'line%i\' % index,\n                            value=item[0] == \'+\')\n\n        diff = TABLE(*[TR(TD(gen_data(i,item)),\n                          TD(item[0]),\n                          TD(leading(item[2:]),\n                          TT(item[2:].rstrip())), _class=getclass(item))\n                       for (i, item) in enumerate(d) if item[0] != \'?\'])\n\n    return dict(diff=diff, filename=filename)\n\n\ndef edit_language():\n    """ Edit language file """\n    app = get_app()\n    filename = \'/\'.join(request.args)\n    strings = read_dict(apath(filename, r=request))\n\n    if \'__corrupted__\' in strings:\n       form = SPAN(strings[\'__corrupted__\'],_class=\'error\')\n       return dict(filename=filename, form=form)\n\n    keys = sorted(strings.keys(),lambda x,y: cmp(unicode(x,\'utf-8\').lower(), unicode(y,\'utf-8\').lower()))\n    rows = []\n    rows.append(H2(T(\'Original/Translation\')))\n\n    for key in keys:\n        name = md5_hash(key)\n        s = strings[key]\n        (prefix, sep, key) = key.partition(\'\\x01\')\n        if sep:\n            prefix = SPAN(prefix+\': \', _class=\'tm_ftag\')\n            k = key\n        else:\n            (k, prefix) = (prefix, \'\')\n\n        _class=\'untranslated\' if k==s else \'translated\'\n\n        if len(key) <= 40:\n            elem = INPUT(_type=\'text\', _name=name, value=s,\n                         _size=70,_class=_class)\n        else:\n            elem = TEXTAREA(_name=name, value=s, _cols=70,\n                            _rows=5, _class=_class)\n\n        # Making the short circuit compatible with <= python2.4\n        k = (s != k) and k or B(k)\n\n        rows.append(P(prefix, k, BR(), elem, TAG.BUTTON(T(\'delete\'),\n                            _onclick=\'return delkey("%s")\' % name), _id=name))\n\n    rows.append(INPUT(_type=\'submit\', _value=T(\'update\')))\n    form = FORM(*rows)\n    if form.accepts(request.vars, keepvalues=True):\n        strs = dict()\n        for key in keys:\n            name = md5_hash(key)\n            if form.vars[name]==chr(127): continue\n            strs[key] = form.vars[name]\n        write_dict(apath(filename, r=request), strs)\n        session.flash = T(\'file saved on %(time)s\', dict(time=time.ctime()))\n        redirect(URL(r=request,args=request.args))\n    return dict(app=request.args[0], filename=filename, form=form)\n\ndef edit_plurals():\n    """ Edit plurals file """\n    app = get_app()\n    filename = \'/\'.join(request.args)\n    plurals = read_plural_dict(apath(filename, r=request)) # plural forms dictionary\n    nplurals = int(request.vars.nplurals)-1 # plural forms quantity\n    xnplurals = xrange(nplurals)\n\n    if \'__corrupted__\' in plurals:\n       # show error message and exit\n       form = SPAN(plurals[\'__corrupted__\'],_class=\'error\')\n       return dict(filename=filename, form=form)\n\n    keys = sorted(plurals.keys(),lambda x,y: cmp(unicode(x,\'utf-8\').lower(), unicode(y,\'utf-8\').lower()))\n    rows = []\n\n    row=[T("Singular Form")]\n    row.extend([T("Plural Form #%s", n+1) for n in xnplurals])\n    table=TABLE(THEAD(TR(row)))\n\n    for key in keys:\n        name = md5_hash(key)\n        forms = plurals[key]\n\n        if len(forms) < nplurals:\n            forms.extend(None for i in xrange(nplurals-len(forms)))\n\n        row = [B(key)]\n        row.extend([INPUT(_type=\'text\', _name=name+\'_\'+str(n), value=forms[n], _size=20) for n in xnplurals])\n        row.append(TD(TAG.BUTTON(T(\'delete\'), _onclick=\'return delkey("%s")\' % name)))\n        rows.append(TR(row, _id=name))\n    if rows:\n        table.append(TBODY(rows))\n    rows=[table, INPUT(_type=\'submit\', _value=T(\'update\'))]\n    form = FORM(*rows)\n    if form.accepts(request.vars, keepvalues=True):\n        new_plurals = dict()\n        for key in keys:\n            name = md5_hash(key)\n            if form.vars[name+\'_0\']==chr(127): continue\n            new_plurals[key] = [form.vars[name+\'_\'+str(n)] for n in xnplurals]\n        write_plural_dict(apath(filename, r=request), new_plurals)\n        session.flash = T(\'file saved on %(time)s\', dict(time=time.ctime()))\n        redirect(URL(r=request, args=request.args, vars=dict(nplurals=request.vars.nplurals)))\n    return dict(app=request.args[0], filename=filename, form=form)\n\n\ndef about():\n    """ Read about info """\n    app = get_app()\n    # ## check if file is not there\n    about = safe_read(apath(\'%s/ABOUT\' % app, r=request))\n    license = safe_read(apath(\'%s/LICENSE\' % app, r=request))\n    return dict(app=app, about=MARKMIN(about), license=MARKMIN(license),progress=report_progress(app))\n\n\ndef design():\n    """ Application design handler """\n    app = get_app()\n\n    if not response.flash and app == request.application:\n        msg = T(\'ATTENTION: you cannot edit the running application!\')\n        response.flash = msg\n\n    if request.vars and not request.vars.token==session.token:\n        redirect(URL(\'logout\'))\n\n    if request.vars.pluginfile!=None and not isinstance(request.vars.pluginfile,str):\n        filename=os.path.basename(request.vars.pluginfile.filename)\n        if plugin_install(app, request.vars.pluginfile.file,\n                          request, filename):\n            session.flash = T(\'new plugin installed\')\n            redirect(URL(\'design\',args=app))\n        else:\n            session.flash = \\\n                T(\'unable to create application "%s"\', request.vars.filename)\n        redirect(URL(r=request))\n    elif isinstance(request.vars.pluginfile,str):\n        session.flash = T(\'plugin not specified\')\n        redirect(URL(r=request))\n\n\n    # If we have only pyc files it means that\n    # we cannot design\n    if os.path.exists(apath(\'%s/compiled\' % app, r=request)):\n        session.flash = \\\n            T(\'application is compiled and cannot be designed\')\n        redirect(URL(\'site\'))\n\n    # Get all models\n    models = listdir(apath(\'%s/models/\' % app, r=request), \'.*\\.py$\')\n    models=[x.replace(\'\\\\\',\'/\') for x in models]\n    defines = {}\n    for m in models:\n        data = safe_read(apath(\'%s/models/%s\' % (app, m), r=request))\n        defines[m] = regex_tables.findall(data)\n        defines[m].sort()\n\n    # Get all controllers\n    controllers = sorted(listdir(apath(\'%s/controllers/\' % app, r=request), \'.*\\.py$\'))\n    controllers = [x.replace(\'\\\\\',\'/\') for x in controllers]\n    functions = {}\n    for c in controllers:\n        data = safe_read(apath(\'%s/controllers/%s\' % (app, c), r=request))\n        items = regex_expose.findall(data)\n        functions[c] = items\n\n    # Get all views\n    views = sorted(listdir(apath(\'%s/views/\' % app, r=request), \'[\\w/\\-]+(\\.\\w+)+$\'))\n    views = [x.replace(\'\\\\\',\'/\') for x in views if not x.endswith(\'.bak\')]\n    extend = {}\n    include = {}\n    for c in views:\n        data = safe_read(apath(\'%s/views/%s\' % (app, c), r=request))\n        items = regex_extend.findall(data)\n\n        if items:\n            extend[c] = items[0][1]\n\n        items = regex_include.findall(data)\n        include[c] = [i[1] for i in items]\n\n    # Get all modules\n    modules = listdir(apath(\'%s/modules/\' % app, r=request), \'.*\\.py$\')\n    modules = modules=[x.replace(\'\\\\\',\'/\') for x in modules]\n    modules.sort()\n\n    # Get all private files\n    privates = listdir(apath(\'%s/private/\' % app, r=request), \'[^\\.#].*\')\n    privates = [x.replace(\'\\\\\',\'/\') for x in privates]\n    privates.sort()\n\n    # Get all static files\n    statics = listdir(apath(\'%s/static/\' % app, r=request), \'[^\\.#].*\')\n    statics = [x.replace(\'\\\\\',\'/\') for x in statics]\n    statics.sort()\n\n    # Get all languages\n    languages=dict([(lang,info) for lang,info\n                   in read_possible_languages(\n                       apath(app, r=request)).iteritems()\n                   if info[2]!=0]) # info[2] is langfile_mtime:\n                                   # get only existed files\n\n    #Get crontab\n    cronfolder = apath(\'%s/cron\' % app, r=request)\n    if not os.path.exists(cronfolder): os.mkdir(cronfolder)\n    crontab = apath(\'%s/cron/crontab\' % app, r=request)\n    if not os.path.exists(crontab):\n        safe_write(crontab, \'#crontab\')\n\n    plugins=[]\n    def filter_plugins(items,plugins):\n        plugins+=[item[7:].split(\'/\')[0].split(\'.\')[0] for item in items if item.startswith(\'plugin_\')]\n        plugins[:]=list(set(plugins))\n        plugins.sort()\n        return [item for item in items if not item.startswith(\'plugin_\')]\n\n    return dict(app=app,\n                models=filter_plugins(models,plugins),\n                defines=defines,\n                controllers=filter_plugins(controllers,plugins),\n                functions=functions,\n                views=filter_plugins(views,plugins),\n                modules=filter_plugins(modules,plugins),\n                extend=extend,\n                include=include,\n                privates=filter_plugins(privates,plugins),\n                statics=filter_plugins(statics,plugins),\n                languages=languages,\n                crontab=crontab,\n                plugins=plugins)\n\ndef delete_plugin():\n    """ Object delete handler """\n    app=request.args(0)\n    plugin = request.args(1)\n    plugin_name=\'plugin_\'+plugin\n\n    dialog = FORM.confirm(\n        T(\'Delete\'),\n        {T(\'Cancel\'):URL(\'design\', args=app)})\n\n    if dialog.accepted:\n        try:\n            for folder in [\'models\',\'views\',\'controllers\',\'static\',\'modules\', \'private\']:\n                path=os.path.join(apath(app,r=request),folder)\n                for item in os.listdir(path):\n                    if item.rsplit(\'.\',1)[0] == plugin_name:\n                        filename=os.path.join(path,item)\n                        if os.path.isdir(filename):\n                            shutil.rmtree(filename)\n                        else:\n                            os.unlink(filename)\n            session.flash = T(\'plugin "%(plugin)s" deleted\',\n                              dict(plugin=plugin))\n        except Exception:\n            session.flash = T(\'unable to delete file plugin "%(plugin)s"\',\n                              dict(plugin=plugin))\n        redirect(URL(\'design\', args=request.args(0), anchor=request.vars.id2))\n    return dict(dialog=dialog,plugin=plugin)\n\ndef plugin():\n    """ Application design handler """\n    app = get_app()\n    plugin = request.args(1)\n\n    if not response.flash and app == request.application:\n        msg = T(\'ATTENTION: you cannot edit the running application!\')\n        response.flash = msg\n\n    # If we have only pyc files it means that\n    # we cannot design\n    if os.path.exists(apath(\'%s/compiled\' % app, r=request)):\n        session.flash = \\\n            T(\'application is compiled and cannot be designed\')\n        redirect(URL(\'site\'))\n\n    # Get all models\n    models = listdir(apath(\'%s/models/\' % app, r=request), \'.*\\.py$\')\n    models=[x.replace(\'\\\\\',\'/\') for x in models]\n    defines = {}\n    for m in models:\n        data = safe_read(apath(\'%s/models/%s\' % (app, m), r=request))\n        defines[m] = regex_tables.findall(data)\n        defines[m].sort()\n\n    # Get all controllers\n    controllers = sorted(listdir(apath(\'%s/controllers/\' % app, r=request), \'.*\\.py$\'))\n    controllers = [x.replace(\'\\\\\',\'/\') for x in controllers]\n    functions = {}\n    for c in controllers:\n        data = safe_read(apath(\'%s/controllers/%s\' % (app, c), r=request))\n        items = regex_expose.findall(data)\n        functions[c] = items\n\n    # Get all views\n    views = sorted(listdir(apath(\'%s/views/\' % app, r=request), \'[\\w/\\-]+\\.\\w+$\'))\n    views = [x.replace(\'\\\\\',\'/\') for x in views]\n    extend = {}\n    include = {}\n    for c in views:\n        data = safe_read(apath(\'%s/views/%s\' % (app, c), r=request))\n        items = regex_extend.findall(data)\n        if items:\n            extend[c] = items[0][1]\n\n        items = regex_include.findall(data)\n        include[c] = [i[1] for i in items]\n\n    # Get all modules\n    modules = listdir(apath(\'%s/modules/\' % app, r=request), \'.*\\.py$\')\n    modules = modules=[x.replace(\'\\\\\',\'/\') for x in modules]\n    modules.sort()\n\n    # Get all private files\n    privates = listdir(apath(\'%s/private/\' % app, r=request), \'[^\\.#].*\')\n    privates = [x.replace(\'\\\\\',\'/\') for x in privates]\n    privates.sort()\n\n    # Get all static files\n    statics = listdir(apath(\'%s/static/\' % app, r=request), \'[^\\.#].*\')\n    statics = [x.replace(\'\\\\\',\'/\') for x in statics]\n    statics.sort()\n\n    # Get all languages\n    languages = sorted([lang+\'.py\' for lang, info in\n                    T.get_possible_languages_info().iteritems()\n                    if info[2]!=0]) # info[2] is langfile_mtime:\n                                    # get only existed files\n\n    #Get crontab\n    crontab = apath(\'%s/cron/crontab\' % app, r=request)\n    if not os.path.exists(crontab):\n        safe_write(crontab, \'#crontab\')\n\n    def filter_plugins(items):\n        regex=re.compile(\'^plugin_\'+plugin+\'(/.*|\\..*)?$\')\n        return [item for item in items if item and regex.match(item)]\n\n    return dict(app=app,\n                models=filter_plugins(models),\n                defines=defines,\n                controllers=filter_plugins(controllers),\n                functions=functions,\n                views=filter_plugins(views),\n                modules=filter_plugins(modules),\n                extend=extend,\n                include=include,\n                privates=filter_plugins(privates),\n                statics=filter_plugins(statics),\n                languages=languages,\n                crontab=crontab)\n\n\ndef create_file():\n    """ Create files handler """\n    if request.vars and not request.vars.token==session.token:\n        redirect(URL(\'logout\'))\n    try:\n        anchor=\'#\'+request.vars.id if request.vars.id else \'\'\n        if request.vars.app:\n            app = get_app(request.vars.app)\n            path = abspath(request.vars.location)\n        else:\n            app = get_app(name=request.vars.location.split(\'/\')[0])\n            path = apath(request.vars.location, r=request)\n        filename = re.sub(\'[^\\w./-]+\', \'_\', request.vars.filename)\n        if path[-7:] == \'/rules/\':\n            # Handle plural rules files\n            if len(filename) == 0:\n                raise SyntaxError\n            if not filename[-3:] == \'.py\':\n                filename += \'.py\'\n            lang = re.match(\'^plural_rules-(.*)\\.py$\',filename).group(1)\n            langinfo = read_possible_languages(apath(app, r=request))[lang]\n            text = dedent("""\n                   #!/usr/bin/env python\n                   # -*- coding: utf8 -*-\n                   # Plural-Forms for %(lang)s (%(langname)s)\n\n                   nplurals=2  # for example, English language has 2 forms:\n                               # 1 singular and 1 plural\n\n                   # Determine plural_id for number *n* as sequence of positive\n                   # integers: 0,1,...\n                   # NOTE! For singular form ALWAYS return plural_id = 0\n                   get_plural_id = lambda n: int(n != 1)\n\n                   # Construct and return plural form of *word* using\n                   # *plural_id* (which ALWAYS>0). This function will be executed\n                   # for words (or phrases) not found in plural_dict dictionary.\n                   # By default this function simply returns word in singular:\n                   construct_plural_form = lambda word, plural_id: word\n                   """)[1:] % dict(lang=langinfo[0], langname=langinfo[1])\n\n        elif path[-11:] == \'/languages/\':\n            # Handle language files\n            if len(filename) == 0:\n                raise SyntaxError\n            if not filename[-3:] == \'.py\':\n                filename += \'.py\'\n            path=os.path.join(apath(app, r=request),\'languages\',filename)\n            if not os.path.exists(path):\n                safe_write(path, \'\')\n            # create language xx[-yy].py file:\n            findT(apath(app, r=request), filename[:-3])\n            session.flash = T(\'language file "%(filename)s" created/updated\',\n                               dict(filename=filename))\n            redirect(request.vars.sender+anchor)\n\n        elif path[-8:] == \'/models/\':\n            # Handle python models\n            if not filename[-3:] == \'.py\':\n                filename += \'.py\'\n\n            if len(filename) == 3:\n                raise SyntaxError\n\n            text = \'# coding: utf8\\n\'\n\n        elif path[-13:] == \'/controllers/\':\n            # Handle python controllers\n            if not filename[-3:] == \'.py\':\n                filename += \'.py\'\n\n            if len(filename) == 3:\n                raise SyntaxError\n\n            text = \'# coding: utf8\\n# %s\\ndef index(): return dict(message="hello from %s")\'\n            text = text % (T(\'try something like\'), filename)\n\n        elif path[-7:] == \'/views/\':\n            if request.vars.plugin and not filename.startswith(\'plugin_%s/\' % request.vars.plugin):\n                filename = \'plugin_%s/%s\' % (request.vars.plugin, filename)\n            # Handle template (html) views\n            if filename.find(\'.\')<0:\n                filename += \'.html\'\n            extension = filename.split(\'.\')[-1].lower()\n\n            if len(filename) == 5:\n                raise SyntaxError\n\n            msg = T(\'This is the %(filename)s template\', dict(filename=filename))\n            if extension == \'html\':\n                text = dedent("""\n                   {{extend \'layout.html\'}}\n                   <h1>%s</h1>\n                   {{=BEAUTIFY(response._vars)}}""" % msg)[1:]\n            else:\n                generic = os.path.join(path,\'generic.\'+extension)\n                if os.path.exists(generic):\n                    text = read_file(generic)\n                else:\n                    text = \'\'\n\n        elif path[-9:] == \'/modules/\':\n            if request.vars.plugin and not filename.startswith(\'plugin_%s/\' % request.vars.plugin):\n                filename = \'plugin_%s/%s\' % (request.vars.plugin, filename)\n            # Handle python module files\n            if not filename[-3:] == \'.py\':\n                filename += \'.py\'\n\n            if len(filename) == 3:\n                raise SyntaxError\n\n            text = dedent("""\n                   #!/usr/bin/env python\n                   # coding: utf8\n                   from gluon import *\\n""")[1:]\n\n        elif (path[-8:] == \'/static/\') or (path[-9:] == \'/private/\'):\n            if request.vars.plugin and not filename.startswith(\'plugin_%s/\' % request.vars.plugin):\n                filename = \'plugin_%s/%s\' % (request.vars.plugin, filename)\n            text = \'\'\n            \n        else:\n            redirect(request.vars.sender+anchor)\n\n        full_filename = os.path.join(path, filename)\n        dirpath = os.path.dirname(full_filename)\n\n        if not os.path.exists(dirpath):\n            os.makedirs(dirpath)\n\n        if os.path.exists(full_filename):\n            raise SyntaxError\n\n        safe_write(full_filename, text)\n        log_progress(app,\'CREATE\',filename)\n        session.flash = T(\'file "%(filename)s" created\',\n                          dict(filename=full_filename[len(path):]))\n        vars={}\n        if request.vars.id: vars[\'id\']=request.vars.id\n        if request.vars.app: vars[\'app\']=request.vars.app\n        redirect(URL(\'edit\',\n                 args=[os.path.join(request.vars.location, filename)], vars=vars))\n    except Exception, e:\n        if not isinstance(e,HTTP):\n            session.flash = T(\'cannot create file\')\n\n    redirect(request.vars.sender+anchor)\n\n\ndef upload_file():\n    """ File uploading handler """\n    if request.vars and not request.vars.token==session.token:\n        redirect(URL(\'logout\'))\n    try:\n        filename = None\n        app = get_app(name=request.vars.location.split(\'/\')[0])\n        path = apath(request.vars.location, r=request)\n\n        if request.vars.filename:\n            filename = re.sub(\'[^\\w\\./]+\', \'_\', request.vars.filename)\n        else:\n            filename = os.path.split(request.vars.file.filename)[-1]\n\n        if path[-8:] == \'/models/\' and not filename[-3:] == \'.py\':\n            filename += \'.py\'\n\n        if path[-9:] == \'/modules/\' and not filename[-3:] == \'.py\':\n            filename += \'.py\'\n\n        if path[-13:] == \'/controllers/\' and not filename[-3:] == \'.py\':\n            filename += \'.py\'\n\n        if path[-7:] == \'/views/\' and not filename[-5:] == \'.html\':\n            filename += \'.html\'\n\n        if path[-11:] == \'/languages/\' and not filename[-3:] == \'.py\':\n            filename += \'.py\'\n\n        filename = os.path.join(path, filename)\n        dirpath = os.path.dirname(filename)\n\n        if not os.path.exists(dirpath):\n            os.makedirs(dirpath)\n\n        data = request.vars.file.file.read()\n        lineno = count_lines(data)\n        safe_write(filename, data, \'wb\')\n        log_progress(app,\'UPLOAD\',filename,lineno)\n        session.flash = T(\'file "%(filename)s" uploaded\',\n                          dict(filename=filename[len(path):]))\n    except Exception:\n        if filename:\n            d = dict(filename = filename[len(path):])\n        else:\n            d = dict(filename = \'unkown\')\n        session.flash = T(\'cannot upload file "%(filename)s"\', d)\n\n    redirect(request.vars.sender)\n\n\ndef errors():\n    """ Error handler """\n    import operator\n    import os\n    import pickle\n    import hashlib\n\n    app = get_app()\n\n    method = request.args(1) or \'new\'\n    db_ready = {}\n    db_ready[\'status\'] = get_ticket_storage(app)\n    db_ready[\'errmessage\'] = T("No ticket_storage.txt found under /private folder")\n    db_ready[\'errlink\'] = "http://web2py.com/books/default/chapter/29/13#Collecting-tickets"\n\n    if method == \'new\':\n        errors_path = apath(\'%s/errors\' % app, r=request)\n\n        delete_hashes = []\n        for item in request.vars:\n            if item[:7] == \'delete_\':\n                delete_hashes.append(item[7:])\n\n        hash2error = dict()\n\n        for fn in listdir(errors_path, \'^[a-fA-F0-9.\\-]+$\'):\n            fullpath = os.path.join(errors_path, fn)\n            if not os.path.isfile(fullpath): continue\n            try:\n                fullpath_file = open(fullpath, \'r\')\n                try:\n                    error = pickle.load(fullpath_file)\n                finally:\n                    fullpath_file.close()\n            except IOError:\n                continue\n            except EOFError:\n                continue\n\n            hash = hashlib.md5(error[\'traceback\']).hexdigest()\n\n            if hash in delete_hashes:\n                os.unlink(fullpath)\n            else:\n                try:\n                    hash2error[hash][\'count\'] += 1\n                except KeyError:\n                    error_lines = error[\'traceback\'].split("\\n")\n                    last_line = error_lines[-2]\n                    error_causer = os.path.split(error[\'layer\'])[1]\n                    hash2error[hash] = dict(count=1, pickel=error,\n                                            causer=error_causer,\n                                            last_line=last_line,\n                                            hash=hash,ticket=fn)\n\n        decorated = [(x[\'count\'], x) for x in hash2error.values()]\n        decorated.sort(key=operator.itemgetter(0), reverse=True)\n\n        return dict(errors = [x[1] for x in decorated], app=app, method=method, db_ready=db_ready)\n\n\n    elif method == \'dbnew\':\n        errors_path = apath(\'%s/errors\' % app, r=request)\n        tk_db, tk_table = get_ticket_storage(app)\n\n        delete_hashes = []\n        for item in request.vars:\n            if item[:7] == \'delete_\':\n                delete_hashes.append(item[7:])\n\n        hash2error = dict()\n\n        for fn in tk_db(tk_table.id>0).select():\n            try:\n                error = pickle.loads(fn.ticket_data)\n            except AttributeError:\n                tk_db(tk_table.id == fn.id).delete()\n                tk_db.commit()\n\n            hash = hashlib.md5(error[\'traceback\']).hexdigest()\n\n            if hash in delete_hashes:\n                tk_db(tk_table.id == fn.id).delete()\n                tk_db.commit()\n            else:\n                try:\n                    hash2error[\'hash\'][\'count\'] += 1\n                except KeyError:\n                    error_lines = error[\'traceback\'].split("\\n")\n                    last_line = error_lines[-2]\n                    error_causer = os.path.split(error[\'layer\'])[1]\n                    hash2error[hash] = dict(count=1, pickel=error,\n                                            causer=error_causer,\n                                            last_line=last_line,\n                                            hash=hash,ticket=fn.ticket_id)\n\n        decorated = [(x[\'count\'], x) for x in hash2error.values()]\n\n        decorated.sort(key=operator.itemgetter(0), reverse=True)\n\n        return dict(errors = [x[1] for x in decorated], app=app, method=method)\n\n    elif method == \'dbold\':\n        tk_db, tk_table = get_ticket_storage(app)\n        for item in request.vars:\n            if item[:7] == \'delete_\':\n                tk_db(tk_table.ticket_id == item[7:]).delete()\n                tk_db.commit()\n        tickets_ = tk_db(tk_table.id>0).select(tk_table.ticket_id, tk_table.created_datetime, orderby=~tk_table.created_datetime)\n        tickets = [row.ticket_id for row in tickets_]\n        times = dict([(row.ticket_id, row.created_datetime) for row in tickets_])\n\n        return dict(app=app, tickets=tickets, method=method, times=times)\n\n    else:\n        for item in request.vars:\n            if item[:7] == \'delete_\':\n                os.unlink(apath(\'%s/errors/%s\' % (app, item[7:]), r=request))\n        func = lambda p: os.stat(apath(\'%s/errors/%s\' % \\\n                                           (app, p), r=request)).st_mtime\n        tickets = sorted(listdir(apath(\'%s/errors/\' % app, r=request), \'^\\w.*\'),\n                         key=func,\n                         reverse=True)\n\n        return dict(app=app, tickets=tickets, method=method, db_ready=db_ready)\n\ndef get_ticket_storage(app):\n    private_folder = apath(\'%s/private\' % app, r=request)\n    ticket_file = os.path.join(private_folder, \'ticket_storage.txt\')\n    if os.path.exists(ticket_file):\n        db_string = open(ticket_file).read()\n        db_string = db_string.strip().replace(\'\\r\',\'\').replace(\'\\n\',\'\')\n    else:\n        return False\n    tickets_table = \'web2py_ticket\'\n    tablename = tickets_table + \'_\' + app\n    db_path = apath(\'%s/databases\' % app, r=request)\n    ticketsdb = DAL(db_string, folder=db_path, auto_import=True)\n    if not ticketsdb.get(tablename):\n        table = ticketsdb.define_table(\n                tablename,\n                Field(\'ticket_id\', length=100),\n                Field(\'ticket_data\', \'text\'),\n                Field(\'created_datetime\', \'datetime\'),\n                )\n    return ticketsdb , ticketsdb.get(tablename)\n\ndef make_link(path):\n    """ Create a link from a path """\n    tryFile = path.replace(\'\\\\\', \'/\')\n\n    if os.path.isabs(tryFile) and os.path.isfile(tryFile):\n        (folder, filename) = os.path.split(tryFile)\n        (base, ext) = os.path.splitext(filename)\n        app = get_app()\n\n        editable = {\'controllers\': \'.py\', \'models\': \'.py\', \'views\': \'.html\'}\n        for key in editable.keys():\n            check_extension = folder.endswith("%s/%s" % (app,key))\n            if ext.lower() == editable[key] and check_extension:\n                return A(\'"\' + tryFile + \'"\',\n                         _href=URL(r=request,\n                         f=\'edit/%s/%s/%s\' % (app, key, filename))).xml()\n    return \'\'\n\n\ndef make_links(traceback):\n    """ Make links using the given traceback """\n\n    lwords = traceback.split(\'"\')\n\n    # Making the short circuit compatible with <= python2.4\n    result = (len(lwords) != 0) and lwords[0] or \'\'\n\n    i = 1\n\n    while i < len(lwords):\n        link = make_link(lwords[i])\n\n        if link == \'\':\n            result += \'"\' + lwords[i]\n        else:\n            result += link\n\n            if i + 1 < len(lwords):\n                result += lwords[i + 1]\n                i = i + 1\n\n        i = i + 1\n\n    return result\n\n\nclass TRACEBACK(object):\n    """ Generate the traceback """\n\n    def __init__(self, text):\n        """ TRACEBACK constructor """\n\n        self.s = make_links(CODE(text).xml())\n\n    def xml(self):\n        """ Returns the xml """\n\n        return self.s\n\n\ndef ticket():\n    """ Ticket handler """\n\n    if len(request.args) != 2:\n        session.flash = T(\'invalid ticket\')\n        redirect(URL(\'site\'))\n\n    app = get_app()\n    myversion = request.env.web2py_version\n    ticket = request.args[1]\n    e = RestrictedError()\n    e.load(request, app, ticket)\n\n    return dict(app=app,\n                ticket=ticket,\n                output=e.output,\n                traceback=(e.traceback and TRACEBACK(e.traceback)),\n                snapshot=e.snapshot,\n                code=e.code,\n                layer=e.layer,\n                myversion=myversion)\n\ndef ticketdb():\n    """ Ticket handler """\n\n    if len(request.args) != 2:\n        session.flash = T(\'invalid ticket\')\n        redirect(URL(\'site\'))\n\n    app = get_app()\n    myversion = request.env.web2py_version\n    ticket = request.args[1]\n    e = RestrictedError()\n    request.tickets_db = get_ticket_storage(app)[0]\n    e.load(request, app, ticket)\n    response.view = \'default/ticket.html\'\n    return dict(app=app,\n                ticket=ticket,\n                output=e.output,\n                traceback=(e.traceback and TRACEBACK(e.traceback)),\n                snapshot=e.snapshot,\n                code=e.code,\n                layer=e.layer,\n                myversion=myversion)\n\ndef error():\n    """ Generate a ticket (for testing) """\n    raise RuntimeError(\'admin ticket generator at your service\')\n\ndef update_languages():\n    """ Update available languages """\n\n    app = get_app()\n    update_all_languages(apath(app, r=request))\n    session.flash = T(\'Language files (static strings) updated\')\n    redirect(URL(\'design\',args=app,anchor=\'languages\'))\n\n\ndef twitter():\n    session.forget()\n    session._unlock(response)\n    import gluon.tools\n    import gluon.contrib.simplejson as sj\n    try:\n        if TWITTER_HASH:\n            page = urllib.urlopen("http://search.twitter.com/search.json?q=%%40%s" % TWITTER_HASH).read()\n            data = sj.loads(page, encoding="utf-8")[\'results\']\n            d = dict()\n            for e in data:\n                d[e["id"]] = e\n            r = reversed(sorted(d))\n            return dict(tweets = [d[k] for k in r])\n        else:\n            return \'disabled\'\n    except Exception, e:\n        return DIV(T(\'Unable to download because:\'),BR(),str(e))\n\n\ndef user():\n    if MULTI_USER_MODE:\n        if not db(db.auth_user).count():\n            auth.settings.registration_requires_approval = False\n        return dict(form=auth())\n    else:\n        return dict(form=T("Disabled"))\n\ndef reload_routes():\n    """ Reload routes.py """\n    import gluon.rewrite\n    gluon.rewrite.load()\n    redirect(URL(\'site\'))\n\ndef manage_students():\n    if not (MULTI_USER_MODE and is_manager()):\n        session.flash = T(\'Not Authorized\')\n        redirect(URL(\'site\'))\n    db.auth_user.registration_key.writable = True\n    grid = SQLFORM.grid(db.auth_user)\n    return locals()\n\ndef bulk_register():\n    if not (MULTI_USER_MODE and is_manager()):\n        session.flash = T(\'Not Authorized\')\n        redirect(URL(\'site\'))\n    form = SQLFORM.factory(Field(\'emails\',\'text\'))\n    if form.process().accepted:\n        emails = [x.strip() for x in form.vars.emails.split(\'\\n\') if x.strip()]\n        n = 0\n        for email in emails:\n            if not db.auth_user(email=email):\n                n += db.auth_user.insert(email = email) and 1 or 0\n        session.flash = T(\'%s students registered\',n)\n        redirect(URL(\'site\'))\n    return locals()\n\n### Begin experimental stuff need fixes:\n# 1) should run in its own process - cannot os.chdir\n# 2) should not prompt user at console\n# 3) should give option to force commit and not reuqire manual merge\n\ndef git_pull():\n    """ Git Pull handler """\n    app = get_app()\n    if not have_git:\n        session.flash = GIT_MISSING\n        redirect(URL(\'site\'))\n    dialog = FORM.confirm(T(\'Pull\'),\n                         {T(\'Cancel\'):URL(\'site\')})    \n    if dialog.accepted:\n        try:\n            repo = Repo(os.path.join(apath(r=request),app))\n            origin = repo.remotes.origin\n            origin.fetch()\n            origin.pull()\n            session.flash = T("Application updated via git pull")\n            redirect(URL(\'site\'))\n        except CheckoutError, message:\n            logging.error(message)\n            session.flash = T("Pull failed, certain files could not be checked out. Check logs for details.")\n            redirect(URL(\'site\'))\n        except UnmergedEntriesError:\n            session.flash = T("Pull is not possible because you have unmerged files. Fix them up in the work tree, and then try again.")\n            redirect(URL(\'site\'))\n        except AssertionError:\n            session.flash = T("Pull is not possible because you have unmerged files. Fix them up in the work tree, and then try again.")\n            redirect(URL(\'site\'))\n        except GitCommandError, status:\n            logging.error(str(status))\n            session.flash = T("Pull failed, git exited abnormally. See logs for details.")\n            redirect(URL(\'site\'))\n        except Exception,e:\n            logging.error("Unexpected error:", sys.exc_info()[0])\n            session.flash = T("Pull failed, git exited abnormally. See logs for details.")\n            redirect(URL(\'site\'))\n    elif \'cancel\' in request.vars:\n        redirect(URL(\'site\'))\n    return dict(app=app,dialog=dialog)\n\n\ndef git_push():\n    """ Git Push handler """\n    app = get_app()\n    if not have_git:\n        session.flash = GIT_MISSING\n        redirect(URL(\'site\'))\n    form = SQLFORM.factory(Field(\'changelog\',requires=IS_NOT_EMPTY()))\n    form.element(\'input[type=submit]\')[\'_value\']=T(\'Push\')\n    form.add_button(T(\'Cancel\'),URL(\'site\'))\n    form.process()\n    if form.accepted:\n        try:\n            repo = Repo(os.path.join(apath(r=request),app))\n            index = repo.index\n            index.add([apath(r=request)+app+\'/*\'])\n            new_commit = index.commit(form.vars.changelog)\n            origin = repo.remotes.origin\n            origin.push()\n            session.flash = T("Git repo updated with latest application changes.")\n            redirect(URL(\'site\'))\n        except UnmergedEntriesError:\n            session.flash = T("Push failed, there are unmerged entries in the cache. Resolve merge issues manually and try again.")\n            redirect(URL(\'site\'))\n        except Exception, e:\n            logging.error("Unexpected error:", sys.exc_info()[0])\n            session.flash = T("Push failed, git exited abnormally. See logs for details.")\n            redirect(URL(\'site\'))\n    return dict(app=app,form=form)\n\n\nresponse._vars=response._caller(cleanup)\n'
p7
sS'snapshot'
p8
(dp9
S'exception'
p10
(dp11
S'__getslice__'
p12
S"<method-wrapper '__getslice__' of exceptions.WindowsError object>"
p13
sS'__str__'
p14
S"<method-wrapper '__str__' of exceptions.WindowsError object>"
p15
sS'__reduce__'
p16
S'<built-in method __reduce__ of exceptions.WindowsError object>'
p17
sS'__dict__'
p18
S'{}'
p19
sS'__sizeof__'
p20
S'<built-in method __sizeof__ of exceptions.WindowsError object>'
p21
sS'__init__'
p22
S"<method-wrapper '__init__' of exceptions.WindowsError object>"
p23
sS'__setattr__'
p24
S"<method-wrapper '__setattr__' of exceptions.WindowsError object>"
p25
sS'__reduce_ex__'
p26
S'<built-in method __reduce_ex__ of exceptions.WindowsError object>'
p27
sS'__new__'
p28
S'<built-in method __new__ of type object>'
p29
sS'errno'
p30
S'13'
p31
sS'__format__'
p32
S'<built-in method __format__ of exceptions.WindowsError object>'
p33
sS'__class__'
p34
S"<type 'exceptions.WindowsError'>"
p35
sS'filename'
p36
S"'C:/Users/admin/Desktop/Sathvik/Tharuni.Org/appli...ns/127.0.0.1-b09474c4-74c6-4bff-864d-e3d6c3b6e87e'"
p37
sS'__doc__'
p38
S"'MS-Windows OS system call failed.'"
p39
sS'__getitem__'
p40
S"<method-wrapper '__getitem__' of exceptions.WindowsError object>"
p41
sS'__setstate__'
p42
S'<built-in method __setstate__ of exceptions.WindowsError object>'
p43
sS'__getattribute__'
p44
S"<method-wrapper '__getattribute__' of exceptions.WindowsError object>"
p45
sS'args'
p46
S"(32, 'The process cannot access the file because it is being used by another process')"
p47
sS'__subclasshook__'
p48
S'<built-in method __subclasshook__ of type object>'
p49
sS'__unicode__'
p50
S'<built-in method __unicode__ of exceptions.WindowsError object>'
p51
sS'winerror'
p52
S'32'
p53
sS'strerror'
p54
S"'The process cannot access the file because it is being used by another process'"
p55
sS'__delattr__'
p56
S"<method-wrapper '__delattr__' of exceptions.WindowsError object>"
p57
sS'__repr__'
p58
S"<method-wrapper '__repr__' of exceptions.WindowsError object>"
p59
sS'__hash__'
p60
S"<method-wrapper '__hash__' of exceptions.WindowsError object>"
p61
ssS'evalue'
p62
S"[Error 32] The process cannot access the file because it is being used by another process: 'C:/Users/admin/Desktop/Sathvik/Tharuni.Org/applications/admin/sessions/127.0.0.1-b09474c4-74c6-4bff-864d-e3d6c3b6e87e'"
p63
sS'request'
p64
ccopy_reg
_reconstructor
p65
(cgluon.html
BEAUTIFY
p66
c__builtin__
object
p67
NtRp68
(dp69
S'attributes'
p70
(dp71
sS'components'
p72
(lp73
g65
(cgluon.html
TABLE
p74
g67
NtRp75
(dp76
g70
(dp77
S'level'
p78
I5
ssS'parent'
p79
Nsg72
(lp80
g65
(cgluon.html
TR
p81
g67
NtRp82
(dp83
g70
(dp84
sg79
g75
sg72
(lp85
g65
(cgluon.html
TD
p86
g67
NtRp87
(dp88
g70
(dp89
S'_style'
p90
S'font-weight:bold;vertical-align:top'
p91
ssg79
g82
sg72
(lp92
S'ajax'
p93
asbag65
(g86
g67
NtRp94
(dp95
g70
(dp96
S'_valign'
p97
S'top'
p98
ssg79
g82
sg72
(lp99
S':'
asbag65
(g86
g67
NtRp100
(dp101
g70
(dp102
sg79
g82
sg72
(lp103
g65
(g66
g67
NtRp104
(dp105
g70
(dp106
g78
I5
ssg79
g100
sg72
(lp107
S'False'
p108
asbasbasbag65
(g81
g67
NtRp109
(dp110
g70
(dp111
sg79
g75
sg72
(lp112
g65
(g86
g67
NtRp113
(dp114
g70
(dp115
g90
g91
ssg79
g109
sg72
(lp116
S'application'
p117
asbag65
(g86
g67
NtRp118
(dp119
g70
(dp120
g97
g98
ssg79
g109
sg72
(lp121
S':'
asbag65
(g86
g67
NtRp122
(dp123
g70
(dp124
sg79
g109
sg72
(lp125
g65
(g66
g67
NtRp126
(dp127
g70
(dp128
g78
I5
ssg79
g122
sg72
(lp129
S'admin'
p130
asbasbasbag65
(g81
g67
NtRp131
(dp132
g70
(dp133
sg79
g75
sg72
(lp134
g65
(g86
g67
NtRp135
(dp136
g70
(dp137
g90
g91
ssg79
g131
sg72
(lp138
g46
asbag65
(g86
g67
NtRp139
(dp140
g70
(dp141
g97
g98
ssg79
g131
sg72
(lp142
S':'
asbag65
(g86
g67
NtRp143
(dp144
g70
(dp145
sg79
g131
sg72
(lp146
g65
(g66
g67
NtRp147
(dp148
g70
(dp149
g78
I5
ssg79
g143
sg72
(lp150
g65
(g74
g67
NtRp151
(dp152
g70
(dp153
g78
I4
ssg79
Nsg72
(lp154
g65
(g81
g67
NtRp155
(dp156
g70
(dp157
sg79
g151
sg72
(lp158
g65
(g86
g67
NtRp159
(dp160
g70
(dp161
sg79
g155
sg72
(lp162
g65
(g66
g67
NtRp163
(dp164
g70
(dp165
g78
I4
ssg79
g159
sg72
(lp166
S'admin'
p167
asbasbasbasbasbasbasbag65
(g81
g67
NtRp168
(dp169
g70
(dp170
sg79
g75
sg72
(lp171
g65
(g86
g67
NtRp172
(dp173
g70
(dp174
g90
g91
ssg79
g168
sg72
(lp175
S'body'
p176
asbag65
(g86
g67
NtRp177
(dp178
g70
(dp179
g97
g98
ssg79
g168
sg72
(lp180
S':'
asbag65
(g86
g67
NtRp181
(dp182
g70
(dp183
sg79
g168
sg72
(lp184
g65
(g66
g67
NtRp185
(dp186
g70
(dp187
g78
I5
ssg79
g181
sg72
(lp188
S'<cStringIO.StringO object at 0x0000000003915C38>'
p189
asbasbasbag65
(g81
g67
NtRp190
(dp191
g70
(dp192
sg79
g75
sg72
(lp193
g65
(g86
g67
NtRp194
(dp195
g70
(dp196
g90
g91
ssg79
g190
sg72
(lp197
S'cid'
p198
asbag65
(g86
g67
NtRp199
(dp200
g70
(dp201
g97
g98
ssg79
g190
sg72
(lp202
S':'
asbag65
(g86
g67
NtRp203
(dp204
g70
(dp205
sg79
g190
sg72
(lp206
g65
(g66
g67
NtRp207
(dp208
g70
(dp209
g78
I5
ssg79
g203
sg72
(lp210
S'None'
p211
asbasbasbag65
(g81
g67
NtRp212
(dp213
g70
(dp214
sg79
g75
sg72
(lp215
g65
(g86
g67
NtRp216
(dp217
g70
(dp218
g90
g91
ssg79
g212
sg72
(lp219
S'client'
p220
asbag65
(g86
g67
NtRp221
(dp222
g70
(dp223
g97
g98
ssg79
g212
sg72
(lp224
S':'
asbag65
(g86
g67
NtRp225
(dp226
g70
(dp227
sg79
g212
sg72
(lp228
g65
(g66
g67
NtRp229
(dp230
g70
(dp231
g78
I5
ssg79
g225
sg72
(lp232
S'127.0.0.1'
p233
asbasbasbag65
(g81
g67
NtRp234
(dp235
g70
(dp236
sg79
g75
sg72
(lp237
g65
(g86
g67
NtRp238
(dp239
g70
(dp240
g90
g91
ssg79
g234
sg72
(lp241
S'controller'
p242
asbag65
(g86
g67
NtRp243
(dp244
g70
(dp245
g97
g98
ssg79
g234
sg72
(lp246
S':'
asbag65
(g86
g67
NtRp247
(dp248
g70
(dp249
sg79
g234
sg72
(lp250
g65
(g66
g67
NtRp251
(dp252
g70
(dp253
g78
I5
ssg79
g247
sg72
(lp254
S'default'
p255
asbasbasbag65
(g81
g67
NtRp256
(dp257
g70
(dp258
sg79
g75
sg72
(lp259
g65
(g86
g67
NtRp260
(dp261
g70
(dp262
g90
g91
ssg79
g256
sg72
(lp263
S'cookies'
p264
asbag65
(g86
g67
NtRp265
(dp266
g70
(dp267
g97
g98
ssg79
g256
sg72
(lp268
S':'
asbag65
(g86
g67
NtRp269
(dp270
g70
(dp271
sg79
g256
sg72
(lp272
g65
(g66
g67
NtRp273
(dp274
g70
(dp275
g78
I5
ssg79
g269
sg72
(lp276
g65
(g74
g67
NtRp277
(dp278
g70
(dp279
g78
I4
ssg79
Nsg72
(lp280
g65
(g81
g67
NtRp281
(dp282
g70
(dp283
sg79
g277
sg72
(lp284
g65
(g86
g67
NtRp285
(dp286
g70
(dp287
g90
g91
ssg79
g281
sg72
(lp288
S'session_id_admin'
p289
asbag65
(g86
g67
NtRp290
(dp291
g70
(dp292
g97
g98
ssg79
g281
sg72
(lp293
S':'
asbag65
(g86
g67
NtRp294
(dp295
g70
(dp296
sg79
g281
sg72
(lp297
g65
(g66
g67
NtRp298
(dp299
g70
(dp300
g78
I4
ssg79
g294
sg72
(lp301
S'127.0.0.1-b09474c4-74c6-4bff-864d-e3d6c3b6e87e'
p302
ag65
(g74
g67
NtRp303
(dp304
g70
(dp305
g78
I3
ssg79
Nsg72
(lp306
g65
(g81
g67
NtRp307
(dp308
g70
(dp309
sg79
g303
sg72
(lp310
g65
(g86
g67
NtRp311
(dp312
g70
(dp313
g90
g91
ssg79
g307
sg72
(lp314
S'comment'
p315
asbag65
(g86
g67
NtRp316
(dp317
g70
(dp318
g97
g98
ssg79
g307
sg72
(lp319
S':'
asbag65
(g86
g67
NtRp320
(dp321
g70
(dp322
sg79
g307
sg72
(lp323
g65
(g66
g67
NtRp324
(dp325
g70
(dp326
g78
I3
ssg79
g320
sg72
(lp327
S''
asbasbasbag65
(g81
g67
NtRp328
(dp329
g70
(dp330
sg79
g303
sg72
(lp331
g65
(g86
g67
NtRp332
(dp333
g70
(dp334
g90
g91
ssg79
g328
sg72
(lp335
S'domain'
p336
asbag65
(g86
g67
NtRp337
(dp338
g70
(dp339
g97
g98
ssg79
g328
sg72
(lp340
S':'
asbag65
(g86
g67
NtRp341
(dp342
g70
(dp343
sg79
g328
sg72
(lp344
g65
(g66
g67
NtRp345
(dp346
g70
(dp347
g78
I3
ssg79
g341
sg72
(lp348
S''
asbasbasbag65
(g81
g67
NtRp349
(dp350
g70
(dp351
sg79
g303
sg72
(lp352
g65
(g86
g67
NtRp353
(dp354
g70
(dp355
g90
g91
ssg79
g349
sg72
(lp356
S'expires'
p357
asbag65
(g86
g67
NtRp358
(dp359
g70
(dp360
g97
g98
ssg79
g349
sg72
(lp361
S':'
asbag65
(g86
g67
NtRp362
(dp363
g70
(dp364
sg79
g349
sg72
(lp365
g65
(g66
g67
NtRp366
(dp367
g70
(dp368
g78
I3
ssg79
g362
sg72
(lp369
S''
asbasbasbag65
(g81
g67
NtRp370
(dp371
g70
(dp372
sg79
g303
sg72
(lp373
g65
(g86
g67
NtRp374
(dp375
g70
(dp376
g90
g91
ssg79
g370
sg72
(lp377
S'httponly'
p378
asbag65
(g86
g67
NtRp379
(dp380
g70
(dp381
g97
g98
ssg79
g370
sg72
(lp382
S':'
asbag65
(g86
g67
NtRp383
(dp384
g70
(dp385
sg79
g370
sg72
(lp386
g65
(g66
g67
NtRp387
(dp388
g70
(dp389
g78
I3
ssg79
g383
sg72
(lp390
S''
asbasbasbag65
(g81
g67
NtRp391
(dp392
g70
(dp393
sg79
g303
sg72
(lp394
g65
(g86
g67
NtRp395
(dp396
g70
(dp397
g90
g91
ssg79
g391
sg72
(lp398
S'max-age'
p399
asbag65
(g86
g67
NtRp400
(dp401
g70
(dp402
g97
g98
ssg79
g391
sg72
(lp403
S':'
asbag65
(g86
g67
NtRp404
(dp405
g70
(dp406
sg79
g391
sg72
(lp407
g65
(g66
g67
NtRp408
(dp409
g70
(dp410
g78
I3
ssg79
g404
sg72
(lp411
S''
asbasbasbag65
(g81
g67
NtRp412
(dp413
g70
(dp414
sg79
g303
sg72
(lp415
g65
(g86
g67
NtRp416
(dp417
g70
(dp418
g90
g91
ssg79
g412
sg72
(lp419
S'path'
p420
asbag65
(g86
g67
NtRp421
(dp422
g70
(dp423
g97
g98
ssg79
g412
sg72
(lp424
S':'
asbag65
(g86
g67
NtRp425
(dp426
g70
(dp427
sg79
g412
sg72
(lp428
g65
(g66
g67
NtRp429
(dp430
g70
(dp431
g78
I3
ssg79
g425
sg72
(lp432
S''
asbasbasbag65
(g81
g67
NtRp433
(dp434
g70
(dp435
sg79
g303
sg72
(lp436
g65
(g86
g67
NtRp437
(dp438
g70
(dp439
g90
g91
ssg79
g433
sg72
(lp440
S'secure'
p441
asbag65
(g86
g67
NtRp442
(dp443
g70
(dp444
g97
g98
ssg79
g433
sg72
(lp445
S':'
asbag65
(g86
g67
NtRp446
(dp447
g70
(dp448
sg79
g433
sg72
(lp449
g65
(g66
g67
NtRp450
(dp451
g70
(dp452
g78
I3
ssg79
g446
sg72
(lp453
S''
asbasbasbag65
(g81
g67
NtRp454
(dp455
g70
(dp456
sg79
g303
sg72
(lp457
g65
(g86
g67
NtRp458
(dp459
g70
(dp460
g90
g91
ssg79
g454
sg72
(lp461
S'version'
p462
asbag65
(g86
g67
NtRp463
(dp464
g70
(dp465
g97
g98
ssg79
g454
sg72
(lp466
S':'
asbag65
(g86
g67
NtRp467
(dp468
g70
(dp469
sg79
g454
sg72
(lp470
g65
(g66
g67
NtRp471
(dp472
g70
(dp473
g78
I3
ssg79
g467
sg72
(lp474
S''
asbasbasbasbasbasbasbag65
(g81
g67
NtRp475
(dp476
g70
(dp477
sg79
g277
sg72
(lp478
g65
(g86
g67
NtRp479
(dp480
g70
(dp481
g90
g91
ssg79
g475
sg72
(lp482
S'session_id_init'
p483
asbag65
(g86
g67
NtRp484
(dp485
g70
(dp486
g97
g98
ssg79
g475
sg72
(lp487
S':'
asbag65
(g86
g67
NtRp488
(dp489
g70
(dp490
sg79
g475
sg72
(lp491
g65
(g66
g67
NtRp492
(dp493
g70
(dp494
g78
I4
ssg79
g488
sg72
(lp495
S'127.0.0.1-25e4f0b0-6722-4848-8138-4982fbd66fdf'
p496
ag65
(g74
g67
NtRp497
(dp498
g70
(dp499
g78
I3
ssg79
Nsg72
(lp500
g65
(g81
g67
NtRp501
(dp502
g70
(dp503
sg79
g497
sg72
(lp504
g65
(g86
g67
NtRp505
(dp506
g70
(dp507
g90
g91
ssg79
g501
sg72
(lp508
g315
asbag65
(g86
g67
NtRp509
(dp510
g70
(dp511
g97
g98
ssg79
g501
sg72
(lp512
S':'
asbag65
(g86
g67
NtRp513
(dp514
g70
(dp515
sg79
g501
sg72
(lp516
g65
(g66
g67
NtRp517
(dp518
g70
(dp519
g78
I3
ssg79
g513
sg72
(lp520
S''
asbasbasbag65
(g81
g67
NtRp521
(dp522
g70
(dp523
sg79
g497
sg72
(lp524
g65
(g86
g67
NtRp525
(dp526
g70
(dp527
g90
g91
ssg79
g521
sg72
(lp528
g336
asbag65
(g86
g67
NtRp529
(dp530
g70
(dp531
g97
g98
ssg79
g521
sg72
(lp532
S':'
asbag65
(g86
g67
NtRp533
(dp534
g70
(dp535
sg79
g521
sg72
(lp536
g65
(g66
g67
NtRp537
(dp538
g70
(dp539
g78
I3
ssg79
g533
sg72
(lp540
S''
asbasbasbag65
(g81
g67
NtRp541
(dp542
g70
(dp543
sg79
g497
sg72
(lp544
g65
(g86
g67
NtRp545
(dp546
g70
(dp547
g90
g91
ssg79
g541
sg72
(lp548
g357
asbag65
(g86
g67
NtRp549
(dp550
g70
(dp551
g97
g98
ssg79
g541
sg72
(lp552
S':'
asbag65
(g86
g67
NtRp553
(dp554
g70
(dp555
sg79
g541
sg72
(lp556
g65
(g66
g67
NtRp557
(dp558
g70
(dp559
g78
I3
ssg79
g553
sg72
(lp560
S''
asbasbasbag65
(g81
g67
NtRp561
(dp562
g70
(dp563
sg79
g497
sg72
(lp564
g65
(g86
g67
NtRp565
(dp566
g70
(dp567
g90
g91
ssg79
g561
sg72
(lp568
g378
asbag65
(g86
g67
NtRp569
(dp570
g70
(dp571
g97
g98
ssg79
g561
sg72
(lp572
S':'
asbag65
(g86
g67
NtRp573
(dp574
g70
(dp575
sg79
g561
sg72
(lp576
g65
(g66
g67
NtRp577
(dp578
g70
(dp579
g78
I3
ssg79
g573
sg72
(lp580
S''
asbasbasbag65
(g81
g67
NtRp581
(dp582
g70
(dp583
sg79
g497
sg72
(lp584
g65
(g86
g67
NtRp585
(dp586
g70
(dp587
g90
g91
ssg79
g581
sg72
(lp588
g399
asbag65
(g86
g67
NtRp589
(dp590
g70
(dp591
g97
g98
ssg79
g581
sg72
(lp592
S':'
asbag65
(g86
g67
NtRp593
(dp594
g70
(dp595
sg79
g581
sg72
(lp596
g65
(g66
g67
NtRp597
(dp598
g70
(dp599
g78
I3
ssg79
g593
sg72
(lp600
S''
asbasbasbag65
(g81
g67
NtRp601
(dp602
g70
(dp603
sg79
g497
sg72
(lp604
g65
(g86
g67
NtRp605
(dp606
g70
(dp607
g90
g91
ssg79
g601
sg72
(lp608
g420
asbag65
(g86
g67
NtRp609
(dp610
g70
(dp611
g97
g98
ssg79
g601
sg72
(lp612
S':'
asbag65
(g86
g67
NtRp613
(dp614
g70
(dp615
sg79
g601
sg72
(lp616
g65
(g66
g67
NtRp617
(dp618
g70
(dp619
g78
I3
ssg79
g613
sg72
(lp620
S''
asbasbasbag65
(g81
g67
NtRp621
(dp622
g70
(dp623
sg79
g497
sg72
(lp624
g65
(g86
g67
NtRp625
(dp626
g70
(dp627
g90
g91
ssg79
g621
sg72
(lp628
g441
asbag65
(g86
g67
NtRp629
(dp630
g70
(dp631
g97
g98
ssg79
g621
sg72
(lp632
S':'
asbag65
(g86
g67
NtRp633
(dp634
g70
(dp635
sg79
g621
sg72
(lp636
g65
(g66
g67
NtRp637
(dp638
g70
(dp639
g78
I3
ssg79
g633
sg72
(lp640
S''
asbasbasbag65
(g81
g67
NtRp641
(dp642
g70
(dp643
sg79
g497
sg72
(lp644
g65
(g86
g67
NtRp645
(dp646
g70
(dp647
g90
g91
ssg79
g641
sg72
(lp648
g462
asbag65
(g86
g67
NtRp649
(dp650
g70
(dp651
g97
g98
ssg79
g641
sg72
(lp652
S':'
asbag65
(g86
g67
NtRp653
(dp654
g70
(dp655
sg79
g641
sg72
(lp656
g65
(g66
g67
NtRp657
(dp658
g70
(dp659
g78
I3
ssg79
g653
sg72
(lp660
S''
asbasbasbasbasbasbasbasbasbasbasbag65
(g81
g67
NtRp661
(dp662
g70
(dp663
sg79
g75
sg72
(lp664
g65
(g86
g67
NtRp665
(dp666
g70
(dp667
g90
g91
ssg79
g661
sg72
(lp668
S'env'
p669
asbag65
(g86
g67
NtRp670
(dp671
g70
(dp672
g97
g98
ssg79
g661
sg72
(lp673
S':'
asbag65
(g86
g67
NtRp674
(dp675
g70
(dp676
sg79
g661
sg72
(lp677
g65
(g66
g67
NtRp678
(dp679
g70
(dp680
g78
I5
ssg79
g674
sg72
(lp681
g65
(g74
g67
NtRp682
(dp683
g70
(dp684
g78
I4
ssg79
Nsg72
(lp685
g65
(g81
g67
NtRp686
(dp687
g70
(dp688
sg79
g682
sg72
(lp689
g65
(g86
g67
NtRp690
(dp691
g70
(dp692
g90
g91
ssg79
g686
sg72
(lp693
S'app_folders'
p694
asbag65
(g86
g67
NtRp695
(dp696
g70
(dp697
g97
g98
ssg79
g686
sg72
(lp698
S':'
asbag65
(g86
g67
NtRp699
(dp700
g70
(dp701
sg79
g686
sg72
(lp702
g65
(g66
g67
NtRp703
(dp704
g70
(dp705
g78
I4
ssg79
g699
sg72
(lp706
S"set(['C:\\\\Users\\\\admin\\\\Desktop\\\\Sathvik\\\\Tharuni.Org\\\\applications\\\\init\\\\', 'C:\\\\Users\\\\admin\\\\Desktop\\\\Sathvik\\\\Tharuni.Org\\\\applications\\\\admin\\\\'])"
p707
asbasbasbag65
(g81
g67
NtRp708
(dp709
g70
(dp710
sg79
g682
sg72
(lp711
g65
(g86
g67
NtRp712
(dp713
g70
(dp714
g90
g91
ssg79
g708
sg72
(lp715
S'applications_parent'
p716
asbag65
(g86
g67
NtRp717
(dp718
g70
(dp719
g97
g98
ssg79
g708
sg72
(lp720
S':'
asbag65
(g86
g67
NtRp721
(dp722
g70
(dp723
sg79
g708
sg72
(lp724
g65
(g66
g67
NtRp725
(dp726
g70
(dp727
g78
I4
ssg79
g721
sg72
(lp728
S'C:\\Users\\admin\\Desktop\\Sathvik\\Tharuni.Org'
p729
asbasbasbag65
(g81
g67
NtRp730
(dp731
g70
(dp732
sg79
g682
sg72
(lp733
g65
(g86
g67
NtRp734
(dp735
g70
(dp736
g90
g91
ssg79
g730
sg72
(lp737
S'cmd_args'
p738
asbag65
(g86
g67
NtRp739
(dp740
g70
(dp741
g97
g98
ssg79
g730
sg72
(lp742
S':'
asbag65
(g86
g67
NtRp743
(dp744
g70
(dp745
sg79
g730
sg72
(lp746
g65
(g66
g67
NtRp747
(dp748
g70
(dp749
g78
I4
ssg79
g743
sg72
(lp750
g65
(g74
g67
NtRp751
(dp752
g70
(dp753
g78
I3
ssg79
Nsg72
(lp754
sbasbasbasbag65
(g81
g67
NtRp755
(dp756
g70
(dp757
sg79
g682
sg72
(lp758
g65
(g86
g67
NtRp759
(dp760
g70
(dp761
g90
g91
ssg79
g755
sg72
(lp762
S'cmd_options'
p763
asbag65
(g86
g67
NtRp764
(dp765
g70
(dp766
g97
g98
ssg79
g755
sg72
(lp767
S':'
asbag65
(g86
g67
NtRp768
(dp769
g70
(dp770
sg79
g755
sg72
(lp771
g65
(g66
g67
NtRp772
(dp773
g70
(dp774
g78
I4
ssg79
g768
sg72
(lp775
S"<Values at 0x36b4188: {'verbose': False, 'ip': '127.0.0.1', 'with_scheduler': False, 'ips': ['10.8.4.49', '192.168.1.132', '192.168.56.1', '192.168.166.1', '169.254.251.64'], 'shutdown_timeout': 5, 'taskbar': False, 'port': 8000, 'maxthreads': None, 'softcron': False, 'server_name': 'LP-US-002', 'bpython': False, 'nogui': False, 'nocron': False, 'extcron': False, 'run_system_tests': False, 'test': None, 'folder': 'C:\\\\Users\\\\admin\\\\Desktop\\\\Sathvik\\\\Tharuni.Org', 'config': '', 'import_models': False, 'winservice': '', 'shell': None, 'run': '', 'log_filename': 'httpserver.log', 'debuglevel': 30, 'args': [''], 'socket_timeout': 5, 'ssl_ca_certificate': None, 'scheduler': None, 'profiler_filename': None, 'ssl_private_key': '', 'scheduler_groups': None, 'password': '<ask>', 'request_queue_size': 5, 'ssl_certificate': '', 'cronjob': False, 'numthreads': None, 'quiet': False, 'interfaces': None, 'minthreads': None, 'timeout': 10, 'plain': False, 'nobanner': False, 'pid_filename': 'httpserver.pid'}>"
p776
asbasbasbag65
(g81
g67
NtRp777
(dp778
g70
(dp779
sg79
g682
sg72
(lp780
g65
(g86
g67
NtRp781
(dp782
g70
(dp783
g90
g91
ssg79
g777
sg72
(lp784
S'db_sessions'
p785
asbag65
(g86
g67
NtRp786
(dp787
g70
(dp788
g97
g98
ssg79
g777
sg72
(lp789
S':'
asbag65
(g86
g67
NtRp790
(dp791
g70
(dp792
sg79
g777
sg72
(lp793
g65
(g66
g67
NtRp794
(dp795
g70
(dp796
g78
I4
ssg79
g790
sg72
(lp797
S'set([])'
p798
asbasbasbag65
(g81
g67
NtRp799
(dp800
g70
(dp801
sg79
g682
sg72
(lp802
g65
(g86
g67
NtRp803
(dp804
g70
(dp805
g90
g91
ssg79
g799
sg72
(lp806
S'debugging'
p807
asbag65
(g86
g67
NtRp808
(dp809
g70
(dp810
g97
g98
ssg79
g799
sg72
(lp811
S':'
asbag65
(g86
g67
NtRp812
(dp813
g70
(dp814
sg79
g799
sg72
(lp815
g65
(g66
g67
NtRp816
(dp817
g70
(dp818
g78
I4
ssg79
g812
sg72
(lp819
g108
asbasbasbag65
(g81
g67
NtRp820
(dp821
g70
(dp822
sg79
g682
sg72
(lp823
g65
(g86
g67
NtRp824
(dp825
g70
(dp826
g90
g91
ssg79
g820
sg72
(lp827
S'gluon_parent'
p828
asbag65
(g86
g67
NtRp829
(dp830
g70
(dp831
g97
g98
ssg79
g820
sg72
(lp832
S':'
asbag65
(g86
g67
NtRp833
(dp834
g70
(dp835
sg79
g820
sg72
(lp836
g65
(g66
g67
NtRp837
(dp838
g70
(dp839
g78
I4
ssg79
g833
sg72
(lp840
S'C:\\Users\\admin\\Desktop\\Sathvik\\Tharuni.Org'
p841
asbasbasbag65
(g81
g67
NtRp842
(dp843
g70
(dp844
sg79
g682
sg72
(lp845
g65
(g86
g67
NtRp846
(dp847
g70
(dp848
g90
g91
ssg79
g842
sg72
(lp849
S'http_accept'
p850
asbag65
(g86
g67
NtRp851
(dp852
g70
(dp853
g97
g98
ssg79
g842
sg72
(lp854
S':'
asbag65
(g86
g67
NtRp855
(dp856
g70
(dp857
sg79
g842
sg72
(lp858
g65
(g66
g67
NtRp859
(dp860
g70
(dp861
g78
I4
ssg79
g855
sg72
(lp862
S'text/html,application/xhtml+xml,application/xml;q=0.9,*/*;q=0.8'
p863
asbasbasbag65
(g81
g67
NtRp864
(dp865
g70
(dp866
sg79
g682
sg72
(lp867
g65
(g86
g67
NtRp868
(dp869
g70
(dp870
g90
g91
ssg79
g864
sg72
(lp871
S'http_accept_charset'
p872
asbag65
(g86
g67
NtRp873
(dp874
g70
(dp875
g97
g98
ssg79
g864
sg72
(lp876
S':'
asbag65
(g86
g67
NtRp877
(dp878
g70
(dp879
sg79
g864
sg72
(lp880
g65
(g66
g67
NtRp881
(dp882
g70
(dp883
g78
I4
ssg79
g877
sg72
(lp884
S'ISO-8859-1,utf-8;q=0.7,*;q=0.3'
p885
asbasbasbag65
(g81
g67
NtRp886
(dp887
g70
(dp888
sg79
g682
sg72
(lp889
g65
(g86
g67
NtRp890
(dp891
g70
(dp892
g90
g91
ssg79
g886
sg72
(lp893
S'http_accept_encoding'
p894
asbag65
(g86
g67
NtRp895
(dp896
g70
(dp897
g97
g98
ssg79
g886
sg72
(lp898
S':'
asbag65
(g86
g67
NtRp899
(dp900
g70
(dp901
sg79
g886
sg72
(lp902
g65
(g66
g67
NtRp903
(dp904
g70
(dp905
g78
I4
ssg79
g899
sg72
(lp906
S'gzip,deflate,sdch'
p907
asbasbasbag65
(g81
g67
NtRp908
(dp909
g70
(dp910
sg79
g682
sg72
(lp911
g65
(g86
g67
NtRp912
(dp913
g70
(dp914
g90
g91
ssg79
g908
sg72
(lp915
S'http_accept_language'
p916
asbag65
(g86
g67
NtRp917
(dp918
g70
(dp919
g97
g98
ssg79
g908
sg72
(lp920
S':'
asbag65
(g86
g67
NtRp921
(dp922
g70
(dp923
sg79
g908
sg72
(lp924
g65
(g66
g67
NtRp925
(dp926
g70
(dp927
g78
I4
ssg79
g921
sg72
(lp928
S'en-US,en;q=0.8'
p929
asbasbasbag65
(g81
g67
NtRp930
(dp931
g70
(dp932
sg79
g682
sg72
(lp933
g65
(g86
g67
NtRp934
(dp935
g70
(dp936
g90
g91
ssg79
g930
sg72
(lp937
S'http_connection'
p938
asbag65
(g86
g67
NtRp939
(dp940
g70
(dp941
g97
g98
ssg79
g930
sg72
(lp942
S':'
asbag65
(g86
g67
NtRp943
(dp944
g70
(dp945
sg79
g930
sg72
(lp946
g65
(g66
g67
NtRp947
(dp948
g70
(dp949
g78
I4
ssg79
g943
sg72
(lp950
S'keep-alive'
p951
asbasbasbag65
(g81
g67
NtRp952
(dp953
g70
(dp954
sg79
g682
sg72
(lp955
g65
(g86
g67
NtRp956
(dp957
g70
(dp958
g90
g91
ssg79
g952
sg72
(lp959
S'http_cookie'
p960
asbag65
(g86
g67
NtRp961
(dp962
g70
(dp963
g97
g98
ssg79
g952
sg72
(lp964
S':'
asbag65
(g86
g67
NtRp965
(dp966
g70
(dp967
sg79
g952
sg72
(lp968
g65
(g66
g67
NtRp969
(dp970
g70
(dp971
g78
I4
ssg79
g965
sg72
(lp972
S'session_id_init=127.0.0.1-25e4f0b0-6722-4848-8138-4982fbd66fdf; __utma=96992031.1435691907.1350205259.1350205259.1350208853.2; __utmb=96992031.13.10.1350208853; __utmc=96992031; __utmz=96992031.1350205259.1.1.utmcsr=(direct)|utmccn=(direct)|utmcmd=(none); session_id_admin=127.0.0.1-b09474c4-74c6-4bff-864d-e3d6c3b6e87e'
p973
asbasbasbag65
(g81
g67
NtRp974
(dp975
g70
(dp976
sg79
g682
sg72
(lp977
g65
(g86
g67
NtRp978
(dp979
g70
(dp980
g90
g91
ssg79
g974
sg72
(lp981
S'http_host'
p982
asbag65
(g86
g67
NtRp983
(dp984
g70
(dp985
g97
g98
ssg79
g974
sg72
(lp986
S':'
asbag65
(g86
g67
NtRp987
(dp988
g70
(dp989
sg79
g974
sg72
(lp990
g65
(g66
g67
NtRp991
(dp992
g70
(dp993
g78
I4
ssg79
g987
sg72
(lp994
S'127.0.0.1:8000'
p995
asbasbasbag65
(g81
g67
NtRp996
(dp997
g70
(dp998
sg79
g682
sg72
(lp999
g65
(g86
g67
NtRp1000
(dp1001
g70
(dp1002
g90
g91
ssg79
g996
sg72
(lp1003
S'http_referer'
p1004
asbag65
(g86
g67
NtRp1005
(dp1006
g70
(dp1007
g97
g98
ssg79
g996
sg72
(lp1008
S':'
asbag65
(g86
g67
NtRp1009
(dp1010
g70
(dp1011
sg79
g996
sg72
(lp1012
g65
(g66
g67
NtRp1013
(dp1014
g70
(dp1015
g78
I4
ssg79
g1009
sg72
(lp1016
S'http://127.0.0.1:8000/admin/default/site'
p1017
asbasbasbag65
(g81
g67
NtRp1018
(dp1019
g70
(dp1020
sg79
g682
sg72
(lp1021
g65
(g86
g67
NtRp1022
(dp1023
g70
(dp1024
g90
g91
ssg79
g1018
sg72
(lp1025
S'http_user_agent'
p1026
asbag65
(g86
g67
NtRp1027
(dp1028
g70
(dp1029
g97
g98
ssg79
g1018
sg72
(lp1030
S':'
asbag65
(g86
g67
NtRp1031
(dp1032
g70
(dp1033
sg79
g1018
sg72
(lp1034
g65
(g66
g67
NtRp1035
(dp1036
g70
(dp1037
g78
I4
ssg79
g1031
sg72
(lp1038
S'Mozilla/5.0 (Windows NT 6.1; WOW64) AppleWebKit/537.4 (KHTML, like Gecko) Chrome/22.0.1229.91 Safari/537.4'
p1039
asbasbasbag65
(g81
g67
NtRp1040
(dp1041
g70
(dp1042
sg79
g682
sg72
(lp1043
g65
(g86
g67
NtRp1044
(dp1045
g70
(dp1046
g90
g91
ssg79
g1040
sg72
(lp1047
S'is_jython'
p1048
asbag65
(g86
g67
NtRp1049
(dp1050
g70
(dp1051
g97
g98
ssg79
g1040
sg72
(lp1052
S':'
asbag65
(g86
g67
NtRp1053
(dp1054
g70
(dp1055
sg79
g1040
sg72
(lp1056
g65
(g66
g67
NtRp1057
(dp1058
g70
(dp1059
g78
I4
ssg79
g1053
sg72
(lp1060
g108
asbasbasbag65
(g81
g67
NtRp1061
(dp1062
g70
(dp1063
sg79
g682
sg72
(lp1064
g65
(g86
g67
NtRp1065
(dp1066
g70
(dp1067
g90
g91
ssg79
g1061
sg72
(lp1068
S'is_pypy'
p1069
asbag65
(g86
g67
NtRp1070
(dp1071
g70
(dp1072
g97
g98
ssg79
g1061
sg72
(lp1073
S':'
asbag65
(g86
g67
NtRp1074
(dp1075
g70
(dp1076
sg79
g1061
sg72
(lp1077
g65
(g66
g67
NtRp1078
(dp1079
g70
(dp1080
g78
I4
ssg79
g1074
sg72
(lp1081
g108
asbasbasbag65
(g81
g67
NtRp1082
(dp1083
g70
(dp1084
sg79
g682
sg72
(lp1085
g65
(g86
g67
NtRp1086
(dp1087
g70
(dp1088
g90
g91
ssg79
g1082
sg72
(lp1089
S'path_info'
p1090
asbag65
(g86
g67
NtRp1091
(dp1092
g70
(dp1093
g97
g98
ssg79
g1082
sg72
(lp1094
S':'
asbag65
(g86
g67
NtRp1095
(dp1096
g70
(dp1097
sg79
g1082
sg72
(lp1098
g65
(g66
g67
NtRp1099
(dp1100
g70
(dp1101
g78
I4
ssg79
g1095
sg72
(lp1102
S'/admin/default/cleanup/admin'
p1103
asbasbasbag65
(g81
g67
NtRp1104
(dp1105
g70
(dp1106
sg79
g682
sg72
(lp1107
g65
(g86
g67
NtRp1108
(dp1109
g70
(dp1110
g90
g91
ssg79
g1104
sg72
(lp1111
S'query_string'
p1112
asbag65
(g86
g67
NtRp1113
(dp1114
g70
(dp1115
g97
g98
ssg79
g1104
sg72
(lp1116
S':'
asbag65
(g86
g67
NtRp1117
(dp1118
g70
(dp1119
sg79
g1104
sg72
(lp1120
g65
(g66
g67
NtRp1121
(dp1122
g70
(dp1123
g78
I4
ssg79
g1117
sg72
(lp1124
S''
asbasbasbag65
(g81
g67
NtRp1125
(dp1126
g70
(dp1127
sg79
g682
sg72
(lp1128
g65
(g86
g67
NtRp1129
(dp1130
g70
(dp1131
g90
g91
ssg79
g1125
sg72
(lp1132
S'remote_addr'
p1133
asbag65
(g86
g67
NtRp1134
(dp1135
g70
(dp1136
g97
g98
ssg79
g1125
sg72
(lp1137
S':'
asbag65
(g86
g67
NtRp1138
(dp1139
g70
(dp1140
sg79
g1125
sg72
(lp1141
g65
(g66
g67
NtRp1142
(dp1143
g70
(dp1144
g78
I4
ssg79
g1138
sg72
(lp1145
g233
asbasbasbag65
(g81
g67
NtRp1146
(dp1147
g70
(dp1148
sg79
g682
sg72
(lp1149
g65
(g86
g67
NtRp1150
(dp1151
g70
(dp1152
g90
g91
ssg79
g1146
sg72
(lp1153
S'remote_port'
p1154
asbag65
(g86
g67
NtRp1155
(dp1156
g70
(dp1157
g97
g98
ssg79
g1146
sg72
(lp1158
S':'
asbag65
(g86
g67
NtRp1159
(dp1160
g70
(dp1161
sg79
g1146
sg72
(lp1162
g65
(g66
g67
NtRp1163
(dp1164
g70
(dp1165
g78
I4
ssg79
g1159
sg72
(lp1166
S'51573'
p1167
asbasbasbag65
(g81
g67
NtRp1168
(dp1169
g70
(dp1170
sg79
g682
sg72
(lp1171
g65
(g86
g67
NtRp1172
(dp1173
g70
(dp1174
g90
g91
ssg79
g1168
sg72
(lp1175
S'request_method'
p1176
asbag65
(g86
g67
NtRp1177
(dp1178
g70
(dp1179
g97
g98
ssg79
g1168
sg72
(lp1180
S':'
asbag65
(g86
g67
NtRp1181
(dp1182
g70
(dp1183
sg79
g1168
sg72
(lp1184
g65
(g66
g67
NtRp1185
(dp1186
g70
(dp1187
g78
I4
ssg79
g1181
sg72
(lp1188
S'GET'
p1189
asbasbasbag65
(g81
g67
NtRp1190
(dp1191
g70
(dp1192
sg79
g682
sg72
(lp1193
g65
(g86
g67
NtRp1194
(dp1195
g70
(dp1196
g90
g91
ssg79
g1190
sg72
(lp1197
S'request_uri'
p1198
asbag65
(g86
g67
NtRp1199
(dp1200
g70
(dp1201
g97
g98
ssg79
g1190
sg72
(lp1202
S':'
asbag65
(g86
g67
NtRp1203
(dp1204
g70
(dp1205
sg79
g1190
sg72
(lp1206
g65
(g66
g67
NtRp1207
(dp1208
g70
(dp1209
g78
I4
ssg79
g1203
sg72
(lp1210
g1103
asbasbasbag65
(g81
g67
NtRp1211
(dp1212
g70
(dp1213
sg79
g682
sg72
(lp1214
g65
(g86
g67
NtRp1215
(dp1216
g70
(dp1217
g90
g91
ssg79
g1211
sg72
(lp1218
S'script_name'
p1219
asbag65
(g86
g67
NtRp1220
(dp1221
g70
(dp1222
g97
g98
ssg79
g1211
sg72
(lp1223
S':'
asbag65
(g86
g67
NtRp1224
(dp1225
g70
(dp1226
sg79
g1211
sg72
(lp1227
g65
(g66
g67
NtRp1228
(dp1229
g70
(dp1230
g78
I4
ssg79
g1224
sg72
(lp1231
S''
asbasbasbag65
(g81
g67
NtRp1232
(dp1233
g70
(dp1234
sg79
g682
sg72
(lp1235
g65
(g86
g67
NtRp1236
(dp1237
g70
(dp1238
g90
g91
ssg79
g1232
sg72
(lp1239
S'server_name'
p1240
asbag65
(g86
g67
NtRp1241
(dp1242
g70
(dp1243
g97
g98
ssg79
g1232
sg72
(lp1244
S':'
asbag65
(g86
g67
NtRp1245
(dp1246
g70
(dp1247
sg79
g1232
sg72
(lp1248
g65
(g66
g67
NtRp1249
(dp1250
g70
(dp1251
g78
I4
ssg79
g1245
sg72
(lp1252
S'LP-US-002'
p1253
asbasbasbag65
(g81
g67
NtRp1254
(dp1255
g70
(dp1256
sg79
g682
sg72
(lp1257
g65
(g86
g67
NtRp1258
(dp1259
g70
(dp1260
g90
g91
ssg79
g1254
sg72
(lp1261
S'server_port'
p1262
asbag65
(g86
g67
NtRp1263
(dp1264
g70
(dp1265
g97
g98
ssg79
g1254
sg72
(lp1266
S':'
asbag65
(g86
g67
NtRp1267
(dp1268
g70
(dp1269
sg79
g1254
sg72
(lp1270
g65
(g66
g67
NtRp1271
(dp1272
g70
(dp1273
g78
I4
ssg79
g1267
sg72
(lp1274
S'8000'
p1275
asbasbasbag65
(g81
g67
NtRp1276
(dp1277
g70
(dp1278
sg79
g682
sg72
(lp1279
g65
(g86
g67
NtRp1280
(dp1281
g70
(dp1282
g90
g91
ssg79
g1276
sg72
(lp1283
S'server_protocol'
p1284
asbag65
(g86
g67
NtRp1285
(dp1286
g70
(dp1287
g97
g98
ssg79
g1276
sg72
(lp1288
S':'
asbag65
(g86
g67
NtRp1289
(dp1290
g70
(dp1291
sg79
g1276
sg72
(lp1292
g65
(g66
g67
NtRp1293
(dp1294
g70
(dp1295
g78
I4
ssg79
g1289
sg72
(lp1296
S'HTTP/1.1'
p1297
asbasbasbag65
(g81
g67
NtRp1298
(dp1299
g70
(dp1300
sg79
g682
sg72
(lp1301
g65
(g86
g67
NtRp1302
(dp1303
g70
(dp1304
g90
g91
ssg79
g1298
sg72
(lp1305
S'server_software'
p1306
asbag65
(g86
g67
NtRp1307
(dp1308
g70
(dp1309
g97
g98
ssg79
g1298
sg72
(lp1310
S':'
asbag65
(g86
g67
NtRp1311
(dp1312
g70
(dp1313
sg79
g1298
sg72
(lp1314
g65
(g66
g67
NtRp1315
(dp1316
g70
(dp1317
g78
I4
ssg79
g1311
sg72
(lp1318
S'Rocket 1.2.4'
p1319
asbasbasbag65
(g81
g67
NtRp1320
(dp1321
g70
(dp1322
sg79
g682
sg72
(lp1323
g65
(g86
g67
NtRp1324
(dp1325
g70
(dp1326
g90
g91
ssg79
g1320
sg72
(lp1327
S'web2py_crontype'
p1328
asbag65
(g86
g67
NtRp1329
(dp1330
g70
(dp1331
g97
g98
ssg79
g1320
sg72
(lp1332
S':'
asbag65
(g86
g67
NtRp1333
(dp1334
g70
(dp1335
sg79
g1320
sg72
(lp1336
g65
(g66
g67
NtRp1337
(dp1338
g70
(dp1339
g78
I4
ssg79
g1333
sg72
(lp1340
S'hard'
p1341
asbasbasbag65
(g81
g67
NtRp1342
(dp1343
g70
(dp1344
sg79
g682
sg72
(lp1345
g65
(g86
g67
NtRp1346
(dp1347
g70
(dp1348
g90
g91
ssg79
g1342
sg72
(lp1349
S'web2py_original_uri'
p1350
asbag65
(g86
g67
NtRp1351
(dp1352
g70
(dp1353
g97
g98
ssg79
g1342
sg72
(lp1354
S':'
asbag65
(g86
g67
NtRp1355
(dp1356
g70
(dp1357
sg79
g1342
sg72
(lp1358
g65
(g66
g67
NtRp1359
(dp1360
g70
(dp1361
g78
I4
ssg79
g1355
sg72
(lp1362
g1103
asbasbasbag65
(g81
g67
NtRp1363
(dp1364
g70
(dp1365
sg79
g682
sg72
(lp1366
g65
(g86
g67
NtRp1367
(dp1368
g70
(dp1369
g90
g91
ssg79
g1363
sg72
(lp1370
S'web2py_path'
p1371
asbag65
(g86
g67
NtRp1372
(dp1373
g70
(dp1374
g97
g98
ssg79
g1363
sg72
(lp1375
S':'
asbag65
(g86
g67
NtRp1376
(dp1377
g70
(dp1378
sg79
g1363
sg72
(lp1379
g65
(g66
g67
NtRp1380
(dp1381
g70
(dp1382
g78
I4
ssg79
g1376
sg72
(lp1383
g729
asbasbasbag65
(g81
g67
NtRp1384
(dp1385
g70
(dp1386
sg79
g682
sg72
(lp1387
g65
(g86
g67
NtRp1388
(dp1389
g70
(dp1390
g90
g91
ssg79
g1384
sg72
(lp1391
S'web2py_version'
p1392
asbag65
(g86
g67
NtRp1393
(dp1394
g70
(dp1395
g97
g98
ssg79
g1384
sg72
(lp1396
S':'
asbag65
(g86
g67
NtRp1397
(dp1398
g70
(dp1399
sg79
g1384
sg72
(lp1400
g65
(g66
g67
NtRp1401
(dp1402
g70
(dp1403
g78
I4
ssg79
g1397
sg72
(lp1404
g65
(g74
g67
NtRp1405
(dp1406
g70
(dp1407
g78
I3
ssg79
Nsg72
(lp1408
g65
(g81
g67
NtRp1409
(dp1410
g70
(dp1411
sg79
g1405
sg72
(lp1412
g65
(g86
g67
NtRp1413
(dp1414
g70
(dp1415
sg79
g1409
sg72
(lp1416
g65
(g66
g67
NtRp1417
(dp1418
g70
(dp1419
g78
I3
ssg79
g1413
sg72
(lp1420
S'2'
asbasbasbag65
(g81
g67
NtRp1421
(dp1422
g70
(dp1423
sg79
g1405
sg72
(lp1424
g65
(g86
g67
NtRp1425
(dp1426
g70
(dp1427
sg79
g1421
sg72
(lp1428
g65
(g66
g67
NtRp1429
(dp1430
g70
(dp1431
g78
I3
ssg79
g1425
sg72
(lp1432
S'0'
asbasbasbag65
(g81
g67
NtRp1433
(dp1434
g70
(dp1435
sg79
g1405
sg72
(lp1436
g65
(g86
g67
NtRp1437
(dp1438
g70
(dp1439
sg79
g1433
sg72
(lp1440
g65
(g66
g67
NtRp1441
(dp1442
g70
(dp1443
g78
I3
ssg79
g1437
sg72
(lp1444
S'9'
asbasbasbag65
(g81
g67
NtRp1445
(dp1446
g70
(dp1447
sg79
g1405
sg72
(lp1448
g65
(g86
g67
NtRp1449
(dp1450
g70
(dp1451
sg79
g1445
sg72
(lp1452
g65
(g66
g67
NtRp1453
(dp1454
g70
(dp1455
g78
I3
ssg79
g1449
sg72
(lp1456
S'datetime.datetime(2012, 9, 13, 23, 51, 30)'
p1457
asbasbasbag65
(g81
g67
NtRp1458
(dp1459
g70
(dp1460
sg79
g1405
sg72
(lp1461
g65
(g86
g67
NtRp1462
(dp1463
g70
(dp1464
sg79
g1458
sg72
(lp1465
g65
(g66
g67
NtRp1466
(dp1467
g70
(dp1468
g78
I3
ssg79
g1462
sg72
(lp1469
S'stable'
p1470
asbasbasbasbasbasbasbag65
(g81
g67
NtRp1471
(dp1472
g70
(dp1473
sg79
g682
sg72
(lp1474
g65
(g86
g67
NtRp1475
(dp1476
g70
(dp1477
g90
g91
ssg79
g1471
sg72
(lp1478
S'wsgi_errors'
p1479
asbag65
(g86
g67
NtRp1480
(dp1481
g70
(dp1482
g97
g98
ssg79
g1471
sg72
(lp1483
S':'
asbag65
(g86
g67
NtRp1484
(dp1485
g70
(dp1486
sg79
g1471
sg72
(lp1487
g65
(g66
g67
NtRp1488
(dp1489
g70
(dp1490
g78
I4
ssg79
g1484
sg72
(lp1491
S"<open file '<stderr>', mode 'w' at 0x0000000001DDE1E0>"
p1492
asbasbasbag65
(g81
g67
NtRp1493
(dp1494
g70
(dp1495
sg79
g682
sg72
(lp1496
g65
(g86
g67
NtRp1497
(dp1498
g70
(dp1499
g90
g91
ssg79
g1493
sg72
(lp1500
S'wsgi_file_wrapper'
p1501
asbag65
(g86
g67
NtRp1502
(dp1503
g70
(dp1504
g97
g98
ssg79
g1493
sg72
(lp1505
S':'
asbag65
(g86
g67
NtRp1506
(dp1507
g70
(dp1508
sg79
g1493
sg72
(lp1509
g65
(g66
g67
NtRp1510
(dp1511
g70
(dp1512
g78
I4
ssg79
g1506
sg72
(lp1513
S'<class wsgiref.util.FileWrapper at 0x00000000041E25E8>'
p1514
asbasbasbag65
(g81
g67
NtRp1515
(dp1516
g70
(dp1517
sg79
g682
sg72
(lp1518
g65
(g86
g67
NtRp1519
(dp1520
g70
(dp1521
g90
g91
ssg79
g1515
sg72
(lp1522
S'wsgi_input'
p1523
asbag65
(g86
g67
NtRp1524
(dp1525
g70
(dp1526
g97
g98
ssg79
g1515
sg72
(lp1527
S':'
asbag65
(g86
g67
NtRp1528
(dp1529
g70
(dp1530
sg79
g1515
sg72
(lp1531
g65
(g66
g67
NtRp1532
(dp1533
g70
(dp1534
g78
I4
ssg79
g1528
sg72
(lp1535
S'<socket._fileobject object at 0x0000000004408048>'
p1536
asbasbasbag65
(g81
g67
NtRp1537
(dp1538
g70
(dp1539
sg79
g682
sg72
(lp1540
g65
(g86
g67
NtRp1541
(dp1542
g70
(dp1543
g90
g91
ssg79
g1537
sg72
(lp1544
S'wsgi_multiprocess'
p1545
asbag65
(g86
g67
NtRp1546
(dp1547
g70
(dp1548
g97
g98
ssg79
g1537
sg72
(lp1549
S':'
asbag65
(g86
g67
NtRp1550
(dp1551
g70
(dp1552
sg79
g1537
sg72
(lp1553
g65
(g66
g67
NtRp1554
(dp1555
g70
(dp1556
g78
I4
ssg79
g1550
sg72
(lp1557
g108
asbasbasbag65
(g81
g67
NtRp1558
(dp1559
g70
(dp1560
sg79
g682
sg72
(lp1561
g65
(g86
g67
NtRp1562
(dp1563
g70
(dp1564
g90
g91
ssg79
g1558
sg72
(lp1565
S'wsgi_multithread'
p1566
asbag65
(g86
g67
NtRp1567
(dp1568
g70
(dp1569
g97
g98
ssg79
g1558
sg72
(lp1570
S':'
asbag65
(g86
g67
NtRp1571
(dp1572
g70
(dp1573
sg79
g1558
sg72
(lp1574
g65
(g66
g67
NtRp1575
(dp1576
g70
(dp1577
g78
I4
ssg79
g1571
sg72
(lp1578
S'True'
p1579
asbasbasbag65
(g81
g67
NtRp1580
(dp1581
g70
(dp1582
sg79
g682
sg72
(lp1583
g65
(g86
g67
NtRp1584
(dp1585
g70
(dp1586
g90
g91
ssg79
g1580
sg72
(lp1587
S'wsgi_run_once'
p1588
asbag65
(g86
g67
NtRp1589
(dp1590
g70
(dp1591
g97
g98
ssg79
g1580
sg72
(lp1592
S':'
asbag65
(g86
g67
NtRp1593
(dp1594
g70
(dp1595
sg79
g1580
sg72
(lp1596
g65
(g66
g67
NtRp1597
(dp1598
g70
(dp1599
g78
I4
ssg79
g1593
sg72
(lp1600
g108
asbasbasbag65
(g81
g67
NtRp1601
(dp1602
g70
(dp1603
sg79
g682
sg72
(lp1604
g65
(g86
g67
NtRp1605
(dp1606
g70
(dp1607
g90
g91
ssg79
g1601
sg72
(lp1608
S'wsgi_url_scheme'
p1609
asbag65
(g86
g67
NtRp1610
(dp1611
g70
(dp1612
g97
g98
ssg79
g1601
sg72
(lp1613
S':'
asbag65
(g86
g67
NtRp1614
(dp1615
g70
(dp1616
sg79
g1601
sg72
(lp1617
g65
(g66
g67
NtRp1618
(dp1619
g70
(dp1620
g78
I4
ssg79
g1614
sg72
(lp1621
S'http'
p1622
asbasbasbag65
(g81
g67
NtRp1623
(dp1624
g70
(dp1625
sg79
g682
sg72
(lp1626
g65
(g86
g67
NtRp1627
(dp1628
g70
(dp1629
g90
g91
ssg79
g1623
sg72
(lp1630
S'wsgi_version'
p1631
asbag65
(g86
g67
NtRp1632
(dp1633
g70
(dp1634
g97
g98
ssg79
g1623
sg72
(lp1635
S':'
asbag65
(g86
g67
NtRp1636
(dp1637
g70
(dp1638
sg79
g1623
sg72
(lp1639
g65
(g66
g67
NtRp1640
(dp1641
g70
(dp1642
g78
I4
ssg79
g1636
sg72
(lp1643
g65
(g74
g67
NtRp1644
(dp1645
g70
(dp1646
g78
I3
ssg79
Nsg72
(lp1647
g65
(g81
g67
NtRp1648
(dp1649
g70
(dp1650
sg79
g1644
sg72
(lp1651
g65
(g86
g67
NtRp1652
(dp1653
g70
(dp1654
sg79
g1648
sg72
(lp1655
g65
(g66
g67
NtRp1656
(dp1657
g70
(dp1658
g78
I3
ssg79
g1652
sg72
(lp1659
S'1'
asbasbasbag65
(g81
g67
NtRp1660
(dp1661
g70
(dp1662
sg79
g1644
sg72
(lp1663
g65
(g86
g67
NtRp1664
(dp1665
g70
(dp1666
sg79
g1660
sg72
(lp1667
g65
(g66
g67
NtRp1668
(dp1669
g70
(dp1670
g78
I3
ssg79
g1664
sg72
(lp1671
S'0'
asbasbasbasbasbasbasbasbasbasbasbag65
(g81
g67
NtRp1672
(dp1673
g70
(dp1674
sg79
g75
sg72
(lp1675
g65
(g86
g67
NtRp1676
(dp1677
g70
(dp1678
g90
g91
ssg79
g1672
sg72
(lp1679
S'extension'
p1680
asbag65
(g86
g67
NtRp1681
(dp1682
g70
(dp1683
g97
g98
ssg79
g1672
sg72
(lp1684
S':'
asbag65
(g86
g67
NtRp1685
(dp1686
g70
(dp1687
sg79
g1672
sg72
(lp1688
g65
(g66
g67
NtRp1689
(dp1690
g70
(dp1691
g78
I5
ssg79
g1685
sg72
(lp1692
S'html'
p1693
asbasbasbag65
(g81
g67
NtRp1694
(dp1695
g70
(dp1696
sg79
g75
sg72
(lp1697
g65
(g86
g67
NtRp1698
(dp1699
g70
(dp1700
g90
g91
ssg79
g1694
sg72
(lp1701
S'folder'
p1702
asbag65
(g86
g67
NtRp1703
(dp1704
g70
(dp1705
g97
g98
ssg79
g1694
sg72
(lp1706
S':'
asbag65
(g86
g67
NtRp1707
(dp1708
g70
(dp1709
sg79
g1694
sg72
(lp1710
g65
(g66
g67
NtRp1711
(dp1712
g70
(dp1713
g78
I5
ssg79
g1707
sg72
(lp1714
S'C:\\Users\\admin\\Desktop\\Sathvik\\Tharuni.Org\\applications\\admin\\'
p1715
asbasbasbag65
(g81
g67
NtRp1716
(dp1717
g70
(dp1718
sg79
g75
sg72
(lp1719
g65
(g86
g67
NtRp1720
(dp1721
g70
(dp1722
g90
g91
ssg79
g1716
sg72
(lp1723
S'function'
p1724
asbag65
(g86
g67
NtRp1725
(dp1726
g70
(dp1727
g97
g98
ssg79
g1716
sg72
(lp1728
S':'
asbag65
(g86
g67
NtRp1729
(dp1730
g70
(dp1731
sg79
g1716
sg72
(lp1732
g65
(g66
g67
NtRp1733
(dp1734
g70
(dp1735
g78
I5
ssg79
g1729
sg72
(lp1736
S'cleanup'
p1737
asbasbasbag65
(g81
g67
NtRp1738
(dp1739
g70
(dp1740
sg79
g75
sg72
(lp1741
g65
(g86
g67
NtRp1742
(dp1743
g70
(dp1744
g90
g91
ssg79
g1738
sg72
(lp1745
S'get_vars'
p1746
asbag65
(g86
g67
NtRp1747
(dp1748
g70
(dp1749
g97
g98
ssg79
g1738
sg72
(lp1750
S':'
asbag65
(g86
g67
NtRp1751
(dp1752
g70
(dp1753
sg79
g1738
sg72
(lp1754
g65
(g66
g67
NtRp1755
(dp1756
g70
(dp1757
g78
I5
ssg79
g1751
sg72
(lp1758
g65
(g74
g67
NtRp1759
(dp1760
g70
(dp1761
g78
I4
ssg79
Nsg72
(lp1762
sbasbasbasbag65
(g81
g67
NtRp1763
(dp1764
g70
(dp1765
sg79
g75
sg72
(lp1766
g65
(g86
g67
NtRp1767
(dp1768
g70
(dp1769
g90
g91
ssg79
g1763
sg72
(lp1770
S'global_settings'
p1771
asbag65
(g86
g67
NtRp1772
(dp1773
g70
(dp1774
g97
g98
ssg79
g1763
sg72
(lp1775
S':'
asbag65
(g86
g67
NtRp1776
(dp1777
g70
(dp1778
sg79
g1763
sg72
(lp1779
g65
(g66
g67
NtRp1780
(dp1781
g70
(dp1782
g78
I5
ssg79
g1776
sg72
(lp1783
g65
(g74
g67
NtRp1784
(dp1785
g70
(dp1786
g78
I4
ssg79
Nsg72
(lp1787
g65
(g81
g67
NtRp1788
(dp1789
g70
(dp1790
sg79
g1784
sg72
(lp1791
g65
(g86
g67
NtRp1792
(dp1793
g70
(dp1794
g90
g91
ssg79
g1788
sg72
(lp1795
g694
asbag65
(g86
g67
NtRp1796
(dp1797
g70
(dp1798
g97
g98
ssg79
g1788
sg72
(lp1799
S':'
asbag65
(g86
g67
NtRp1800
(dp1801
g70
(dp1802
sg79
g1788
sg72
(lp1803
g65
(g66
g67
NtRp1804
(dp1805
g70
(dp1806
g78
I4
ssg79
g1800
sg72
(lp1807
S"set(['C:\\\\Users\\\\admin\\\\Desktop\\\\Sathvik\\\\Tharuni.Org\\\\applications\\\\init\\\\', 'C:\\\\Users\\\\admin\\\\Desktop\\\\Sathvik\\\\Tharuni.Org\\\\applications\\\\admin\\\\'])"
p1808
asbasbasbag65
(g81
g67
NtRp1809
(dp1810
g70
(dp1811
sg79
g1784
sg72
(lp1812
g65
(g86
g67
NtRp1813
(dp1814
g70
(dp1815
g90
g91
ssg79
g1809
sg72
(lp1816
g716
asbag65
(g86
g67
NtRp1817
(dp1818
g70
(dp1819
g97
g98
ssg79
g1809
sg72
(lp1820
S':'
asbag65
(g86
g67
NtRp1821
(dp1822
g70
(dp1823
sg79
g1809
sg72
(lp1824
g65
(g66
g67
NtRp1825
(dp1826
g70
(dp1827
g78
I4
ssg79
g1821
sg72
(lp1828
g729
asbasbasbag65
(g81
g67
NtRp1829
(dp1830
g70
(dp1831
sg79
g1784
sg72
(lp1832
g65
(g86
g67
NtRp1833
(dp1834
g70
(dp1835
g90
g91
ssg79
g1829
sg72
(lp1836
g738
asbag65
(g86
g67
NtRp1837
(dp1838
g70
(dp1839
g97
g98
ssg79
g1829
sg72
(lp1840
S':'
asbag65
(g86
g67
NtRp1841
(dp1842
g70
(dp1843
sg79
g1829
sg72
(lp1844
g65
(g66
g67
NtRp1845
(dp1846
g70
(dp1847
g78
I4
ssg79
g1841
sg72
(lp1848
g65
(g74
g67
NtRp1849
(dp1850
g70
(dp1851
g78
I3
ssg79
Nsg72
(lp1852
sbasbasbasbag65
(g81
g67
NtRp1853
(dp1854
g70
(dp1855
sg79
g1784
sg72
(lp1856
g65
(g86
g67
NtRp1857
(dp1858
g70
(dp1859
g90
g91
ssg79
g1853
sg72
(lp1860
g763
asbag65
(g86
g67
NtRp1861
(dp1862
g70
(dp1863
g97
g98
ssg79
g1853
sg72
(lp1864
S':'
asbag65
(g86
g67
NtRp1865
(dp1866
g70
(dp1867
sg79
g1853
sg72
(lp1868
g65
(g66
g67
NtRp1869
(dp1870
g70
(dp1871
g78
I4
ssg79
g1865
sg72
(lp1872
S"<Values at 0x36b4188: {'verbose': False, 'ip': '127.0.0.1', 'with_scheduler': False, 'ips': ['10.8.4.49', '192.168.1.132', '192.168.56.1', '192.168.166.1', '169.254.251.64'], 'shutdown_timeout': 5, 'taskbar': False, 'port': 8000, 'maxthreads': None, 'softcron': False, 'server_name': 'LP-US-002', 'bpython': False, 'nogui': False, 'nocron': False, 'extcron': False, 'run_system_tests': False, 'test': None, 'folder': 'C:\\\\Users\\\\admin\\\\Desktop\\\\Sathvik\\\\Tharuni.Org', 'config': '', 'import_models': False, 'winservice': '', 'shell': None, 'run': '', 'log_filename': 'httpserver.log', 'debuglevel': 30, 'args': [''], 'socket_timeout': 5, 'ssl_ca_certificate': None, 'scheduler': None, 'profiler_filename': None, 'ssl_private_key': '', 'scheduler_groups': None, 'password': '<ask>', 'request_queue_size': 5, 'ssl_certificate': '', 'cronjob': False, 'numthreads': None, 'quiet': False, 'interfaces': None, 'minthreads': None, 'timeout': 10, 'plain': False, 'nobanner': False, 'pid_filename': 'httpserver.pid'}>"
p1873
asbasbasbag65
(g81
g67
NtRp1874
(dp1875
g70
(dp1876
sg79
g1784
sg72
(lp1877
g65
(g86
g67
NtRp1878
(dp1879
g70
(dp1880
g90
g91
ssg79
g1874
sg72
(lp1881
g785
asbag65
(g86
g67
NtRp1882
(dp1883
g70
(dp1884
g97
g98
ssg79
g1874
sg72
(lp1885
S':'
asbag65
(g86
g67
NtRp1886
(dp1887
g70
(dp1888
sg79
g1874
sg72
(lp1889
g65
(g66
g67
NtRp1890
(dp1891
g70
(dp1892
g78
I4
ssg79
g1886
sg72
(lp1893
S'set([])'
p1894
asbasbasbag65
(g81
g67
NtRp1895
(dp1896
g70
(dp1897
sg79
g1784
sg72
(lp1898
g65
(g86
g67
NtRp1899
(dp1900
g70
(dp1901
g90
g91
ssg79
g1895
sg72
(lp1902
g807
asbag65
(g86
g67
NtRp1903
(dp1904
g70
(dp1905
g97
g98
ssg79
g1895
sg72
(lp1906
S':'
asbag65
(g86
g67
NtRp1907
(dp1908
g70
(dp1909
sg79
g1895
sg72
(lp1910
g65
(g66
g67
NtRp1911
(dp1912
g70
(dp1913
g78
I4
ssg79
g1907
sg72
(lp1914
g108
asbasbasbag65
(g81
g67
NtRp1915
(dp1916
g70
(dp1917
sg79
g1784
sg72
(lp1918
g65
(g86
g67
NtRp1919
(dp1920
g70
(dp1921
g90
g91
ssg79
g1915
sg72
(lp1922
g828
asbag65
(g86
g67
NtRp1923
(dp1924
g70
(dp1925
g97
g98
ssg79
g1915
sg72
(lp1926
S':'
asbag65
(g86
g67
NtRp1927
(dp1928
g70
(dp1929
sg79
g1915
sg72
(lp1930
g65
(g66
g67
NtRp1931
(dp1932
g70
(dp1933
g78
I4
ssg79
g1927
sg72
(lp1934
g841
asbasbasbag65
(g81
g67
NtRp1935
(dp1936
g70
(dp1937
sg79
g1784
sg72
(lp1938
g65
(g86
g67
NtRp1939
(dp1940
g70
(dp1941
g90
g91
ssg79
g1935
sg72
(lp1942
g1048
asbag65
(g86
g67
NtRp1943
(dp1944
g70
(dp1945
g97
g98
ssg79
g1935
sg72
(lp1946
S':'
asbag65
(g86
g67
NtRp1947
(dp1948
g70
(dp1949
sg79
g1935
sg72
(lp1950
g65
(g66
g67
NtRp1951
(dp1952
g70
(dp1953
g78
I4
ssg79
g1947
sg72
(lp1954
g108
asbasbasbag65
(g81
g67
NtRp1955
(dp1956
g70
(dp1957
sg79
g1784
sg72
(lp1958
g65
(g86
g67
NtRp1959
(dp1960
g70
(dp1961
g90
g91
ssg79
g1955
sg72
(lp1962
g1069
asbag65
(g86
g67
NtRp1963
(dp1964
g70
(dp1965
g97
g98
ssg79
g1955
sg72
(lp1966
S':'
asbag65
(g86
g67
NtRp1967
(dp1968
g70
(dp1969
sg79
g1955
sg72
(lp1970
g65
(g66
g67
NtRp1971
(dp1972
g70
(dp1973
g78
I4
ssg79
g1967
sg72
(lp1974
g108
asbasbasbag65
(g81
g67
NtRp1975
(dp1976
g70
(dp1977
sg79
g1784
sg72
(lp1978
g65
(g86
g67
NtRp1979
(dp1980
g70
(dp1981
g90
g91
ssg79
g1975
sg72
(lp1982
g1328
asbag65
(g86
g67
NtRp1983
(dp1984
g70
(dp1985
g97
g98
ssg79
g1975
sg72
(lp1986
S':'
asbag65
(g86
g67
NtRp1987
(dp1988
g70
(dp1989
sg79
g1975
sg72
(lp1990
g65
(g66
g67
NtRp1991
(dp1992
g70
(dp1993
g78
I4
ssg79
g1987
sg72
(lp1994
g1341
asbasbasbag65
(g81
g67
NtRp1995
(dp1996
g70
(dp1997
sg79
g1784
sg72
(lp1998
g65
(g86
g67
NtRp1999
(dp2000
g70
(dp2001
g90
g91
ssg79
g1995
sg72
(lp2002
g1392
asbag65
(g86
g67
NtRp2003
(dp2004
g70
(dp2005
g97
g98
ssg79
g1995
sg72
(lp2006
S':'
asbag65
(g86
g67
NtRp2007
(dp2008
g70
(dp2009
sg79
g1995
sg72
(lp2010
g65
(g66
g67
NtRp2011
(dp2012
g70
(dp2013
g78
I4
ssg79
g2007
sg72
(lp2014
g65
(g74
g67
NtRp2015
(dp2016
g70
(dp2017
g78
I3
ssg79
Nsg72
(lp2018
g65
(g81
g67
NtRp2019
(dp2020
g70
(dp2021
sg79
g2015
sg72
(lp2022
g65
(g86
g67
NtRp2023
(dp2024
g70
(dp2025
sg79
g2019
sg72
(lp2026
g65
(g66
g67
NtRp2027
(dp2028
g70
(dp2029
g78
I3
ssg79
g2023
sg72
(lp2030
S'2'
asbasbasbag65
(g81
g67
NtRp2031
(dp2032
g70
(dp2033
sg79
g2015
sg72
(lp2034
g65
(g86
g67
NtRp2035
(dp2036
g70
(dp2037
sg79
g2031
sg72
(lp2038
g65
(g66
g67
NtRp2039
(dp2040
g70
(dp2041
g78
I3
ssg79
g2035
sg72
(lp2042
S'0'
asbasbasbag65
(g81
g67
NtRp2043
(dp2044
g70
(dp2045
sg79
g2015
sg72
(lp2046
g65
(g86
g67
NtRp2047
(dp2048
g70
(dp2049
sg79
g2043
sg72
(lp2050
g65
(g66
g67
NtRp2051
(dp2052
g70
(dp2053
g78
I3
ssg79
g2047
sg72
(lp2054
S'9'
asbasbasbag65
(g81
g67
NtRp2055
(dp2056
g70
(dp2057
sg79
g2015
sg72
(lp2058
g65
(g86
g67
NtRp2059
(dp2060
g70
(dp2061
sg79
g2055
sg72
(lp2062
g65
(g66
g67
NtRp2063
(dp2064
g70
(dp2065
g78
I3
ssg79
g2059
sg72
(lp2066
S'datetime.datetime(2012, 9, 13, 23, 51, 30)'
p2067
asbasbasbag65
(g81
g67
NtRp2068
(dp2069
g70
(dp2070
sg79
g2015
sg72
(lp2071
g65
(g86
g67
NtRp2072
(dp2073
g70
(dp2074
sg79
g2068
sg72
(lp2075
g65
(g66
g67
NtRp2076
(dp2077
g70
(dp2078
g78
I3
ssg79
g2072
sg72
(lp2079
g1470
asbasbasbasbasbasbasbasbasbasbasbag65
(g81
g67
NtRp2080
(dp2081
g70
(dp2082
sg79
g75
sg72
(lp2083
g65
(g86
g67
NtRp2084
(dp2085
g70
(dp2086
g90
g91
ssg79
g2080
sg72
(lp2087
S'is_https'
p2088
asbag65
(g86
g67
NtRp2089
(dp2090
g70
(dp2091
g97
g98
ssg79
g2080
sg72
(lp2092
S':'
asbag65
(g86
g67
NtRp2093
(dp2094
g70
(dp2095
sg79
g2080
sg72
(lp2096
g65
(g66
g67
NtRp2097
(dp2098
g70
(dp2099
g78
I5
ssg79
g2093
sg72
(lp2100
g108
asbasbasbag65
(g81
g67
NtRp2101
(dp2102
g70
(dp2103
sg79
g75
sg72
(lp2104
g65
(g86
g67
NtRp2105
(dp2106
g70
(dp2107
g90
g91
ssg79
g2101
sg72
(lp2108
S'is_local'
p2109
asbag65
(g86
g67
NtRp2110
(dp2111
g70
(dp2112
g97
g98
ssg79
g2101
sg72
(lp2113
S':'
asbag65
(g86
g67
NtRp2114
(dp2115
g70
(dp2116
sg79
g2101
sg72
(lp2117
g65
(g66
g67
NtRp2118
(dp2119
g70
(dp2120
g78
I5
ssg79
g2114
sg72
(lp2121
g1579
asbasbasbag65
(g81
g67
NtRp2122
(dp2123
g70
(dp2124
sg79
g75
sg72
(lp2125
g65
(g86
g67
NtRp2126
(dp2127
g70
(dp2128
g90
g91
ssg79
g2122
sg72
(lp2129
S'is_restful'
p2130
asbag65
(g86
g67
NtRp2131
(dp2132
g70
(dp2133
g97
g98
ssg79
g2122
sg72
(lp2134
S':'
asbag65
(g86
g67
NtRp2135
(dp2136
g70
(dp2137
sg79
g2122
sg72
(lp2138
g65
(g66
g67
NtRp2139
(dp2140
g70
(dp2141
g78
I5
ssg79
g2135
sg72
(lp2142
g108
asbasbasbag65
(g81
g67
NtRp2143
(dp2144
g70
(dp2145
sg79
g75
sg72
(lp2146
g65
(g86
g67
NtRp2147
(dp2148
g70
(dp2149
g90
g91
ssg79
g2143
sg72
(lp2150
S'now'
p2151
asbag65
(g86
g67
NtRp2152
(dp2153
g70
(dp2154
g97
g98
ssg79
g2143
sg72
(lp2155
S':'
asbag65
(g86
g67
NtRp2156
(dp2157
g70
(dp2158
sg79
g2143
sg72
(lp2159
g65
(g66
g67
NtRp2160
(dp2161
g70
(dp2162
g78
I5
ssg79
g2156
sg72
(lp2163
S'datetime.datetime(2012, 10, 14, 15, 35, 27, 692000)'
p2164
asbasbasbag65
(g81
g67
NtRp2165
(dp2166
g70
(dp2167
sg79
g75
sg72
(lp2168
g65
(g86
g67
NtRp2169
(dp2170
g70
(dp2171
g90
g91
ssg79
g2165
sg72
(lp2172
S'post_vars'
p2173
asbag65
(g86
g67
NtRp2174
(dp2175
g70
(dp2176
g97
g98
ssg79
g2165
sg72
(lp2177
S':'
asbag65
(g86
g67
NtRp2178
(dp2179
g70
(dp2180
sg79
g2165
sg72
(lp2181
g65
(g66
g67
NtRp2182
(dp2183
g70
(dp2184
g78
I5
ssg79
g2178
sg72
(lp2185
g65
(g74
g67
NtRp2186
(dp2187
g70
(dp2188
g78
I4
ssg79
Nsg72
(lp2189
sbasbasbasbag65
(g81
g67
NtRp2190
(dp2191
g70
(dp2192
sg79
g75
sg72
(lp2193
g65
(g86
g67
NtRp2194
(dp2195
g70
(dp2196
g90
g91
ssg79
g2190
sg72
(lp2197
S'raw_args'
p2198
asbag65
(g86
g67
NtRp2199
(dp2200
g70
(dp2201
g97
g98
ssg79
g2190
sg72
(lp2202
S':'
asbag65
(g86
g67
NtRp2203
(dp2204
g70
(dp2205
sg79
g2190
sg72
(lp2206
g65
(g66
g67
NtRp2207
(dp2208
g70
(dp2209
g78
I5
ssg79
g2203
sg72
(lp2210
g167
asbasbasbag65
(g81
g67
NtRp2211
(dp2212
g70
(dp2213
sg79
g75
sg72
(lp2214
g65
(g86
g67
NtRp2215
(dp2216
g70
(dp2217
g90
g91
ssg79
g2211
sg72
(lp2218
S'raw_extension'
p2219
asbag65
(g86
g67
NtRp2220
(dp2221
g70
(dp2222
g97
g98
ssg79
g2211
sg72
(lp2223
S':'
asbag65
(g86
g67
NtRp2224
(dp2225
g70
(dp2226
sg79
g2211
sg72
(lp2227
g65
(g66
g67
NtRp2228
(dp2229
g70
(dp2230
g78
I5
ssg79
g2224
sg72
(lp2231
S'None'
p2232
asbasbasbag65
(g81
g67
NtRp2233
(dp2234
g70
(dp2235
sg79
g75
sg72
(lp2236
g65
(g86
g67
NtRp2237
(dp2238
g70
(dp2239
g90
g91
ssg79
g2233
sg72
(lp2240
S'url'
p2241
asbag65
(g86
g67
NtRp2242
(dp2243
g70
(dp2244
g97
g98
ssg79
g2233
sg72
(lp2245
S':'
asbag65
(g86
g67
NtRp2246
(dp2247
g70
(dp2248
sg79
g2233
sg72
(lp2249
g65
(g66
g67
NtRp2250
(dp2251
g70
(dp2252
g78
I5
ssg79
g2246
sg72
(lp2253
g1103
asbasbasbag65
(g81
g67
NtRp2254
(dp2255
g70
(dp2256
sg79
g75
sg72
(lp2257
g65
(g86
g67
NtRp2258
(dp2259
g70
(dp2260
g90
g91
ssg79
g2254
sg72
(lp2261
S'utcnow'
p2262
asbag65
(g86
g67
NtRp2263
(dp2264
g70
(dp2265
g97
g98
ssg79
g2254
sg72
(lp2266
S':'
asbag65
(g86
g67
NtRp2267
(dp2268
g70
(dp2269
sg79
g2254
sg72
(lp2270
g65
(g66
g67
NtRp2271
(dp2272
g70
(dp2273
g78
I5
ssg79
g2267
sg72
(lp2274
S'datetime.datetime(2012, 10, 14, 10, 5, 27, 692000)'
p2275
asbasbasbag65
(g81
g67
NtRp2276
(dp2277
g70
(dp2278
sg79
g75
sg72
(lp2279
g65
(g86
g67
NtRp2280
(dp2281
g70
(dp2282
g90
g91
ssg79
g2276
sg72
(lp2283
S'uuid'
p2284
asbag65
(g86
g67
NtRp2285
(dp2286
g70
(dp2287
g97
g98
ssg79
g2276
sg72
(lp2288
S':'
asbag65
(g86
g67
NtRp2289
(dp2290
g70
(dp2291
sg79
g2276
sg72
(lp2292
g65
(g66
g67
NtRp2293
(dp2294
g70
(dp2295
g78
I5
ssg79
g2289
sg72
(lp2296
S'admin/127.0.0.1.2012-10-14.15-35-27.29adb3fe-a2e3-42f6-9023-0e81a4d9f269'
p2297
asbasbasbag65
(g81
g67
NtRp2298
(dp2299
g70
(dp2300
sg79
g75
sg72
(lp2301
g65
(g86
g67
NtRp2302
(dp2303
g70
(dp2304
g90
g91
ssg79
g2298
sg72
(lp2305
S'vars'
p2306
asbag65
(g86
g67
NtRp2307
(dp2308
g70
(dp2309
g97
g98
ssg79
g2298
sg72
(lp2310
S':'
asbag65
(g86
g67
NtRp2311
(dp2312
g70
(dp2313
sg79
g2298
sg72
(lp2314
g65
(g66
g67
NtRp2315
(dp2316
g70
(dp2317
g78
I5
ssg79
g2311
sg72
(lp2318
g65
(g74
g67
NtRp2319
(dp2320
g70
(dp2321
g78
I4
ssg79
Nsg72
(lp2322
sbasbasbasbag65
(g81
g67
NtRp2323
(dp2324
g70
(dp2325
sg79
g75
sg72
(lp2326
g65
(g86
g67
NtRp2327
(dp2328
g70
(dp2329
g90
g91
ssg79
g2323
sg72
(lp2330
S'wsgi'
p2331
asbag65
(g86
g67
NtRp2332
(dp2333
g70
(dp2334
g97
g98
ssg79
g2323
sg72
(lp2335
S':'
asbag65
(g86
g67
NtRp2336
(dp2337
g70
(dp2338
sg79
g2323
sg72
(lp2339
g65
(g66
g67
NtRp2340
(dp2341
g70
(dp2342
g78
I5
ssg79
g2336
sg72
(lp2343
g65
(g74
g67
NtRp2344
(dp2345
g70
(dp2346
g78
I4
ssg79
Nsg72
(lp2347
g65
(g81
g67
NtRp2348
(dp2349
g70
(dp2350
sg79
g2344
sg72
(lp2351
g65
(g86
g67
NtRp2352
(dp2353
g70
(dp2354
g90
g91
ssg79
g2348
sg72
(lp2355
S'environ'
p2356
asbag65
(g86
g67
NtRp2357
(dp2358
g70
(dp2359
g97
g98
ssg79
g2348
sg72
(lp2360
S':'
asbag65
(g86
g67
NtRp2361
(dp2362
g70
(dp2363
sg79
g2348
sg72
(lp2364
g65
(g66
g67
NtRp2365
(dp2366
g70
(dp2367
g78
I4
ssg79
g2361
sg72
(lp2368
g65
(g74
g67
NtRp2369
(dp2370
g70
(dp2371
g78
I3
ssg79
Nsg72
(lp2372
g65
(g81
g67
NtRp2373
(dp2374
g70
(dp2375
sg79
g2369
sg72
(lp2376
g65
(g86
g67
NtRp2377
(dp2378
g70
(dp2379
g90
g91
ssg79
g2373
sg72
(lp2380
S'HTTP_ACCEPT'
p2381
asbag65
(g86
g67
NtRp2382
(dp2383
g70
(dp2384
g97
g98
ssg79
g2373
sg72
(lp2385
S':'
asbag65
(g86
g67
NtRp2386
(dp2387
g70
(dp2388
sg79
g2373
sg72
(lp2389
g65
(g66
g67
NtRp2390
(dp2391
g70
(dp2392
g78
I3
ssg79
g2386
sg72
(lp2393
g863
asbasbasbag65
(g81
g67
NtRp2394
(dp2395
g70
(dp2396
sg79
g2369
sg72
(lp2397
g65
(g86
g67
NtRp2398
(dp2399
g70
(dp2400
g90
g91
ssg79
g2394
sg72
(lp2401
S'HTTP_ACCEPT_CHARSET'
p2402
asbag65
(g86
g67
NtRp2403
(dp2404
g70
(dp2405
g97
g98
ssg79
g2394
sg72
(lp2406
S':'
asbag65
(g86
g67
NtRp2407
(dp2408
g70
(dp2409
sg79
g2394
sg72
(lp2410
g65
(g66
g67
NtRp2411
(dp2412
g70
(dp2413
g78
I3
ssg79
g2407
sg72
(lp2414
g885
asbasbasbag65
(g81
g67
NtRp2415
(dp2416
g70
(dp2417
sg79
g2369
sg72
(lp2418
g65
(g86
g67
NtRp2419
(dp2420
g70
(dp2421
g90
g91
ssg79
g2415
sg72
(lp2422
S'HTTP_ACCEPT_ENCODING'
p2423
asbag65
(g86
g67
NtRp2424
(dp2425
g70
(dp2426
g97
g98
ssg79
g2415
sg72
(lp2427
S':'
asbag65
(g86
g67
NtRp2428
(dp2429
g70
(dp2430
sg79
g2415
sg72
(lp2431
g65
(g66
g67
NtRp2432
(dp2433
g70
(dp2434
g78
I3
ssg79
g2428
sg72
(lp2435
g907
asbasbasbag65
(g81
g67
NtRp2436
(dp2437
g70
(dp2438
sg79
g2369
sg72
(lp2439
g65
(g86
g67
NtRp2440
(dp2441
g70
(dp2442
g90
g91
ssg79
g2436
sg72
(lp2443
S'HTTP_ACCEPT_LANGUAGE'
p2444
asbag65
(g86
g67
NtRp2445
(dp2446
g70
(dp2447
g97
g98
ssg79
g2436
sg72
(lp2448
S':'
asbag65
(g86
g67
NtRp2449
(dp2450
g70
(dp2451
sg79
g2436
sg72
(lp2452
g65
(g66
g67
NtRp2453
(dp2454
g70
(dp2455
g78
I3
ssg79
g2449
sg72
(lp2456
g929
asbasbasbag65
(g81
g67
NtRp2457
(dp2458
g70
(dp2459
sg79
g2369
sg72
(lp2460
g65
(g86
g67
NtRp2461
(dp2462
g70
(dp2463
g90
g91
ssg79
g2457
sg72
(lp2464
S'HTTP_CONNECTION'
p2465
asbag65
(g86
g67
NtRp2466
(dp2467
g70
(dp2468
g97
g98
ssg79
g2457
sg72
(lp2469
S':'
asbag65
(g86
g67
NtRp2470
(dp2471
g70
(dp2472
sg79
g2457
sg72
(lp2473
g65
(g66
g67
NtRp2474
(dp2475
g70
(dp2476
g78
I3
ssg79
g2470
sg72
(lp2477
g951
asbasbasbag65
(g81
g67
NtRp2478
(dp2479
g70
(dp2480
sg79
g2369
sg72
(lp2481
g65
(g86
g67
NtRp2482
(dp2483
g70
(dp2484
g90
g91
ssg79
g2478
sg72
(lp2485
S'HTTP_COOKIE'
p2486
asbag65
(g86
g67
NtRp2487
(dp2488
g70
(dp2489
g97
g98
ssg79
g2478
sg72
(lp2490
S':'
asbag65
(g86
g67
NtRp2491
(dp2492
g70
(dp2493
sg79
g2478
sg72
(lp2494
g65
(g66
g67
NtRp2495
(dp2496
g70
(dp2497
g78
I3
ssg79
g2491
sg72
(lp2498
g973
asbasbasbag65
(g81
g67
NtRp2499
(dp2500
g70
(dp2501
sg79
g2369
sg72
(lp2502
g65
(g86
g67
NtRp2503
(dp2504
g70
(dp2505
g90
g91
ssg79
g2499
sg72
(lp2506
S'HTTP_HOST'
p2507
asbag65
(g86
g67
NtRp2508
(dp2509
g70
(dp2510
g97
g98
ssg79
g2499
sg72
(lp2511
S':'
asbag65
(g86
g67
NtRp2512
(dp2513
g70
(dp2514
sg79
g2499
sg72
(lp2515
g65
(g66
g67
NtRp2516
(dp2517
g70
(dp2518
g78
I3
ssg79
g2512
sg72
(lp2519
g995
asbasbasbag65
(g81
g67
NtRp2520
(dp2521
g70
(dp2522
sg79
g2369
sg72
(lp2523
g65
(g86
g67
NtRp2524
(dp2525
g70
(dp2526
g90
g91
ssg79
g2520
sg72
(lp2527
S'HTTP_REFERER'
p2528
asbag65
(g86
g67
NtRp2529
(dp2530
g70
(dp2531
g97
g98
ssg79
g2520
sg72
(lp2532
S':'
asbag65
(g86
g67
NtRp2533
(dp2534
g70
(dp2535
sg79
g2520
sg72
(lp2536
g65
(g66
g67
NtRp2537
(dp2538
g70
(dp2539
g78
I3
ssg79
g2533
sg72
(lp2540
g1017
asbasbasbag65
(g81
g67
NtRp2541
(dp2542
g70
(dp2543
sg79
g2369
sg72
(lp2544
g65
(g86
g67
NtRp2545
(dp2546
g70
(dp2547
g90
g91
ssg79
g2541
sg72
(lp2548
S'HTTP_USER_AGENT'
p2549
asbag65
(g86
g67
NtRp2550
(dp2551
g70
(dp2552
g97
g98
ssg79
g2541
sg72
(lp2553
S':'
asbag65
(g86
g67
NtRp2554
(dp2555
g70
(dp2556
sg79
g2541
sg72
(lp2557
g65
(g66
g67
NtRp2558
(dp2559
g70
(dp2560
g78
I3
ssg79
g2554
sg72
(lp2561
g1039
asbasbasbag65
(g81
g67
NtRp2562
(dp2563
g70
(dp2564
sg79
g2369
sg72
(lp2565
g65
(g86
g67
NtRp2566
(dp2567
g70
(dp2568
g90
g91
ssg79
g2562
sg72
(lp2569
S'PATH_INFO'
p2570
asbag65
(g86
g67
NtRp2571
(dp2572
g70
(dp2573
g97
g98
ssg79
g2562
sg72
(lp2574
S':'
asbag65
(g86
g67
NtRp2575
(dp2576
g70
(dp2577
sg79
g2562
sg72
(lp2578
g65
(g66
g67
NtRp2579
(dp2580
g70
(dp2581
g78
I3
ssg79
g2575
sg72
(lp2582
g1103
asbasbasbag65
(g81
g67
NtRp2583
(dp2584
g70
(dp2585
sg79
g2369
sg72
(lp2586
g65
(g86
g67
NtRp2587
(dp2588
g70
(dp2589
g90
g91
ssg79
g2583
sg72
(lp2590
S'QUERY_STRING'
p2591
asbag65
(g86
g67
NtRp2592
(dp2593
g70
(dp2594
g97
g98
ssg79
g2583
sg72
(lp2595
S':'
asbag65
(g86
g67
NtRp2596
(dp2597
g70
(dp2598
sg79
g2583
sg72
(lp2599
g65
(g66
g67
NtRp2600
(dp2601
g70
(dp2602
g78
I3
ssg79
g2596
sg72
(lp2603
S''
asbasbasbag65
(g81
g67
NtRp2604
(dp2605
g70
(dp2606
sg79
g2369
sg72
(lp2607
g65
(g86
g67
NtRp2608
(dp2609
g70
(dp2610
g90
g91
ssg79
g2604
sg72
(lp2611
S'REMOTE_ADDR'
p2612
asbag65
(g86
g67
NtRp2613
(dp2614
g70
(dp2615
g97
g98
ssg79
g2604
sg72
(lp2616
S':'
asbag65
(g86
g67
NtRp2617
(dp2618
g70
(dp2619
sg79
g2604
sg72
(lp2620
g65
(g66
g67
NtRp2621
(dp2622
g70
(dp2623
g78
I3
ssg79
g2617
sg72
(lp2624
g233
asbasbasbag65
(g81
g67
NtRp2625
(dp2626
g70
(dp2627
sg79
g2369
sg72
(lp2628
g65
(g86
g67
NtRp2629
(dp2630
g70
(dp2631
g90
g91
ssg79
g2625
sg72
(lp2632
S'REMOTE_PORT'
p2633
asbag65
(g86
g67
NtRp2634
(dp2635
g70
(dp2636
g97
g98
ssg79
g2625
sg72
(lp2637
S':'
asbag65
(g86
g67
NtRp2638
(dp2639
g70
(dp2640
sg79
g2625
sg72
(lp2641
g65
(g66
g67
NtRp2642
(dp2643
g70
(dp2644
g78
I3
ssg79
g2638
sg72
(lp2645
g1167
asbasbasbag65
(g81
g67
NtRp2646
(dp2647
g70
(dp2648
sg79
g2369
sg72
(lp2649
g65
(g86
g67
NtRp2650
(dp2651
g70
(dp2652
g90
g91
ssg79
g2646
sg72
(lp2653
S'REQUEST_METHOD'
p2654
asbag65
(g86
g67
NtRp2655
(dp2656
g70
(dp2657
g97
g98
ssg79
g2646
sg72
(lp2658
S':'
asbag65
(g86
g67
NtRp2659
(dp2660
g70
(dp2661
sg79
g2646
sg72
(lp2662
g65
(g66
g67
NtRp2663
(dp2664
g70
(dp2665
g78
I3
ssg79
g2659
sg72
(lp2666
g1189
asbasbasbag65
(g81
g67
NtRp2667
(dp2668
g70
(dp2669
sg79
g2369
sg72
(lp2670
g65
(g86
g67
NtRp2671
(dp2672
g70
(dp2673
g90
g91
ssg79
g2667
sg72
(lp2674
S'REQUEST_URI'
p2675
asbag65
(g86
g67
NtRp2676
(dp2677
g70
(dp2678
g97
g98
ssg79
g2667
sg72
(lp2679
S':'
asbag65
(g86
g67
NtRp2680
(dp2681
g70
(dp2682
sg79
g2667
sg72
(lp2683
g65
(g66
g67
NtRp2684
(dp2685
g70
(dp2686
g78
I3
ssg79
g2680
sg72
(lp2687
g1103
asbasbasbag65
(g81
g67
NtRp2688
(dp2689
g70
(dp2690
sg79
g2369
sg72
(lp2691
g65
(g86
g67
NtRp2692
(dp2693
g70
(dp2694
g90
g91
ssg79
g2688
sg72
(lp2695
S'SCRIPT_NAME'
p2696
asbag65
(g86
g67
NtRp2697
(dp2698
g70
(dp2699
g97
g98
ssg79
g2688
sg72
(lp2700
S':'
asbag65
(g86
g67
NtRp2701
(dp2702
g70
(dp2703
sg79
g2688
sg72
(lp2704
g65
(g66
g67
NtRp2705
(dp2706
g70
(dp2707
g78
I3
ssg79
g2701
sg72
(lp2708
S''
asbasbasbag65
(g81
g67
NtRp2709
(dp2710
g70
(dp2711
sg79
g2369
sg72
(lp2712
g65
(g86
g67
NtRp2713
(dp2714
g70
(dp2715
g90
g91
ssg79
g2709
sg72
(lp2716
S'SERVER_NAME'
p2717
asbag65
(g86
g67
NtRp2718
(dp2719
g70
(dp2720
g97
g98
ssg79
g2709
sg72
(lp2721
S':'
asbag65
(g86
g67
NtRp2722
(dp2723
g70
(dp2724
sg79
g2709
sg72
(lp2725
g65
(g66
g67
NtRp2726
(dp2727
g70
(dp2728
g78
I3
ssg79
g2722
sg72
(lp2729
g1253
asbasbasbag65
(g81
g67
NtRp2730
(dp2731
g70
(dp2732
sg79
g2369
sg72
(lp2733
g65
(g86
g67
NtRp2734
(dp2735
g70
(dp2736
g90
g91
ssg79
g2730
sg72
(lp2737
S'SERVER_PORT'
p2738
asbag65
(g86
g67
NtRp2739
(dp2740
g70
(dp2741
g97
g98
ssg79
g2730
sg72
(lp2742
S':'
asbag65
(g86
g67
NtRp2743
(dp2744
g70
(dp2745
sg79
g2730
sg72
(lp2746
g65
(g66
g67
NtRp2747
(dp2748
g70
(dp2749
g78
I3
ssg79
g2743
sg72
(lp2750
g1275
asbasbasbag65
(g81
g67
NtRp2751
(dp2752
g70
(dp2753
sg79
g2369
sg72
(lp2754
g65
(g86
g67
NtRp2755
(dp2756
g70
(dp2757
g90
g91
ssg79
g2751
sg72
(lp2758
S'SERVER_PROTOCOL'
p2759
asbag65
(g86
g67
NtRp2760
(dp2761
g70
(dp2762
g97
g98
ssg79
g2751
sg72
(lp2763
S':'
asbag65
(g86
g67
NtRp2764
(dp2765
g70
(dp2766
sg79
g2751
sg72
(lp2767
g65
(g66
g67
NtRp2768
(dp2769
g70
(dp2770
g78
I3
ssg79
g2764
sg72
(lp2771
g1297
asbasbasbag65
(g81
g67
NtRp2772
(dp2773
g70
(dp2774
sg79
g2369
sg72
(lp2775
g65
(g86
g67
NtRp2776
(dp2777
g70
(dp2778
g90
g91
ssg79
g2772
sg72
(lp2779
S'SERVER_SOFTWARE'
p2780
asbag65
(g86
g67
NtRp2781
(dp2782
g70
(dp2783
g97
g98
ssg79
g2772
sg72
(lp2784
S':'
asbag65
(g86
g67
NtRp2785
(dp2786
g70
(dp2787
sg79
g2772
sg72
(lp2788
g65
(g66
g67
NtRp2789
(dp2790
g70
(dp2791
g78
I3
ssg79
g2785
sg72
(lp2792
g1319
asbasbasbag65
(g81
g67
NtRp2793
(dp2794
g70
(dp2795
sg79
g2369
sg72
(lp2796
g65
(g86
g67
NtRp2797
(dp2798
g70
(dp2799
g90
g91
ssg79
g2793
sg72
(lp2800
S'WEB2PY_ORIGINAL_URI'
p2801
asbag65
(g86
g67
NtRp2802
(dp2803
g70
(dp2804
g97
g98
ssg79
g2793
sg72
(lp2805
S':'
asbag65
(g86
g67
NtRp2806
(dp2807
g70
(dp2808
sg79
g2793
sg72
(lp2809
g65
(g66
g67
NtRp2810
(dp2811
g70
(dp2812
g78
I3
ssg79
g2806
sg72
(lp2813
g1103
asbasbasbag65
(g81
g67
NtRp2814
(dp2815
g70
(dp2816
sg79
g2369
sg72
(lp2817
g65
(g86
g67
NtRp2818
(dp2819
g70
(dp2820
g90
g91
ssg79
g2814
sg72
(lp2821
S'wsgi.errors'
p2822
asbag65
(g86
g67
NtRp2823
(dp2824
g70
(dp2825
g97
g98
ssg79
g2814
sg72
(lp2826
S':'
asbag65
(g86
g67
NtRp2827
(dp2828
g70
(dp2829
sg79
g2814
sg72
(lp2830
g65
(g66
g67
NtRp2831
(dp2832
g70
(dp2833
g78
I3
ssg79
g2827
sg72
(lp2834
S"<open file '<stderr>', mode 'w' at 0x0000000001DDE1E0>"
p2835
asbasbasbag65
(g81
g67
NtRp2836
(dp2837
g70
(dp2838
sg79
g2369
sg72
(lp2839
g65
(g86
g67
NtRp2840
(dp2841
g70
(dp2842
g90
g91
ssg79
g2836
sg72
(lp2843
S'wsgi.file_wrapper'
p2844
asbag65
(g86
g67
NtRp2845
(dp2846
g70
(dp2847
g97
g98
ssg79
g2836
sg72
(lp2848
S':'
asbag65
(g86
g67
NtRp2849
(dp2850
g70
(dp2851
sg79
g2836
sg72
(lp2852
g65
(g66
g67
NtRp2853
(dp2854
g70
(dp2855
g78
I3
ssg79
g2849
sg72
(lp2856
S'<class wsgiref.util.FileWrapper at 0x00000000041E25E8>'
p2857
asbasbasbag65
(g81
g67
NtRp2858
(dp2859
g70
(dp2860
sg79
g2369
sg72
(lp2861
g65
(g86
g67
NtRp2862
(dp2863
g70
(dp2864
g90
g91
ssg79
g2858
sg72
(lp2865
S'wsgi.input'
p2866
asbag65
(g86
g67
NtRp2867
(dp2868
g70
(dp2869
g97
g98
ssg79
g2858
sg72
(lp2870
S':'
asbag65
(g86
g67
NtRp2871
(dp2872
g70
(dp2873
sg79
g2858
sg72
(lp2874
g65
(g66
g67
NtRp2875
(dp2876
g70
(dp2877
g78
I3
ssg79
g2871
sg72
(lp2878
S'<cStringIO.StringO object at 0x0000000003915C38>'
p2879
asbasbasbag65
(g81
g67
NtRp2880
(dp2881
g70
(dp2882
sg79
g2369
sg72
(lp2883
g65
(g86
g67
NtRp2884
(dp2885
g70
(dp2886
g90
g91
ssg79
g2880
sg72
(lp2887
S'wsgi.multiprocess'
p2888
asbag65
(g86
g67
NtRp2889
(dp2890
g70
(dp2891
g97
g98
ssg79
g2880
sg72
(lp2892
S':'
asbag65
(g86
g67
NtRp2893
(dp2894
g70
(dp2895
sg79
g2880
sg72
(lp2896
g65
(g66
g67
NtRp2897
(dp2898
g70
(dp2899
g78
I3
ssg79
g2893
sg72
(lp2900
g108
asbasbasbag65
(g81
g67
NtRp2901
(dp2902
g70
(dp2903
sg79
g2369
sg72
(lp2904
g65
(g86
g67
NtRp2905
(dp2906
g70
(dp2907
g90
g91
ssg79
g2901
sg72
(lp2908
S'wsgi.multithread'
p2909
asbag65
(g86
g67
NtRp2910
(dp2911
g70
(dp2912
g97
g98
ssg79
g2901
sg72
(lp2913
S':'
asbag65
(g86
g67
NtRp2914
(dp2915
g70
(dp2916
sg79
g2901
sg72
(lp2917
g65
(g66
g67
NtRp2918
(dp2919
g70
(dp2920
g78
I3
ssg79
g2914
sg72
(lp2921
g1579
asbasbasbag65
(g81
g67
NtRp2922
(dp2923
g70
(dp2924
sg79
g2369
sg72
(lp2925
g65
(g86
g67
NtRp2926
(dp2927
g70
(dp2928
g90
g91
ssg79
g2922
sg72
(lp2929
S'wsgi.run_once'
p2930
asbag65
(g86
g67
NtRp2931
(dp2932
g70
(dp2933
g97
g98
ssg79
g2922
sg72
(lp2934
S':'
asbag65
(g86
g67
NtRp2935
(dp2936
g70
(dp2937
sg79
g2922
sg72
(lp2938
g65
(g66
g67
NtRp2939
(dp2940
g70
(dp2941
g78
I3
ssg79
g2935
sg72
(lp2942
g108
asbasbasbag65
(g81
g67
NtRp2943
(dp2944
g70
(dp2945
sg79
g2369
sg72
(lp2946
g65
(g86
g67
NtRp2947
(dp2948
g70
(dp2949
g90
g91
ssg79
g2943
sg72
(lp2950
S'wsgi.url_scheme'
p2951
asbag65
(g86
g67
NtRp2952
(dp2953
g70
(dp2954
g97
g98
ssg79
g2943
sg72
(lp2955
S':'
asbag65
(g86
g67
NtRp2956
(dp2957
g70
(dp2958
sg79
g2943
sg72
(lp2959
g65
(g66
g67
NtRp2960
(dp2961
g70
(dp2962
g78
I3
ssg79
g2956
sg72
(lp2963
g1622
asbasbasbag65
(g81
g67
NtRp2964
(dp2965
g70
(dp2966
sg79
g2369
sg72
(lp2967
g65
(g86
g67
NtRp2968
(dp2969
g70
(dp2970
g90
g91
ssg79
g2964
sg72
(lp2971
S'wsgi.version'
p2972
asbag65
(g86
g67
NtRp2973
(dp2974
g70
(dp2975
g97
g98
ssg79
g2964
sg72
(lp2976
S':'
asbag65
(g86
g67
NtRp2977
(dp2978
g70
(dp2979
sg79
g2964
sg72
(lp2980
g65
(g66
g67
NtRp2981
(dp2982
g70
(dp2983
g78
I3
ssg79
g2977
sg72
(lp2984
S'1'
asbasbasbasbasbasbasbasbasbasbasbasbasbsS'frames'
p2985
(lp2986
(dp2987
S'file'
p2988
S'C:\\Users\\admin\\Desktop\\Sathvik\\Tharuni.Org\\gluon\\restricted.py'
p2989
sS'dump'
p2990
(dp2991
S'environment'
p2992
S"{'A': <class 'gluon.html.A'>, 'ALLOW_TOGGLE': 'true', 'A_button': <function A_button>, 'B': <class 'gluon.html.B'>, 'BEAUTIFY': <class 'gluon.html.BEAUTIFY'>, 'BODY': <class 'gluon.html.BODY'>, 'BR': <class 'gluon.html.BR'>, 'BUTTON': <class 'gluon.html.BUTTON'>, 'CAT': <class 'gluon.html.CAT'>, 'CENTER': <class 'gluon.html.CENTER'>, ...}"
p2993
sS'ccode'
p2994
S'<code object <module> at 000000000384D630, file ...plications\\admin\\controllers/default.py", line 3>'
p2995
ssS'lnum'
p2996
I209
sS'lines'
p2997
(dp2998
I204
S'    try:'
p2999
sI205
S'        if type(code) == types.CodeType:'
p3000
sI206
S'            ccode = code'
p3001
sI207
S'        else:'
p3002
sI208
S'            ccode = compile2(code,layer)'
p3003
sI209
S'        exec ccode in environment'
p3004
sI210
S'    except HTTP:'
p3005
sI211
S'        raise'
p3006
sI212
S'    except RestrictedError:'
p3007
sI213
S'        # do not encapsulate (obfuscate) the original RestrictedError'
p3008
ssS'call'
p3009
S"(code='# coding: utf8\\n\\nEXPERIMENTAL_STUFF = True\\n\\nif EX...form)\\n\\n\\nresponse._vars=response._caller(cleanup)\\n', environment={'A': <class 'gluon.html.A'>, 'ALLOW_TOGGLE': 'true', 'A_button': <function A_button>, 'B': <class 'gluon.html.B'>, 'BEAUTIFY': <class 'gluon.html.BEAUTIFY'>, 'BODY': <class 'gluon.html.BODY'>, 'BR': <class 'gluon.html.BR'>, 'BUTTON': <class 'gluon.html.BUTTON'>, 'CAT': <class 'gluon.html.CAT'>, 'CENTER': <class 'gluon.html.CENTER'>, ...}, layer=r'C:\\Users\\admin\\Desktop\\Sathvik\\Tharuni.Org\\applications\\admin\\controllers/default.py')"
p3010
sS'func'
p3011
S'restricted'
p3012
sa(dp3013
g2988
S'C:\\Users\\admin\\Desktop\\Sathvik\\Tharuni.Org\\applications\\admin\\controllers\\default.py'
p3014
sg2990
(dp3015
sg2996
I1702
sg2997
(dp3016
I1696
S'            logging.error("Unexpected error:", sys.exc_info()[0])'
p3017
sI1697
S'            session.flash = T("Push failed, git exited abnormally. See logs for details.")'
p3018
sI1698
S"            redirect(URL('site'))"
p3019
sI1699
S'    return dict(app=app,form=form)'
p3020
sI1700
S''
sI1691
S"            redirect(URL('site'))"
p3021
sI1692
S'        except UnmergedEntriesError:'
p3022
sI1693
S'            session.flash = T("Push failed, there are unmerged entries in the cache. Resolve merge issues manually and try again.")'
p3023
sI1694
S"            redirect(URL('site'))"
p3024
sI1695
S'        except Exception, e:'
p3025
ssg3009
S'()'
p3026
sg3011
S'<module>'
p3027
sa(dp3028
g2988
S'C:\\Users\\admin\\Desktop\\Sathvik\\Tharuni.Org\\gluon\\globals.py'
p3029
sg2990
(dp3030
S'self'
p3031
S'undefined'
p3032
sS'f'
S'<function cleanup>'
p3033
ssg2996
I186
sg2997
(dp3034
I181
S'        self.menu = []             # used by the default view layout'
p3035
sI182
S'        self.files = []            # used by web2py_ajax.html'
p3036
sI183
S'        self.generic_patterns = [] # patterns to allow generic views'
p3037
sI184
S"        self.delimiters = ('{{','}}')"
p3038
sI185
S'        self._vars = None'
p3039
sI186
S'        self._caller = lambda f: f()'
p3040
sI187
S'        self._view_environment = None'
p3041
sI188
S'        self._custom_commit = None'
p3042
sI189
S'        self._custom_rollback = None'
p3043
sI190
S''
ssg3009
S'(f=<function cleanup>)'
p3044
sg3011
S'<lambda>'
p3045
sa(dp3046
g2988
S'C:\\Users\\admin\\Desktop\\Sathvik\\Tharuni.Org\\applications\\admin\\controllers\\default.py'
p3047
sg2990
(dp3048
S'global request'
p3049
S"<Storage {'function': 'cleanup', 'body': <cStrin...plications\\\\admin\\\\', 'post_vars': <Storage {}>}>"
p3050
sS'app'
p3051
S"'admin'"
p3052
sS'clean'
p3053
g3032
sS'global app_cleanup'
p3054
S'<function app_cleanup>'
p3055
ssg2996
I379
sg2997
(dp3056
I374
S'    return dict(app=app, dialog=dialog)'
p3057
sI375
S''
sI376
S''
sI377
S'def cleanup():'
p3058
sI378
S'    app = get_app()'
p3059
sI379
S'    clean = app_cleanup(app, request)'
p3060
sI380
S'    if not clean:'
p3061
sI381
S'        session.flash = T("some files could not be removed")'
p3062
sI382
S'    else:'
p3063
sI383
S"        session.flash = T('cache, errors and sessions cleaned')"
p3064
ssg3009
S'()'
p3065
sg3011
S'cleanup'
p3066
sa(dp3067
g2988
S'C:\\Users\\admin\\Desktop\\Sathvik\\Tharuni.Org\\gluon\\admin.py'
p3068
sg2990
(dp3069
S'f'
S"'127.0.0.1-b09474c4-74c6-4bff-864d-e3d6c3b6e87e'"
p3070
sS'global recursive_unlink'
p3071
S'<function recursive_unlink>'
p3072
sS'global os'
p3073
S"<module 'os' from 'C:\\Python27\\lib\\os.pyc'>"
p3074
sS'path'
p3075
S"'C:/Users/admin/Desktop/Sathvik/Tharuni.Org/applications/admin/sessions/'"
p3076
sS'os.path.join'
p3077
S'<function join>'
p3078
sS'os.path'
p3079
S"<module 'ntpath' from 'C:\\Python27\\lib\\ntpath.pyc'>"
p3080
ssg2996
I125
sg2997
(dp3081
I128
S''
sI129
S'    # Remove cache files'
p3082
sI120
S'    # Remove session files'
p3083
sI121
S"    path = apath('%s/sessions/' % app, request)"
p3084
sI122
S'    if os.path.exists(path):'
p3085
sI123
S'        for f in os.listdir(path):'
p3086
sI124
S'            try:'
p3087
sI125
S"                if f[:1]!='.': recursive_unlink(os.path.join(path,f))"
p3088
sI126
S'            except IOError:'
p3089
sI127
S'                r = False'
p3090
ssg3009
S"(app='admin', request=<Storage {'function': 'cleanup', 'body': <cStrin...plications\\\\admin\\\\', 'post_vars': <Storage {}>}>)"
p3091
sg3011
S'app_cleanup'
p3092
sa(dp3093
g2988
S'C:\\Users\\admin\\Desktop\\Sathvik\\Tharuni.Org\\gluon\\fileutils.py'
p3094
sg2990
(dp3095
S'os.unlink'
p3096
S'<built-in function unlink>'
p3097
sS'global os'
p3098
S"<module 'os' from 'C:\\Python27\\lib\\os.pyc'>"
p3099
sS'f'
S"'C:/Users/admin/Desktop/Sathvik/Tharuni.Org/appli...ns/127.0.0.1-b09474c4-74c6-4bff-864d-e3d6c3b6e87e'"
p3100
ssg2996
I121
sg2997
(dp3101
I116
S'    if os.path.isdir(f):'
p3102
sI117
S'        for s in os.listdir(f):'
p3103
sI118
S'            recursive_unlink(os.path.join(f,s))'
p3104
sI119
S'        os.rmdir(f)'
p3105
sI120
S'    elif os.path.isfile(f):'
p3106
sI121
S'        os.unlink(f)'
p3107
sI122
S''
sI123
S''
sI124
S'def cleanpath(path):'
p3108
sI125
S'    """'
p3109
ssg3009
S"(f='C:/Users/admin/Desktop/Sathvik/Tharuni.Org/appli...ns/127.0.0.1-b09474c4-74c6-4bff-864d-e3d6c3b6e87e')"
p3110
sg3011
S'recursive_unlink'
p3111
sasS'pyver'
p3112
S'Python 2.7.3: C:\\Python27\\python.exe'
p3113
sS'session'
p3114
g65
(g66
g67
NtRp3115
(dp3116
g70
(dp3117
sg72
(lp3118
g65
(g74
g67
NtRp3119
(dp3120
g70
(dp3121
g78
I5
ssg79
Nsg72
(lp3122
g65
(g81
g67
NtRp3123
(dp3124
g70
(dp3125
sg79
g3119
sg72
(lp3126
g65
(g86
g67
NtRp3127
(dp3128
g70
(dp3129
g90
g91
ssg79
g3123
sg72
(lp3130
S'authorized'
p3131
asbag65
(g86
g67
NtRp3132
(dp3133
g70
(dp3134
g97
g98
ssg79
g3123
sg72
(lp3135
S':'
asbag65
(g86
g67
NtRp3136
(dp3137
g70
(dp3138
sg79
g3123
sg72
(lp3139
g65
(g66
g67
NtRp3140
(dp3141
g70
(dp3142
g78
I5
ssg79
g3136
sg72
(lp3143
g1579
asbasbasbag65
(g81
g67
NtRp3144
(dp3145
g70
(dp3146
sg79
g3119
sg72
(lp3147
g65
(g86
g67
NtRp3148
(dp3149
g70
(dp3150
g90
g91
ssg79
g3144
sg72
(lp3151
S'check_version'
p3152
asbag65
(g86
g67
NtRp3153
(dp3154
g70
(dp3155
g97
g98
ssg79
g3144
sg72
(lp3156
S':'
asbag65
(g86
g67
NtRp3157
(dp3158
g70
(dp3159
sg79
g3144
sg72
(lp3160
g65
(g66
g67
NtRp3161
(dp3162
g70
(dp3163
g78
I5
ssg79
g3157
sg72
(lp3164
g108
asbasbasbag65
(g81
g67
NtRp3165
(dp3166
g70
(dp3167
sg79
g3119
sg72
(lp3168
g65
(g86
g67
NtRp3169
(dp3170
g70
(dp3171
g90
g91
ssg79
g3165
sg72
(lp3172
S'flash'
p3173
asbag65
(g86
g67
NtRp3174
(dp3175
g70
(dp3176
g97
g98
ssg79
g3165
sg72
(lp3177
S':'
asbag65
(g86
g67
NtRp3178
(dp3179
g70
(dp3180
sg79
g3165
sg72
(lp3181
g65
(g66
g67
NtRp3182
(dp3183
g70
(dp3184
g78
I5
ssg79
g3178
sg72
(lp3185
S'None'
p3186
asbasbasbag65
(g81
g67
NtRp3187
(dp3188
g70
(dp3189
sg79
g3119
sg72
(lp3190
g65
(g86
g67
NtRp3191
(dp3192
g70
(dp3193
g90
g91
ssg79
g3187
sg72
(lp3194
S'last_time'
p3195
asbag65
(g86
g67
NtRp3196
(dp3197
g70
(dp3198
g97
g98
ssg79
g3187
sg72
(lp3199
S':'
asbag65
(g86
g67
NtRp3200
(dp3201
g70
(dp3202
sg79
g3187
sg72
(lp3203
g65
(g66
g67
NtRp3204
(dp3205
g70
(dp3206
g78
I5
ssg79
g3200
sg72
(lp3207
S'1350209127.708'
p3208
asbasbasbag65
(g81
g67
NtRp3209
(dp3210
g70
(dp3211
sg79
g3119
sg72
(lp3212
g65
(g86
g67
NtRp3213
(dp3214
g70
(dp3215
g90
g91
ssg79
g3209
sg72
(lp3216
S'pam_user'
p3217
asbag65
(g86
g67
NtRp3218
(dp3219
g70
(dp3220
g97
g98
ssg79
g3209
sg72
(lp3221
S':'
asbag65
(g86
g67
NtRp3222
(dp3223
g70
(dp3224
sg79
g3209
sg72
(lp3225
g65
(g66
g67
NtRp3226
(dp3227
g70
(dp3228
g78
I5
ssg79
g3222
sg72
(lp3229
S'None'
p3230
asbasbasbag65
(g81
g67
NtRp3231
(dp3232
g70
(dp3233
sg79
g3119
sg72
(lp3234
g65
(g86
g67
NtRp3235
(dp3236
g70
(dp3237
g90
g91
ssg79
g3231
sg72
(lp3238
S'token'
p3239
asbag65
(g86
g67
NtRp3240
(dp3241
g70
(dp3242
g97
g98
ssg79
g3231
sg72
(lp3243
S':'
asbag65
(g86
g67
NtRp3244
(dp3245
g70
(dp3246
sg79
g3231
sg72
(lp3247
g65
(g66
g67
NtRp3248
(dp3249
g70
(dp3250
g78
I5
ssg79
g3244
sg72
(lp3251
S'8c6da387-220b-4126-9b99-e97263d6c223'
p3252
asbasbasbasbasbsS'etype'
p3253
S"<type 'exceptions.WindowsError'>"
p3254
sS'date'
p3255
S'Sun Oct 14 15:35:27 2012'
p3256
sS'response'
p3257
g65
(g66
g67
NtRp3258
(dp3259
g70
(dp3260
sg72
(lp3261
g65
(g74
g67
NtRp3262
(dp3263
g70
(dp3264
g78
I5
ssg79
Nsg72
(lp3265
g65
(g81
g67
NtRp3266
(dp3267
g70
(dp3268
sg79
g3262
sg72
(lp3269
g65
(g86
g67
NtRp3270
(dp3271
g70
(dp3272
g90
g91
ssg79
g3266
sg72
(lp3273
g176
asbag65
(g86
g67
NtRp3274
(dp3275
g70
(dp3276
g97
g98
ssg79
g3266
sg72
(lp3277
S':'
asbag65
(g86
g67
NtRp3278
(dp3279
g70
(dp3280
sg79
g3266
sg72
(lp3281
g65
(g66
g67
NtRp3282
(dp3283
g70
(dp3284
g78
I5
ssg79
g3278
sg72
(lp3285
S'<cStringIO.StringO object at 0x0000000003C62C00>'
p3286
asbasbasbag65
(g81
g67
NtRp3287
(dp3288
g70
(dp3289
sg79
g3262
sg72
(lp3290
g65
(g86
g67
NtRp3291
(dp3292
g70
(dp3293
g90
g91
ssg79
g3287
sg72
(lp3294
g264
asbag65
(g86
g67
NtRp3295
(dp3296
g70
(dp3297
g97
g98
ssg79
g3287
sg72
(lp3298
S':'
asbag65
(g86
g67
NtRp3299
(dp3300
g70
(dp3301
sg79
g3287
sg72
(lp3302
g65
(g66
g67
NtRp3303
(dp3304
g70
(dp3305
g78
I5
ssg79
g3299
sg72
(lp3306
g65
(g74
g67
NtRp3307
(dp3308
g70
(dp3309
g78
I4
ssg79
Nsg72
(lp3310
g65
(g81
g67
NtRp3311
(dp3312
g70
(dp3313
sg79
g3307
sg72
(lp3314
g65
(g86
g67
NtRp3315
(dp3316
g70
(dp3317
g90
g91
ssg79
g3311
sg72
(lp3318
S'session_id_admin'
p3319
asbag65
(g86
g67
NtRp3320
(dp3321
g70
(dp3322
g97
g98
ssg79
g3311
sg72
(lp3323
S':'
asbag65
(g86
g67
NtRp3324
(dp3325
g70
(dp3326
sg79
g3311
sg72
(lp3327
g65
(g66
g67
NtRp3328
(dp3329
g70
(dp3330
g78
I4
ssg79
g3324
sg72
(lp3331
g302
ag65
(g74
g67
NtRp3332
(dp3333
g70
(dp3334
g78
I3
ssg79
Nsg72
(lp3335
g65
(g81
g67
NtRp3336
(dp3337
g70
(dp3338
sg79
g3332
sg72
(lp3339
g65
(g86
g67
NtRp3340
(dp3341
g70
(dp3342
g90
g91
ssg79
g3336
sg72
(lp3343
g315
asbag65
(g86
g67
NtRp3344
(dp3345
g70
(dp3346
g97
g98
ssg79
g3336
sg72
(lp3347
S':'
asbag65
(g86
g67
NtRp3348
(dp3349
g70
(dp3350
sg79
g3336
sg72
(lp3351
g65
(g66
g67
NtRp3352
(dp3353
g70
(dp3354
g78
I3
ssg79
g3348
sg72
(lp3355
S''
asbasbasbag65
(g81
g67
NtRp3356
(dp3357
g70
(dp3358
sg79
g3332
sg72
(lp3359
g65
(g86
g67
NtRp3360
(dp3361
g70
(dp3362
g90
g91
ssg79
g3356
sg72
(lp3363
g336
asbag65
(g86
g67
NtRp3364
(dp3365
g70
(dp3366
g97
g98
ssg79
g3356
sg72
(lp3367
S':'
asbag65
(g86
g67
NtRp3368
(dp3369
g70
(dp3370
sg79
g3356
sg72
(lp3371
g65
(g66
g67
NtRp3372
(dp3373
g70
(dp3374
g78
I3
ssg79
g3368
sg72
(lp3375
S''
asbasbasbag65
(g81
g67
NtRp3376
(dp3377
g70
(dp3378
sg79
g3332
sg72
(lp3379
g65
(g86
g67
NtRp3380
(dp3381
g70
(dp3382
g90
g91
ssg79
g3376
sg72
(lp3383
g357
asbag65
(g86
g67
NtRp3384
(dp3385
g70
(dp3386
g97
g98
ssg79
g3376
sg72
(lp3387
S':'
asbag65
(g86
g67
NtRp3388
(dp3389
g70
(dp3390
sg79
g3376
sg72
(lp3391
g65
(g66
g67
NtRp3392
(dp3393
g70
(dp3394
g78
I3
ssg79
g3388
sg72
(lp3395
S''
asbasbasbag65
(g81
g67
NtRp3396
(dp3397
g70
(dp3398
sg79
g3332
sg72
(lp3399
g65
(g86
g67
NtRp3400
(dp3401
g70
(dp3402
g90
g91
ssg79
g3396
sg72
(lp3403
g378
asbag65
(g86
g67
NtRp3404
(dp3405
g70
(dp3406
g97
g98
ssg79
g3396
sg72
(lp3407
S':'
asbag65
(g86
g67
NtRp3408
(dp3409
g70
(dp3410
sg79
g3396
sg72
(lp3411
g65
(g66
g67
NtRp3412
(dp3413
g70
(dp3414
g78
I3
ssg79
g3408
sg72
(lp3415
S''
asbasbasbag65
(g81
g67
NtRp3416
(dp3417
g70
(dp3418
sg79
g3332
sg72
(lp3419
g65
(g86
g67
NtRp3420
(dp3421
g70
(dp3422
g90
g91
ssg79
g3416
sg72
(lp3423
g399
asbag65
(g86
g67
NtRp3424
(dp3425
g70
(dp3426
g97
g98
ssg79
g3416
sg72
(lp3427
S':'
asbag65
(g86
g67
NtRp3428
(dp3429
g70
(dp3430
sg79
g3416
sg72
(lp3431
g65
(g66
g67
NtRp3432
(dp3433
g70
(dp3434
g78
I3
ssg79
g3428
sg72
(lp3435
S''
asbasbasbag65
(g81
g67
NtRp3436
(dp3437
g70
(dp3438
sg79
g3332
sg72
(lp3439
g65
(g86
g67
NtRp3440
(dp3441
g70
(dp3442
g90
g91
ssg79
g3436
sg72
(lp3443
g420
asbag65
(g86
g67
NtRp3444
(dp3445
g70
(dp3446
g97
g98
ssg79
g3436
sg72
(lp3447
S':'
asbag65
(g86
g67
NtRp3448
(dp3449
g70
(dp3450
sg79
g3436
sg72
(lp3451
g65
(g66
g67
NtRp3452
(dp3453
g70
(dp3454
g78
I3
ssg79
g3448
sg72
(lp3455
S'/'
asbasbasbag65
(g81
g67
NtRp3456
(dp3457
g70
(dp3458
sg79
g3332
sg72
(lp3459
g65
(g86
g67
NtRp3460
(dp3461
g70
(dp3462
g90
g91
ssg79
g3456
sg72
(lp3463
g441
asbag65
(g86
g67
NtRp3464
(dp3465
g70
(dp3466
g97
g98
ssg79
g3456
sg72
(lp3467
S':'
asbag65
(g86
g67
NtRp3468
(dp3469
g70
(dp3470
sg79
g3456
sg72
(lp3471
g65
(g66
g67
NtRp3472
(dp3473
g70
(dp3474
g78
I3
ssg79
g3468
sg72
(lp3475
S''
asbasbasbag65
(g81
g67
NtRp3476
(dp3477
g70
(dp3478
sg79
g3332
sg72
(lp3479
g65
(g86
g67
NtRp3480
(dp3481
g70
(dp3482
g90
g91
ssg79
g3476
sg72
(lp3483
g462
asbag65
(g86
g67
NtRp3484
(dp3485
g70
(dp3486
g97
g98
ssg79
g3476
sg72
(lp3487
S':'
asbag65
(g86
g67
NtRp3488
(dp3489
g70
(dp3490
sg79
g3476
sg72
(lp3491
g65
(g66
g67
NtRp3492
(dp3493
g70
(dp3494
g78
I3
ssg79
g3488
sg72
(lp3495
S''
asbasbasbasbasbasbasbasbasbasbasbag65
(g81
g67
NtRp3496
(dp3497
g70
(dp3498
sg79
g3262
sg72
(lp3499
g65
(g86
g67
NtRp3500
(dp3501
g70
(dp3502
g90
g91
ssg79
g3496
sg72
(lp3503
S'delimiters'
p3504
asbag65
(g86
g67
NtRp3505
(dp3506
g70
(dp3507
g97
g98
ssg79
g3496
sg72
(lp3508
S':'
asbag65
(g86
g67
NtRp3509
(dp3510
g70
(dp3511
sg79
g3496
sg72
(lp3512
g65
(g66
g67
NtRp3513
(dp3514
g70
(dp3515
g78
I5
ssg79
g3509
sg72
(lp3516
g65
(g74
g67
NtRp3517
(dp3518
g70
(dp3519
g78
I4
ssg79
Nsg72
(lp3520
g65
(g81
g67
NtRp3521
(dp3522
g70
(dp3523
sg79
g3517
sg72
(lp3524
g65
(g86
g67
NtRp3525
(dp3526
g70
(dp3527
sg79
g3521
sg72
(lp3528
g65
(g66
g67
NtRp3529
(dp3530
g70
(dp3531
g78
I4
ssg79
g3525
sg72
(lp3532
S'{{'
p3533
asbasbasbag65
(g81
g67
NtRp3534
(dp3535
g70
(dp3536
sg79
g3517
sg72
(lp3537
g65
(g86
g67
NtRp3538
(dp3539
g70
(dp3540
sg79
g3534
sg72
(lp3541
g65
(g66
g67
NtRp3542
(dp3543
g70
(dp3544
g78
I4
ssg79
g3538
sg72
(lp3545
S'}}'
p3546
asbasbasbasbasbasbasbag65
(g81
g67
NtRp3547
(dp3548
g70
(dp3549
sg79
g3262
sg72
(lp3550
g65
(g86
g67
NtRp3551
(dp3552
g70
(dp3553
g90
g91
ssg79
g3547
sg72
(lp3554
S'files'
p3555
asbag65
(g86
g67
NtRp3556
(dp3557
g70
(dp3558
g97
g98
ssg79
g3547
sg72
(lp3559
S':'
asbag65
(g86
g67
NtRp3560
(dp3561
g70
(dp3562
sg79
g3547
sg72
(lp3563
g65
(g66
g67
NtRp3564
(dp3565
g70
(dp3566
g78
I5
ssg79
g3560
sg72
(lp3567
g65
(g74
g67
NtRp3568
(dp3569
g70
(dp3570
g78
I4
ssg79
Nsg72
(lp3571
g65
(g81
g67
NtRp3572
(dp3573
g70
(dp3574
sg79
g3568
sg72
(lp3575
g65
(g86
g67
NtRp3576
(dp3577
g70
(dp3578
sg79
g3572
sg72
(lp3579
g65
(g66
g67
NtRp3580
(dp3581
g70
(dp3582
g78
I4
ssg79
g3576
sg72
(lp3583
S'/admin/static/plugin_multiselect/jquery.multi-select.js'
p3584
asbasbasbag65
(g81
g67
NtRp3585
(dp3586
g70
(dp3587
sg79
g3568
sg72
(lp3588
g65
(g86
g67
NtRp3589
(dp3590
g70
(dp3591
sg79
g3585
sg72
(lp3592
g65
(g66
g67
NtRp3593
(dp3594
g70
(dp3595
g78
I4
ssg79
g3589
sg72
(lp3596
S'/admin/static/plugin_multiselect/multi-select.css'
p3597
asbasbasbag65
(g81
g67
NtRp3598
(dp3599
g70
(dp3600
sg79
g3568
sg72
(lp3601
g65
(g86
g67
NtRp3602
(dp3603
g70
(dp3604
sg79
g3598
sg72
(lp3605
g65
(g66
g67
NtRp3606
(dp3607
g70
(dp3608
g78
I4
ssg79
g3602
sg72
(lp3609
S'/admin/static/plugin_multiselect/start.js'
p3610
asbasbasbasbasbasbasbag65
(g81
g67
NtRp3611
(dp3612
g70
(dp3613
sg79
g3262
sg72
(lp3614
g65
(g86
g67
NtRp3615
(dp3616
g70
(dp3617
g90
g91
ssg79
g3611
sg72
(lp3618
S'flash'
p3619
asbag65
(g86
g67
NtRp3620
(dp3621
g70
(dp3622
g97
g98
ssg79
g3611
sg72
(lp3623
S':'
asbag65
(g86
g67
NtRp3624
(dp3625
g70
(dp3626
sg79
g3611
sg72
(lp3627
g65
(g66
g67
NtRp3628
(dp3629
g70
(dp3630
g78
I5
ssg79
g3624
sg72
(lp3631
S''
asbasbasbag65
(g81
g67
NtRp3632
(dp3633
g70
(dp3634
sg79
g3262
sg72
(lp3635
g65
(g86
g67
NtRp3636
(dp3637
g70
(dp3638
g90
g91
ssg79
g3632
sg72
(lp3639
S'generic_patterns'
p3640
asbag65
(g86
g67
NtRp3641
(dp3642
g70
(dp3643
g97
g98
ssg79
g3632
sg72
(lp3644
S':'
asbag65
(g86
g67
NtRp3645
(dp3646
g70
(dp3647
sg79
g3632
sg72
(lp3648
g65
(g66
g67
NtRp3649
(dp3650
g70
(dp3651
g78
I5
ssg79
g3645
sg72
(lp3652
g65
(g74
g67
NtRp3653
(dp3654
g70
(dp3655
g78
I4
ssg79
Nsg72
(lp3656
sbasbasbasbag65
(g81
g67
NtRp3657
(dp3658
g70
(dp3659
sg79
g3262
sg72
(lp3660
g65
(g86
g67
NtRp3661
(dp3662
g70
(dp3663
g90
g91
ssg79
g3657
sg72
(lp3664
S'headers'
p3665
asbag65
(g86
g67
NtRp3666
(dp3667
g70
(dp3668
g97
g98
ssg79
g3657
sg72
(lp3669
S':'
asbag65
(g86
g67
NtRp3670
(dp3671
g70
(dp3672
sg79
g3657
sg72
(lp3673
g65
(g66
g67
NtRp3674
(dp3675
g70
(dp3676
g78
I5
ssg79
g3670
sg72
(lp3677
g65
(g74
g67
NtRp3678
(dp3679
g70
(dp3680
g78
I4
ssg79
Nsg72
(lp3681
g65
(g81
g67
NtRp3682
(dp3683
g70
(dp3684
sg79
g3678
sg72
(lp3685
g65
(g86
g67
NtRp3686
(dp3687
g70
(dp3688
g90
g91
ssg79
g3682
sg72
(lp3689
S'X-Powered-By'
p3690
asbag65
(g86
g67
NtRp3691
(dp3692
g70
(dp3693
g97
g98
ssg79
g3682
sg72
(lp3694
S':'
asbag65
(g86
g67
NtRp3695
(dp3696
g70
(dp3697
sg79
g3682
sg72
(lp3698
g65
(g66
g67
NtRp3699
(dp3700
g70
(dp3701
g78
I4
ssg79
g3695
sg72
(lp3702
S'web2py'
p3703
asbasbasbasbasbasbasbag65
(g81
g67
NtRp3704
(dp3705
g70
(dp3706
sg79
g3262
sg72
(lp3707
g65
(g86
g67
NtRp3708
(dp3709
g70
(dp3710
g90
g91
ssg79
g3704
sg72
(lp3711
S'menu'
p3712
asbag65
(g86
g67
NtRp3713
(dp3714
g70
(dp3715
g97
g98
ssg79
g3704
sg72
(lp3716
S':'
asbag65
(g86
g67
NtRp3717
(dp3718
g70
(dp3719
sg79
g3704
sg72
(lp3720
g65
(g66
g67
NtRp3721
(dp3722
g70
(dp3723
g78
I5
ssg79
g3717
sg72
(lp3724
g65
(g74
g67
NtRp3725
(dp3726
g70
(dp3727
g78
I4
ssg79
Nsg72
(lp3728
g65
(g81
g67
NtRp3729
(dp3730
g70
(dp3731
sg79
g3725
sg72
(lp3732
g65
(g86
g67
NtRp3733
(dp3734
g70
(dp3735
sg79
g3729
sg72
(lp3736
g65
(g66
g67
NtRp3737
(dp3738
g70
(dp3739
g78
I4
ssg79
g3733
sg72
(lp3740
g65
(g74
g67
NtRp3741
(dp3742
g70
(dp3743
g78
I3
ssg79
Nsg72
(lp3744
g65
(g81
g67
NtRp3745
(dp3746
g70
(dp3747
sg79
g3741
sg72
(lp3748
g65
(g86
g67
NtRp3749
(dp3750
g70
(dp3751
sg79
g3745
sg72
(lp3752
g65
(g66
g67
NtRp3753
(dp3754
g70
(dp3755
g78
I3
ssg79
g3749
sg72
(lp3756
cgluon.languages
lazyT_unpickle
p3757
(S's\x04\x00\x00\x00Site'
tRp3758
asbasbasbag65
(g81
g67
NtRp3759
(dp3760
g70
(dp3761
sg79
g3741
sg72
(lp3762
g65
(g86
g67
NtRp3763
(dp3764
g70
(dp3765
sg79
g3759
sg72
(lp3766
g65
(g66
g67
NtRp3767
(dp3768
g70
(dp3769
g78
I3
ssg79
g3763
sg72
(lp3770
g108
asbasbasbag65
(g81
g67
NtRp3771
(dp3772
g70
(dp3773
sg79
g3741
sg72
(lp3774
g65
(g86
g67
NtRp3775
(dp3776
g70
(dp3777
sg79
g3771
sg72
(lp3778
g65
(g66
g67
NtRp3779
(dp3780
g70
(dp3781
g78
I3
ssg79
g3775
sg72
(lp3782
S'/admin/default/site'
p3783
asbasbasbasbasbasbasbag65
(g81
g67
NtRp3784
(dp3785
g70
(dp3786
sg79
g3725
sg72
(lp3787
g65
(g86
g67
NtRp3788
(dp3789
g70
(dp3790
sg79
g3784
sg72
(lp3791
g65
(g66
g67
NtRp3792
(dp3793
g70
(dp3794
g78
I4
ssg79
g3788
sg72
(lp3795
g65
(g74
g67
NtRp3796
(dp3797
g70
(dp3798
g78
I3
ssg79
Nsg72
(lp3799
g65
(g81
g67
NtRp3800
(dp3801
g70
(dp3802
sg79
g3796
sg72
(lp3803
g65
(g86
g67
NtRp3804
(dp3805
g70
(dp3806
sg79
g3800
sg72
(lp3807
g65
(g66
g67
NtRp3808
(dp3809
g70
(dp3810
g78
I3
ssg79
g3804
sg72
(lp3811
g3757
(S's\x04\x00\x00\x00Edit'
tRp3812
asbasbasbag65
(g81
g67
NtRp3813
(dp3814
g70
(dp3815
sg79
g3796
sg72
(lp3816
g65
(g86
g67
NtRp3817
(dp3818
g70
(dp3819
sg79
g3813
sg72
(lp3820
g65
(g66
g67
NtRp3821
(dp3822
g70
(dp3823
g78
I3
ssg79
g3817
sg72
(lp3824
g108
asbasbasbag65
(g81
g67
NtRp3825
(dp3826
g70
(dp3827
sg79
g3796
sg72
(lp3828
g65
(g86
g67
NtRp3829
(dp3830
g70
(dp3831
sg79
g3825
sg72
(lp3832
g65
(g66
g67
NtRp3833
(dp3834
g70
(dp3835
g78
I3
ssg79
g3829
sg72
(lp3836
S'/admin/default/design/admin'
p3837
asbasbasbasbasbasbasbag65
(g81
g67
NtRp3838
(dp3839
g70
(dp3840
sg79
g3725
sg72
(lp3841
g65
(g86
g67
NtRp3842
(dp3843
g70
(dp3844
sg79
g3838
sg72
(lp3845
g65
(g66
g67
NtRp3846
(dp3847
g70
(dp3848
g78
I4
ssg79
g3842
sg72
(lp3849
g65
(g74
g67
NtRp3850
(dp3851
g70
(dp3852
g78
I3
ssg79
Nsg72
(lp3853
g65
(g81
g67
NtRp3854
(dp3855
g70
(dp3856
sg79
g3850
sg72
(lp3857
g65
(g86
g67
NtRp3858
(dp3859
g70
(dp3860
sg79
g3854
sg72
(lp3861
g65
(g66
g67
NtRp3862
(dp3863
g70
(dp3864
g78
I3
ssg79
g3858
sg72
(lp3865
g3757
(S's\x05\x00\x00\x00About'
tRp3866
asbasbasbag65
(g81
g67
NtRp3867
(dp3868
g70
(dp3869
sg79
g3850
sg72
(lp3870
g65
(g86
g67
NtRp3871
(dp3872
g70
(dp3873
sg79
g3867
sg72
(lp3874
g65
(g66
g67
NtRp3875
(dp3876
g70
(dp3877
g78
I3
ssg79
g3871
sg72
(lp3878
g108
asbasbasbag65
(g81
g67
NtRp3879
(dp3880
g70
(dp3881
sg79
g3850
sg72
(lp3882
g65
(g86
g67
NtRp3883
(dp3884
g70
(dp3885
sg79
g3879
sg72
(lp3886
g65
(g66
g67
NtRp3887
(dp3888
g70
(dp3889
g78
I3
ssg79
g3883
sg72
(lp3890
S'/admin/default/about/admin'
p3891
asbasbasbasbasbasbasbag65
(g81
g67
NtRp3892
(dp3893
g70
(dp3894
sg79
g3725
sg72
(lp3895
g65
(g86
g67
NtRp3896
(dp3897
g70
(dp3898
sg79
g3892
sg72
(lp3899
g65
(g66
g67
NtRp3900
(dp3901
g70
(dp3902
g78
I4
ssg79
g3896
sg72
(lp3903
g65
(g74
g67
NtRp3904
(dp3905
g70
(dp3906
g78
I3
ssg79
Nsg72
(lp3907
g65
(g81
g67
NtRp3908
(dp3909
g70
(dp3910
sg79
g3904
sg72
(lp3911
g65
(g86
g67
NtRp3912
(dp3913
g70
(dp3914
sg79
g3908
sg72
(lp3915
g65
(g66
g67
NtRp3916
(dp3917
g70
(dp3918
g78
I3
ssg79
g3912
sg72
(lp3919
g3757
(S's\x06\x00\x00\x00Errors'
tRp3920
asbasbasbag65
(g81
g67
NtRp3921
(dp3922
g70
(dp3923
sg79
g3904
sg72
(lp3924
g65
(g86
g67
NtRp3925
(dp3926
g70
(dp3927
sg79
g3921
sg72
(lp3928
g65
(g66
g67
NtRp3929
(dp3930
g70
(dp3931
g78
I3
ssg79
g3925
sg72
(lp3932
g108
asbasbasbag65
(g81
g67
NtRp3933
(dp3934
g70
(dp3935
sg79
g3904
sg72
(lp3936
g65
(g86
g67
NtRp3937
(dp3938
g70
(dp3939
sg79
g3933
sg72
(lp3940
g65
(g66
g67
NtRp3941
(dp3942
g70
(dp3943
g78
I3
ssg79
g3937
sg72
(lp3944
S'/admin/default/errors/admin'
p3945
asbasbasbasbasbasbasbag65
(g81
g67
NtRp3946
(dp3947
g70
(dp3948
sg79
g3725
sg72
(lp3949
g65
(g86
g67
NtRp3950
(dp3951
g70
(dp3952
sg79
g3946
sg72
(lp3953
g65
(g66
g67
NtRp3954
(dp3955
g70
(dp3956
g78
I4
ssg79
g3950
sg72
(lp3957
g65
(g74
g67
NtRp3958
(dp3959
g70
(dp3960
g78
I3
ssg79
Nsg72
(lp3961
g65
(g81
g67
NtRp3962
(dp3963
g70
(dp3964
sg79
g3958
sg72
(lp3965
g65
(g86
g67
NtRp3966
(dp3967
g70
(dp3968
sg79
g3962
sg72
(lp3969
g65
(g66
g67
NtRp3970
(dp3971
g70
(dp3972
g78
I3
ssg79
g3966
sg72
(lp3973
g3757
(S's\n\x00\x00\x00Versioning'
tRp3974
asbasbasbag65
(g81
g67
NtRp3975
(dp3976
g70
(dp3977
sg79
g3958
sg72
(lp3978
g65
(g86
g67
NtRp3979
(dp3980
g70
(dp3981
sg79
g3975
sg72
(lp3982
g65
(g66
g67
NtRp3983
(dp3984
g70
(dp3985
g78
I3
ssg79
g3979
sg72
(lp3986
g108
asbasbasbag65
(g81
g67
NtRp3987
(dp3988
g70
(dp3989
sg79
g3958
sg72
(lp3990
g65
(g86
g67
NtRp3991
(dp3992
g70
(dp3993
sg79
g3987
sg72
(lp3994
g65
(g66
g67
NtRp3995
(dp3996
g70
(dp3997
g78
I3
ssg79
g3991
sg72
(lp3998
S'/admin/mercurial/commit/admin'
p3999
asbasbasbasbasbasbasbag65
(g81
g67
NtRp4000
(dp4001
g70
(dp4002
sg79
g3725
sg72
(lp4003
g65
(g86
g67
NtRp4004
(dp4005
g70
(dp4006
sg79
g4000
sg72
(lp4007
g65
(g66
g67
NtRp4008
(dp4009
g70
(dp4010
g78
I4
ssg79
g4004
sg72
(lp4011
g65
(g74
g67
NtRp4012
(dp4013
g70
(dp4014
g78
I3
ssg79
Nsg72
(lp4015
g65
(g81
g67
NtRp4016
(dp4017
g70
(dp4018
sg79
g4012
sg72
(lp4019
g65
(g86
g67
NtRp4020
(dp4021
g70
(dp4022
sg79
g4016
sg72
(lp4023
g65
(g66
g67
NtRp4024
(dp4025
g70
(dp4026
g78
I3
ssg79
g4020
sg72
(lp4027
g3757
(S's\x06\x00\x00\x00Logout'
tRp4028
asbasbasbag65
(g81
g67
NtRp4029
(dp4030
g70
(dp4031
sg79
g4012
sg72
(lp4032
g65
(g86
g67
NtRp4033
(dp4034
g70
(dp4035
sg79
g4029
sg72
(lp4036
g65
(g66
g67
NtRp4037
(dp4038
g70
(dp4039
g78
I3
ssg79
g4033
sg72
(lp4040
g108
asbasbasbag65
(g81
g67
NtRp4041
(dp4042
g70
(dp4043
sg79
g4012
sg72
(lp4044
g65
(g86
g67
NtRp4045
(dp4046
g70
(dp4047
sg79
g4041
sg72
(lp4048
g65
(g66
g67
NtRp4049
(dp4050
g70
(dp4051
g78
I3
ssg79
g4045
sg72
(lp4052
S'/admin/default/logout'
p4053
asbasbasbasbasbasbasbag65
(g81
g67
NtRp4054
(dp4055
g70
(dp4056
sg79
g3725
sg72
(lp4057
g65
(g86
g67
NtRp4058
(dp4059
g70
(dp4060
sg79
g4054
sg72
(lp4061
g65
(g66
g67
NtRp4062
(dp4063
g70
(dp4064
g78
I4
ssg79
g4058
sg72
(lp4065
g65
(g74
g67
NtRp4066
(dp4067
g70
(dp4068
g78
I3
ssg79
Nsg72
(lp4069
g65
(g81
g67
NtRp4070
(dp4071
g70
(dp4072
sg79
g4066
sg72
(lp4073
g65
(g86
g67
NtRp4074
(dp4075
g70
(dp4076
sg79
g4070
sg72
(lp4077
g65
(g66
g67
NtRp4078
(dp4079
g70
(dp4080
g78
I3
ssg79
g4074
sg72
(lp4081
g3757
(S's\x05\x00\x00\x00Debug'
tRp4082
asbasbasbag65
(g81
g67
NtRp4083
(dp4084
g70
(dp4085
sg79
g4066
sg72
(lp4086
g65
(g86
g67
NtRp4087
(dp4088
g70
(dp4089
sg79
g4083
sg72
(lp4090
g65
(g66
g67
NtRp4091
(dp4092
g70
(dp4093
g78
I3
ssg79
g4087
sg72
(lp4094
g108
asbasbasbag65
(g81
g67
NtRp4095
(dp4096
g70
(dp4097
sg79
g4066
sg72
(lp4098
g65
(g86
g67
NtRp4099
(dp4100
g70
(dp4101
sg79
g4095
sg72
(lp4102
g65
(g66
g67
NtRp4103
(dp4104
g70
(dp4105
g78
I3
ssg79
g4099
sg72
(lp4106
S'/admin/debug/interact'
p4107
asbasbasbasbasbasbasbag65
(g81
g67
NtRp4108
(dp4109
g70
(dp4110
sg79
g3725
sg72
(lp4111
g65
(g86
g67
NtRp4112
(dp4113
g70
(dp4114
sg79
g4108
sg72
(lp4115
g65
(g66
g67
NtRp4116
(dp4117
g70
(dp4118
g78
I4
ssg79
g4112
sg72
(lp4119
g65
(g74
g67
NtRp4120
(dp4121
g70
(dp4122
g78
I3
ssg79
Nsg72
(lp4123
g65
(g81
g67
NtRp4124
(dp4125
g70
(dp4126
sg79
g4120
sg72
(lp4127
g65
(g86
g67
NtRp4128
(dp4129
g70
(dp4130
sg79
g4124
sg72
(lp4131
g65
(g66
g67
NtRp4132
(dp4133
g70
(dp4134
g78
I3
ssg79
g4128
sg72
(lp4135
g3757
(S's\x04\x00\x00\x00Help'
tRp4136
asbasbasbag65
(g81
g67
NtRp4137
(dp4138
g70
(dp4139
sg79
g4120
sg72
(lp4140
g65
(g86
g67
NtRp4141
(dp4142
g70
(dp4143
sg79
g4137
sg72
(lp4144
g65
(g66
g67
NtRp4145
(dp4146
g70
(dp4147
g78
I3
ssg79
g4141
sg72
(lp4148
g108
asbasbasbag65
(g81
g67
NtRp4149
(dp4150
g70
(dp4151
sg79
g4120
sg72
(lp4152
g65
(g86
g67
NtRp4153
(dp4154
g70
(dp4155
sg79
g4149
sg72
(lp4156
g65
(g66
g67
NtRp4157
(dp4158
g70
(dp4159
g78
I3
ssg79
g4153
sg72
(lp4160
S'http://web2py.com/examples'
p4161
asbasbasbasbasbasbasbasbasbasbasbag65
(g81
g67
NtRp4162
(dp4163
g70
(dp4164
sg79
g3262
sg72
(lp4165
g65
(g86
g67
NtRp4166
(dp4167
g70
(dp4168
g90
g91
ssg79
g4162
sg72
(lp4169
S'meta'
p4170
asbag65
(g86
g67
NtRp4171
(dp4172
g70
(dp4173
g97
g98
ssg79
g4162
sg72
(lp4174
S':'
asbag65
(g86
g67
NtRp4175
(dp4176
g70
(dp4177
sg79
g4162
sg72
(lp4178
g65
(g66
g67
NtRp4179
(dp4180
g70
(dp4181
g78
I5
ssg79
g4175
sg72
(lp4182
g65
(g74
g67
NtRp4183
(dp4184
g70
(dp4185
g78
I4
ssg79
Nsg72
(lp4186
sbasbasbasbag65
(g81
g67
NtRp4187
(dp4188
g70
(dp4189
sg79
g3262
sg72
(lp4190
g65
(g86
g67
NtRp4191
(dp4192
g70
(dp4193
g90
g91
ssg79
g4187
sg72
(lp4194
S'models_to_run'
p4195
asbag65
(g86
g67
NtRp4196
(dp4197
g70
(dp4198
g97
g98
ssg79
g4187
sg72
(lp4199
S':'
asbag65
(g86
g67
NtRp4200
(dp4201
g70
(dp4202
sg79
g4187
sg72
(lp4203
g65
(g66
g67
NtRp4204
(dp4205
g70
(dp4206
g78
I5
ssg79
g4200
sg72
(lp4207
g65
(g74
g67
NtRp4208
(dp4209
g70
(dp4210
g78
I4
ssg79
Nsg72
(lp4211
g65
(g81
g67
NtRp4212
(dp4213
g70
(dp4214
sg79
g4208
sg72
(lp4215
g65
(g86
g67
NtRp4216
(dp4217
g70
(dp4218
sg79
g4212
sg72
(lp4219
g65
(g66
g67
NtRp4220
(dp4221
g70
(dp4222
g78
I4
ssg79
g4216
sg72
(lp4223
S'^\\w+\\.py$'
p4224
asbasbasbag65
(g81
g67
NtRp4225
(dp4226
g70
(dp4227
sg79
g4208
sg72
(lp4228
g65
(g86
g67
NtRp4229
(dp4230
g70
(dp4231
sg79
g4225
sg72
(lp4232
g65
(g66
g67
NtRp4233
(dp4234
g70
(dp4235
g78
I4
ssg79
g4229
sg72
(lp4236
S'^default/\\w+\\.py$'
p4237
asbasbasbag65
(g81
g67
NtRp4238
(dp4239
g70
(dp4240
sg79
g4208
sg72
(lp4241
g65
(g86
g67
NtRp4242
(dp4243
g70
(dp4244
sg79
g4238
sg72
(lp4245
g65
(g66
g67
NtRp4246
(dp4247
g70
(dp4248
g78
I4
ssg79
g4242
sg72
(lp4249
S'^default/cleanup/\\w+\\.py$'
p4250
asbasbasbasbasbasbasbag65
(g81
g67
NtRp4251
(dp4252
g70
(dp4253
sg79
g3262
sg72
(lp4254
g65
(g86
g67
NtRp4255
(dp4256
g70
(dp4257
g90
g91
ssg79
g4251
sg72
(lp4258
S'postprocessing'
p4259
asbag65
(g86
g67
NtRp4260
(dp4261
g70
(dp4262
g97
g98
ssg79
g4251
sg72
(lp4263
S':'
asbag65
(g86
g67
NtRp4264
(dp4265
g70
(dp4266
sg79
g4251
sg72
(lp4267
g65
(g66
g67
NtRp4268
(dp4269
g70
(dp4270
g78
I5
ssg79
g4264
sg72
(lp4271
g65
(g74
g67
NtRp4272
(dp4273
g70
(dp4274
g78
I4
ssg79
Nsg72
(lp4275
sbasbasbasbag65
(g81
g67
NtRp4276
(dp4277
g70
(dp4278
sg79
g3262
sg72
(lp4279
g65
(g86
g67
NtRp4280
(dp4281
g70
(dp4282
g90
g91
ssg79
g4276
sg72
(lp4283
S'session_file'
p4284
asbag65
(g86
g67
NtRp4285
(dp4286
g70
(dp4287
g97
g98
ssg79
g4276
sg72
(lp4288
S':'
asbag65
(g86
g67
NtRp4289
(dp4290
g70
(dp4291
sg79
g4276
sg72
(lp4292
g65
(g66
g67
NtRp4293
(dp4294
g70
(dp4295
g78
I5
ssg79
g4289
sg72
(lp4296
S"<open file 'C:\\Users\\admin\\Desktop\\Sathvik\\Tharuni.Org\\applications\\admin\\sessions\\127.0.0.1-b09474c4-74c6-4bff-864d-e3d6c3b6e87e', mode 'rb+' at 0x0000000003D386F0>"
p4297
asbasbasbag65
(g81
g67
NtRp4298
(dp4299
g70
(dp4300
sg79
g3262
sg72
(lp4301
g65
(g86
g67
NtRp4302
(dp4303
g70
(dp4304
g90
g91
ssg79
g4298
sg72
(lp4305
S'session_filename'
p4306
asbag65
(g86
g67
NtRp4307
(dp4308
g70
(dp4309
g97
g98
ssg79
g4298
sg72
(lp4310
S':'
asbag65
(g86
g67
NtRp4311
(dp4312
g70
(dp4313
sg79
g4298
sg72
(lp4314
g65
(g66
g67
NtRp4315
(dp4316
g70
(dp4317
g78
I5
ssg79
g4311
sg72
(lp4318
S'C:\\Users\\admin\\Desktop\\Sathvik\\Tharuni.Org\\applications\\admin\\sessions\\127.0.0.1-b09474c4-74c6-4bff-864d-e3d6c3b6e87e'
p4319
asbasbasbag65
(g81
g67
NtRp4320
(dp4321
g70
(dp4322
sg79
g3262
sg72
(lp4323
g65
(g86
g67
NtRp4324
(dp4325
g70
(dp4326
g90
g91
ssg79
g4320
sg72
(lp4327
S'session_id'
p4328
asbag65
(g86
g67
NtRp4329
(dp4330
g70
(dp4331
g97
g98
ssg79
g4320
sg72
(lp4332
S':'
asbag65
(g86
g67
NtRp4333
(dp4334
g70
(dp4335
sg79
g4320
sg72
(lp4336
g65
(g66
g67
NtRp4337
(dp4338
g70
(dp4339
g78
I5
ssg79
g4333
sg72
(lp4340
g302
asbasbasbag65
(g81
g67
NtRp4341
(dp4342
g70
(dp4343
sg79
g3262
sg72
(lp4344
g65
(g86
g67
NtRp4345
(dp4346
g70
(dp4347
g90
g91
ssg79
g4341
sg72
(lp4348
S'session_id_name'
p4349
asbag65
(g86
g67
NtRp4350
(dp4351
g70
(dp4352
g97
g98
ssg79
g4341
sg72
(lp4353
S':'
asbag65
(g86
g67
NtRp4354
(dp4355
g70
(dp4356
sg79
g4341
sg72
(lp4357
g65
(g66
g67
NtRp4358
(dp4359
g70
(dp4360
g78
I5
ssg79
g4354
sg72
(lp4361
g3319
asbasbasbag65
(g81
g67
NtRp4362
(dp4363
g70
(dp4364
sg79
g3262
sg72
(lp4365
g65
(g86
g67
NtRp4366
(dp4367
g70
(dp4368
g90
g91
ssg79
g4362
sg72
(lp4369
S'session_locked'
p4370
asbag65
(g86
g67
NtRp4371
(dp4372
g70
(dp4373
g97
g98
ssg79
g4362
sg72
(lp4374
S':'
asbag65
(g86
g67
NtRp4375
(dp4376
g70
(dp4377
sg79
g4362
sg72
(lp4378
g65
(g66
g67
NtRp4379
(dp4380
g70
(dp4381
g78
I5
ssg79
g4375
sg72
(lp4382
g1579
asbasbasbag65
(g81
g67
NtRp4383
(dp4384
g70
(dp4385
sg79
g3262
sg72
(lp4386
g65
(g86
g67
NtRp4387
(dp4388
g70
(dp4389
g90
g91
ssg79
g4383
sg72
(lp4390
S'session_new'
p4391
asbag65
(g86
g67
NtRp4392
(dp4393
g70
(dp4394
g97
g98
ssg79
g4383
sg72
(lp4395
S':'
asbag65
(g86
g67
NtRp4396
(dp4397
g70
(dp4398
sg79
g4383
sg72
(lp4399
g65
(g66
g67
NtRp4400
(dp4401
g70
(dp4402
g78
I5
ssg79
g4396
sg72
(lp4403
g108
asbasbasbag65
(g81
g67
NtRp4404
(dp4405
g70
(dp4406
sg79
g3262
sg72
(lp4407
g65
(g86
g67
NtRp4408
(dp4409
g70
(dp4410
g90
g91
ssg79
g4404
sg72
(lp4411
S'status'
p4412
asbag65
(g86
g67
NtRp4413
(dp4414
g70
(dp4415
g97
g98
ssg79
g4404
sg72
(lp4416
S':'
asbag65
(g86
g67
NtRp4417
(dp4418
g70
(dp4419
sg79
g4404
sg72
(lp4420
g65
(g66
g67
NtRp4421
(dp4422
g70
(dp4423
g78
I5
ssg79
g4417
sg72
(lp4424
S'200'
p4425
asbasbasbag65
(g81
g67
NtRp4426
(dp4427
g70
(dp4428
sg79
g3262
sg72
(lp4429
g65
(g86
g67
NtRp4430
(dp4431
g70
(dp4432
g90
g91
ssg79
g4426
sg72
(lp4433
S'subtitle'
p4434
asbag65
(g86
g67
NtRp4435
(dp4436
g70
(dp4437
g97
g98
ssg79
g4426
sg72
(lp4438
S':'
asbag65
(g86
g67
NtRp4439
(dp4440
g70
(dp4441
sg79
g4426
sg72
(lp4442
g65
(g66
g67
NtRp4443
(dp4444
g70
(dp4445
g78
I5
ssg79
g4439
sg72
(lp4446
S'admin'
p4447
asbasbasbag65
(g81
g67
NtRp4448
(dp4449
g70
(dp4450
sg79
g3262
sg72
(lp4451
g65
(g86
g67
NtRp4452
(dp4453
g70
(dp4454
g90
g91
ssg79
g4448
sg72
(lp4455
S'title'
p4456
asbag65
(g86
g67
NtRp4457
(dp4458
g70
(dp4459
g97
g98
ssg79
g4448
sg72
(lp4460
S':'
asbag65
(g86
g67
NtRp4461
(dp4462
g70
(dp4463
sg79
g4448
sg72
(lp4464
g65
(g66
g67
NtRp4465
(dp4466
g70
(dp4467
g78
I5
ssg79
g4461
sg72
(lp4468
S'cleanup admin'
p4469
asbasbasbag65
(g81
g67
NtRp4470
(dp4471
g70
(dp4472
sg79
g3262
sg72
(lp4473
g65
(g86
g67
NtRp4474
(dp4475
g70
(dp4476
g90
g91
ssg79
g4470
sg72
(lp4477
S'view'
p4478
asbag65
(g86
g67
NtRp4479
(dp4480
g70
(dp4481
g97
g98
ssg79
g4470
sg72
(lp4482
S':'
asbag65
(g86
g67
NtRp4483
(dp4484
g70
(dp4485
sg79
g4470
sg72
(lp4486
g65
(g66
g67
NtRp4487
(dp4488
g70
(dp4489
g78
I5
ssg79
g4483
sg72
(lp4490
S'default/cleanup.html'
p4491
asbasbasbasbasbsS'locals'
p4492
(dp4493
S'f'
S"'C:/Users/admin/Desktop/Sathvik/Tharuni.Org/appli...ns/127.0.0.1-b09474c4-74c6-4bff-864d-e3d6c3b6e87e'"
p4494
sssS'traceback'
p4495
S'Traceback (most recent call last):\n  File "C:\\Users\\admin\\Desktop\\Sathvik\\Tharuni.Org\\gluon\\restricted.py", line 209, in restricted\n    exec ccode in environment\n  File "C:\\Users\\admin\\Desktop\\Sathvik\\Tharuni.Org\\applications\\admin\\controllers/default.py", line 1702, in <module>\n  File "C:\\Users\\admin\\Desktop\\Sathvik\\Tharuni.Org\\gluon\\globals.py", line 186, in <lambda>\n    self._caller = lambda f: f()\n  File "C:\\Users\\admin\\Desktop\\Sathvik\\Tharuni.Org\\applications\\admin\\controllers/default.py", line 379, in cleanup\n    clean = app_cleanup(app, request)\n  File "C:\\Users\\admin\\Desktop\\Sathvik\\Tharuni.Org\\gluon\\admin.py", line 125, in app_cleanup\n    if f[:1]!=\'.\': recursive_unlink(os.path.join(path,f))\n  File "C:\\Users\\admin\\Desktop\\Sathvik\\Tharuni.Org\\gluon\\fileutils.py", line 121, in recursive_unlink\n    os.unlink(f)\nWindowsError: [Error 32] The process cannot access the file because it is being used by another process: \'C:/Users/admin/Desktop/Sathvik/Tharuni.Org/applications/admin/sessions/127.0.0.1-b09474c4-74c6-4bff-864d-e3d6c3b6e87e\'\n'
p4496
s.