(dp1
S'question'
p2
(dp3
S'type'
p4
S'text'
p5
sS'sortable'
p6
I2
sS'sql'
p7
S'TEXT'
p8
ssS'id'
p9
(dp10
g4
g9
sg6
I1
sg7
S'INTEGER PRIMARY KEY AUTOINCREMENT'
p11
ssS'options'
p12
(dp13
g4
S'list:string'
p14
sg6
I3
sg7
S'TEXT'
p15
ssS'time'
p16
(dp17
g4
S'datetime'
p18
sg6
I6
sg7
S'TIMESTAMP'
p19
ssS'answer'
p20
(dp21
g4
S'string'
p22
sg6
I4
sg7
S'CHAR(512)'
p23
ssS'approved'
p24
(dp25
g4
S'boolean'
p26
sg6
I5
sg7
S'CHAR(1)'
p27
ss.